

Microchip MPLAB XC8 Assembler V2.30 build 20200825195618 
                                                                                               Fri Apr 23 14:46:28 2021

Microchip MPLAB XC8 C Compiler v2.30 (Free license) build 20200825195618 Og1 
     1                           	processor	18F45K20
     2                           	fnconf	rparam,??,?,0
     3                           	pagewidth 120
     4                           	opt	flic
     5                           	psect	nvCOMRAM,global,class=COMRAM,space=1,delta=1,lowdata,noexec
     6                           	psect	smallconst,global,reloc=2,class=SMALLCONST,delta=1,noexec
     7                           	psect	cinit,global,reloc=2,class=CODE,delta=1
     8                           	psect	bssCOMRAM,global,class=COMRAM,space=1,delta=1,lowdata,noexec
     9                           	psect	cstackCOMRAM,global,class=COMRAM,space=1,delta=1,lowdata,noexec
    10                           	psect	text0,global,reloc=2,class=CODE,delta=1
    11                           	psect	text1,global,reloc=2,class=CODE,delta=1
    12                           	psect	text2,global,reloc=2,class=CODE,delta=1,group=1
    13                           	psect	text3,global,reloc=2,class=CODE,delta=1,group=1
    14                           	psect	text4,global,reloc=2,class=CODE,delta=1,group=1
    15                           	psect	text5,global,reloc=2,class=CODE,delta=1
    16                           	psect	text6,global,reloc=2,class=CODE,delta=1,group=1
    17                           	psect	text7,global,reloc=2,class=CODE,delta=1,group=1
    18                           	psect	text8,global,reloc=2,class=CODE,delta=1,group=1
    19                           	psect	text9,global,reloc=2,class=CODE,delta=1,group=1
    20                           	psect	text10,global,reloc=2,class=CODE,delta=1
    21                           	psect	text11,global,reloc=2,class=CODE,delta=1
    22                           	psect	text12,global,reloc=2,class=CODE,delta=1
    23                           	psect	text13,global,reloc=2,class=CODE,delta=1
    24                           	psect	text14,global,reloc=2,class=CODE,delta=1
    25                           	psect	text15,global,reloc=2,class=CODE,delta=1
    26                           	psect	text16,global,reloc=2,class=CODE,delta=1
    27                           	psect	text17,global,reloc=2,class=CODE,delta=1
    28                           	psect	text18,global,reloc=2,class=CODE,delta=1,group=1
    29                           	psect	text19,global,reloc=2,class=CODE,delta=1,group=1
    30                           	psect	intcodelo,global,reloc=2,class=CODE,delta=1
    31                           	psect	intcode,global,reloc=2,class=CODE,delta=1
    32                           	psect	intcode_body,global,reloc=2,class=CODE,delta=1
    33                           	psect	intsave_regs,global,class=BIGRAM,space=1,delta=1,noexec
    34                           	psect	rparam,global,class=COMRAM,space=1,delta=1,noexec
    35                           	psect	temp,global,ovrld,common,class=COMRAM,space=1,delta=1
    36                           	psect	idloc,global,abs,ovrld,class=IDLOC,space=5,delta=1,noexec
    37                           	psect	config,global,abs,ovrld,class=CONFIG,space=4,delta=1,noexec
    38  0000                     
    39                           ; Version 2.20
    40                           ; Generated 05/05/2020 GMT
    41                           ; 
    42                           ; Copyright © 2020, Microchip Technology Inc. and its subsidiaries ("Microchip")
    43                           ; All rights reserved.
    44                           ; 
    45                           ; This software is developed by Microchip Technology Inc. and its subsidiaries ("Microch
      +                          ip").
    46                           ; 
    47                           ; Redistribution and use in source and binary forms, with or without modification, are
    48                           ; permitted provided that the following conditions are met:
    49                           ; 
    50                           ;     1. Redistributions of source code must retain the above copyright notice, this lis
      +                          t of
    51                           ;        conditions and the following disclaimer.
    52                           ; 
    53                           ;     2. Redistributions in binary form must reproduce the above copyright notice, this 
      +                          list
    54                           ;        of conditions and the following disclaimer in the documentation and/or other
    55                           ;        materials provided with the distribution.
    56                           ; 
    57                           ;     3. Microchip's name may not be used to endorse or promote products derived from th
      +                          is
    58                           ;        software without specific prior written permission.
    59                           ; 
    60                           ; THIS SOFTWARE IS PROVIDED BY MICROCHIP "AS IS" AND ANY EXPRESS OR IMPLIED WARRANTIES,
    61                           ; INCLUDING, BUT NOT LIMITED TO, THE IMPLIED WARRANTIES OF MERCHANTABILITY AND FITNESS F
      +                          OR
    62                           ; PURPOSE ARE DISCLAIMED.  IN NO EVENT SHALL MICROCHIP BE LIABLE FOR ANY DIRECT, INDIREC
      +                          T,
    63                           ; INCIDENTAL, SPECIAL, EXEMPLARY, OR CONSEQUENTIAL DAMAGES (INCLUDING BUT NOT LIMITED TO
    64                           ; PROCUREMENT OF SUBSTITUTE GOODS OR SERVICES; LOSS OF USE, DATA OR PROFITS; OR BUSINESS
    65                           ; INTERRUPTION) HOWSOEVER CAUSED AND ON ANY THEORY OF LIABILITY, WHETHER IN CONTRACT, ST
      +                          RICT
    66                           ; LIABILITY, OR TORT (INCLUDING NEGLIGENCE OR OTHERWISE) ARISING IN ANY WAY OUT OF THE U
      +                          SE OF
    67                           ; THIS SOFTWARE, EVEN IF ADVISED OF THE POSSIBILITY OF SUCH DAMAGE.
    68                           ; 
    69                           ; 
    70                           ; Code-generator required, PIC18F45K20 Definitions
    71                           ; 
    72                           ; SFR Addresses
    73  0000                     
    74                           	psect	nvCOMRAM
    75  000045                     __pnvCOMRAM:
    76                           	callstack 0
    77  000045                     _real_pos:
    78                           	callstack 0
    79  000045                     	ds	4
    80  000049                     _neutral_pos:
    81                           	callstack 0
    82  000049                     	ds	4
    83  0000                     _TXREG	set	4013
    84  0000                     _PIE1bits	set	3997
    85  0000                     _SPBRG	set	4015
    86  0000                     _BAUDCONbits	set	4024
    87  0000                     _RCSTAbits	set	4011
    88  0000                     _TXSTAbits	set	4012
    89  0000                     _TRISCbits	set	3988
    90  0000                     _OSCCONbits	set	4051
    91  0000                     _CCPR1L	set	4030
    92  0000                     _CCP1CONbits	set	4029
    93  0000                     _PR2	set	4043
    94  0000                     _T2CONbits	set	4042
    95  0000                     _ADRESH	set	4036
    96  0000                     _ADRESL	set	4035
    97  0000                     _ADCON0bits	set	4034
    98  0000                     _ADCON1bits	set	4033
    99  0000                     _ADCON2bits	set	4032
   100  0000                     _ANSELbits	set	3966
   101  0000                     _TRISBbits	set	3987
   102  0000                     _TRISAbits	set	3986
   103  0000                     _TRISDbits	set	3989
   104  0000                     _RCREG	set	4014
   105  0000                     _PORTDbits	set	3971
   106  0000                     _PORTA	set	3968
   107  0000                     _PORTD	set	3971
   108  0000                     _TRMT	set	32097
   109  0000                     _TXIF	set	31988
   110  0000                     _PEIE	set	32662
   111  0000                     _DC1B0	set	32236
   112  0000                     _DC1B1	set	32237
   113  0000                     _GO	set	32273
   114  0000                     _RCIF	set	31989
   115                           
   116                           	psect	smallconst
   117  000600                     __psmallconst:
   118                           	callstack 0
   119  000600  00                 	db	0
   120  000601                     STR_2:
   121  000601  30                 	db	48	;'0'
   122  000602  00                 	db	0
   123  000603                     STR_1:
   124  000603  31                 	db	49	;'1'
   125  000604  00                 	db	0
   126  000605  00                 	db	0	; dummy byte at the end
   127  0000                     
   128                           ; #config settings
   129                           
   130                           	psect	cinit
   131  001F44                     __pcinit:
   132                           	callstack 0
   133  001F44                     start_initialization:
   134                           	callstack 0
   135  001F44                     __initialization:
   136                           	callstack 0
   137                           
   138                           ; Clear objects allocated to COMRAM (12 bytes)
   139  001F44  EE00  F039         	lfsr	0,__pbssCOMRAM
   140  001F48  0E0C               	movlw	12
   141  001F4A                     clear_0:
   142  001F4A  6AEE               	clrf	postinc0,c
   143  001F4C  06E8               	decf	wreg,f,c
   144  001F4E  E1FD               	bnz	clear_0
   145  001F50                     end_of_initialization:
   146                           	callstack 0
   147  001F50                     __end_of__initialization:
   148                           	callstack 0
   149  001F50  904D               	bcf	int$flags,0,c	;clear compiler interrupt flag (level 1)
   150  001F52  924D               	bcf	int$flags,1,c	;clear compiler interrupt flag (level 2)
   151  001F54  0E00               	movlw	low (__Lsmallconst shr (0+16))
   152  001F56  6EF8               	movwf	tblptru,c
   153  001F58  0E06               	movlw	high __Lsmallconst
   154  001F5A  6EF7               	movwf	tblptrh,c
   155  001F5C  0100               	movlb	0
   156  001F5E  EF63  F005         	goto	_main	;jump to C main() function
   157                           
   158                           	psect	bssCOMRAM
   159  000039                     __pbssCOMRAM:
   160                           	callstack 0
   161  000039                     _min_pos:
   162                           	callstack 0
   163  000039                     	ds	4
   164  00003D                     _max_pos:
   165                           	callstack 0
   166  00003D                     	ds	4
   167  000041                     _send_good_posture_msg_counter:
   168                           	callstack 0
   169  000041                     	ds	2
   170  000043                     _send_bad_posture_msg_counter:
   171                           	callstack 0
   172  000043                     	ds	2
   173                           
   174                           	psect	cstackCOMRAM
   175  000001                     __pcstackCOMRAM:
   176                           	callstack 0
   177  000001                     ??_low_isr:
   178  000001                     
   179                           ; 1 bytes @ 0x0
   180  000001                     	ds	1
   181  000002                     ??_broadcast_BT:
   182  000002                     ?___fldiv:
   183                           	callstack 0
   184  000002                     ?___flmul:
   185                           	callstack 0
   186  000002                     ?___aldiv:
   187                           	callstack 0
   188  000002                     ?___fltol:
   189                           	callstack 0
   190  000002                     ?___xxtofl:
   191                           	callstack 0
   192  000002                     BT_load_char@bt:
   193                           	callstack 0
   194  000002                     ___aldiv@dividend:
   195                           	callstack 0
   196  000002                     ___flge@ff1:
   197                           	callstack 0
   198  000002                     ___fltol@f1:
   199                           	callstack 0
   200  000002                     ___fldiv@b:
   201                           	callstack 0
   202  000002                     ___flmul@b:
   203                           	callstack 0
   204  000002                     ___xxtofl@val:
   205                           	callstack 0
   206                           
   207                           ; 4 bytes @ 0x1
   208  000002                     	ds	1
   209  000003                     BT_load_string@string:
   210                           	callstack 0
   211                           
   212                           ; 2 bytes @ 0x2
   213  000003                     	ds	2
   214  000005                     
   215                           ; 1 bytes @ 0x4
   216  000005                     	ds	1
   217  000006                     ??___fltol:
   218  000006                     ??___xxtofl:
   219  000006                     ___aldiv@divisor:
   220                           	callstack 0
   221  000006                     ___flge@ff2:
   222                           	callstack 0
   223  000006                     ___fldiv@a:
   224                           	callstack 0
   225  000006                     ___flmul@a:
   226                           	callstack 0
   227                           
   228                           ; 4 bytes @ 0x5
   229  000006                     	ds	4
   230  00000A                     ??___fldiv:
   231  00000A                     ??___flmul:
   232  00000A                     ??___flge:
   233  00000A                     ___aldiv@counter:
   234                           	callstack 0
   235  00000A                     ___fltol@sign1:
   236                           	callstack 0
   237  00000A                     ___xxtofl@sign:
   238                           	callstack 0
   239                           
   240                           ; 1 bytes @ 0x9
   241  00000A                     	ds	1
   242  00000B                     ___aldiv@sign:
   243                           	callstack 0
   244  00000B                     ___fltol@exp1:
   245                           	callstack 0
   246  00000B                     ___xxtofl@exp:
   247                           	callstack 0
   248                           
   249                           ; 1 bytes @ 0xA
   250  00000B                     	ds	1
   251  00000C                     ?___lmul:
   252                           	callstack 0
   253  00000C                     ___lmul@multiplier:
   254                           	callstack 0
   255  00000C                     ___aldiv@quotient:
   256                           	callstack 0
   257  00000C                     ___xxtofl@arg:
   258                           	callstack 0
   259                           
   260                           ; 4 bytes @ 0xB
   261  00000C                     	ds	2
   262  00000E                     ___flmul@sign:
   263                           	callstack 0
   264  00000E                     ___fldiv@rem:
   265                           	callstack 0
   266                           
   267                           ; 4 bytes @ 0xD
   268  00000E                     	ds	1
   269  00000F                     ___flmul@grs:
   270                           	callstack 0
   271                           
   272                           ; 4 bytes @ 0xE
   273  00000F                     	ds	1
   274  000010                     ___lmul@multiplicand:
   275                           	callstack 0
   276                           
   277                           ; 4 bytes @ 0xF
   278  000010                     	ds	2
   279  000012                     ___fldiv@sign:
   280                           	callstack 0
   281                           
   282                           ; 1 bytes @ 0x11
   283  000012                     	ds	1
   284  000013                     ___flmul@aexp:
   285                           	callstack 0
   286  000013                     ___fldiv@new_exp:
   287                           	callstack 0
   288                           
   289                           ; 2 bytes @ 0x12
   290  000013                     	ds	1
   291  000014                     ___flmul@bexp:
   292                           	callstack 0
   293  000014                     ___lmul@product:
   294                           	callstack 0
   295                           
   296                           ; 4 bytes @ 0x13
   297  000014                     	ds	1
   298  000015                     ___fldiv@grs:
   299                           	callstack 0
   300  000015                     ___flmul@prod:
   301                           	callstack 0
   302                           
   303                           ; 4 bytes @ 0x14
   304  000015                     	ds	4
   305  000019                     ___fldiv@bexp:
   306                           	callstack 0
   307  000019                     ___flmul@temp:
   308                           	callstack 0
   309                           
   310                           ; 2 bytes @ 0x18
   311  000019                     	ds	1
   312  00001A                     ___fldiv@aexp:
   313                           	callstack 0
   314                           
   315                           ; 1 bytes @ 0x19
   316  00001A                     	ds	1
   317  00001B                     ?___fladd:
   318                           	callstack 0
   319  00001B                     Vibration_ON@percentage:
   320                           	callstack 0
   321  00001B                     ___fladd@b:
   322                           	callstack 0
   323                           
   324                           ; 4 bytes @ 0x1A
   325  00001B                     	ds	4
   326  00001F                     ??_Vibration_ON:
   327  00001F                     ___fladd@a:
   328                           	callstack 0
   329                           
   330                           ; 4 bytes @ 0x1E
   331  00001F                     	ds	4
   332  000023                     ??___fladd:
   333                           
   334                           ; 1 bytes @ 0x22
   335  000023                     	ds	1
   336  000024                     Vibration_ON@output:
   337                           	callstack 0
   338                           
   339                           ; 4 bytes @ 0x23
   340  000024                     	ds	3
   341  000027                     ___fladd@signs:
   342                           	callstack 0
   343                           
   344                           ; 1 bytes @ 0x26
   345  000027                     	ds	1
   346  000028                     ___fladd@aexp:
   347                           	callstack 0
   348                           
   349                           ; 1 bytes @ 0x27
   350  000028                     	ds	1
   351  000029                     ___fladd@bexp:
   352                           	callstack 0
   353                           
   354                           ; 1 bytes @ 0x28
   355  000029                     	ds	1
   356  00002A                     ___fladd@grs:
   357                           	callstack 0
   358                           
   359                           ; 1 bytes @ 0x29
   360  00002A                     	ds	1
   361  00002B                     ?_ADCRead_Pos:
   362                           	callstack 0
   363  00002B                     ?___flsub:
   364                           	callstack 0
   365  00002B                     ___flsub@b:
   366                           	callstack 0
   367                           
   368                           ; 4 bytes @ 0x2A
   369  00002B                     	ds	4
   370  00002F                     ??_ADCRead_Pos:
   371  00002F                     ___flsub@a:
   372                           	callstack 0
   373                           
   374                           ; 4 bytes @ 0x2E
   375  00002F                     	ds	2
   376  000031                     ADCRead_Pos@temp:
   377                           	callstack 0
   378                           
   379                           ; 4 bytes @ 0x30
   380  000031                     	ds	2
   381  000033                     
   382                           ; 1 bytes @ 0x32
   383  000033                     	ds	2
   384  000035                     ADCRead_Pos@i:
   385                           	callstack 0
   386                           
   387                           ; 2 bytes @ 0x34
   388  000035                     	ds	2
   389  000037                     ??_main:
   390                           
   391                           ; 1 bytes @ 0x36
   392  000037                     	ds	2
   393                           
   394 ;;
   395 ;;Main: autosize = 0, tempsize = 2, incstack = 0, save=0
   396 ;;
   397 ;; *************** function _main *****************
   398 ;; Defined at:
   399 ;;		line 47 in file "main.c"
   400 ;; Parameters:    Size  Location     Type
   401 ;;		None
   402 ;; Auto vars:     Size  Location     Type
   403 ;;		None
   404 ;; Return value:  Size  Location     Type
   405 ;;                  1    wreg      void 
   406 ;; Registers used:
   407 ;;		wreg, status,2, status,0, tblptrl, tblptrh, tblptru, prodl, prodh, cstack
   408 ;; Tracked objects:
   409 ;;		On entry : 0/0
   410 ;;		On exit  : 0/0
   411 ;;		Unchanged: 0/0
   412 ;; Data sizes:     COMRAM   BANK0   BANK1   BANK2   BANK3   BANK4   BANK5
   413 ;;      Params:         0       0       0       0       0       0       0
   414 ;;      Locals:         0       0       0       0       0       0       0
   415 ;;      Temps:          2       0       0       0       0       0       0
   416 ;;      Totals:         2       0       0       0       0       0       0
   417 ;;Total ram usage:        2 bytes
   418 ;; Hardware stack levels required when called:    4
   419 ;; This function calls:
   420 ;;		_ADCRead_Pos
   421 ;;		_BT_load_string
   422 ;;		_ConfigureOscillator
   423 ;;		_InitApp
   424 ;;		_Init_ADC
   425 ;;		_Init_EUSART
   426 ;;		_Init_PWM
   427 ;;		_Vibration_ON
   428 ;;		___fladd
   429 ;;		___fldiv
   430 ;;		___flge
   431 ;;		___flmul
   432 ;;		___flsub
   433 ;;		_broadcast_BT
   434 ;; This function is called by:
   435 ;;		Startup code after reset
   436 ;; This function uses a non-reentrant model
   437 ;;
   438                           
   439                           	psect	text0
   440  000AC6                     __ptext0:
   441                           	callstack 0
   442  000AC6                     _main:
   443                           	callstack 27
   444  000AC6                     
   445                           ;main.c: 50:     ConfigureOscillator();
   446  000AC6  ECD6  F00F         	call	_ConfigureOscillator	;wreg free
   447                           
   448                           ;main.c: 54:     InitApp();
   449  000ACA  ECCE  F00F         	call	_InitApp	;wreg free
   450                           
   451                           ;main.c: 55:     Init_ADC();
   452  000ACE  EC91  F00F         	call	_Init_ADC	;wreg free
   453  000AD2                     
   454                           ;main.c: 56:     Init_PWM();
   455  000AD2  ECB1  F00F         	call	_Init_PWM	;wreg free
   456  000AD6                     
   457                           ;main.c: 57:     Init_EUSART();
   458  000AD6  EC6D  F00F         	call	_Init_EUSART	;wreg free
   459  000ADA                     
   460                           ;main.c: 60:     neutral_pos = 0;
   461  000ADA  0E00               	movlw	0
   462  000ADC  6E49               	movwf	_neutral_pos^0,c
   463  000ADE  0E00               	movlw	0
   464  000AE0  6E4A               	movwf	(_neutral_pos+1)^0,c
   465  000AE2  0E00               	movlw	0
   466  000AE4  6E4B               	movwf	(_neutral_pos+2)^0,c
   467  000AE6  0E00               	movlw	0
   468  000AE8  6E4C               	movwf	(_neutral_pos+3)^0,c
   469  000AEA                     
   470                           ;main.c: 61:     real_pos = 0;
   471  000AEA  0E00               	movlw	0
   472  000AEC  6E45               	movwf	_real_pos^0,c
   473  000AEE  0E00               	movlw	0
   474  000AF0  6E46               	movwf	(_real_pos+1)^0,c
   475  000AF2  0E00               	movlw	0
   476  000AF4  6E47               	movwf	(_real_pos+2)^0,c
   477  000AF6  0E00               	movlw	0
   478  000AF8  6E48               	movwf	(_real_pos+3)^0,c
   479  000AFA                     
   480                           ;main.c: 62:     send_bad_posture_msg_counter = 0;
   481  000AFA  0E00               	movlw	0
   482  000AFC  6E44               	movwf	(_send_bad_posture_msg_counter+1)^0,c
   483  000AFE  0E00               	movlw	0
   484  000B00  6E43               	movwf	_send_bad_posture_msg_counter^0,c
   485  000B02                     
   486                           ;main.c: 63:     send_good_posture_msg_counter = 0;
   487  000B02  0E00               	movlw	0
   488  000B04  6E42               	movwf	(_send_good_posture_msg_counter+1)^0,c
   489  000B06  0E00               	movlw	0
   490  000B08  6E41               	movwf	_send_good_posture_msg_counter^0,c
   491  000B0A                     
   492                           ;main.c: 64:     PORTD =0x00;
   493  000B0A  0E00               	movlw	0
   494  000B0C  6E83               	movwf	131,c	;volatile
   495  000B0E                     
   496                           ;main.c: 65:     PORTA =0x00;
   497  000B0E  0E00               	movlw	0
   498  000B10  6E80               	movwf	128,c	;volatile
   499  000B12                     
   500                           ;main.c: 67:     Vibration_ON(0);
   501  000B12  0E00               	movlw	0
   502  000B14  6E1B               	movwf	Vibration_ON@percentage^0,c
   503  000B16  0E00               	movlw	0
   504  000B18  6E1C               	movwf	(Vibration_ON@percentage+1)^0,c
   505  000B1A  0E00               	movlw	0
   506  000B1C  6E1D               	movwf	(Vibration_ON@percentage+2)^0,c
   507  000B1E  0E00               	movlw	0
   508  000B20  6E1E               	movwf	(Vibration_ON@percentage+3)^0,c
   509  000B22  EC4C  F00C         	call	_Vibration_ON	;wreg free
   510  000B26                     
   511                           ;main.c: 70:     neutral_pos = ADCRead_Pos();
   512  000B26  EC86  F00E         	call	_ADCRead_Pos	;wreg free
   513  000B2A  C02B  F049         	movff	?_ADCRead_Pos,_neutral_pos
   514  000B2E  C02C  F04A         	movff	?_ADCRead_Pos+1,_neutral_pos+1
   515  000B32  C02D  F04B         	movff	?_ADCRead_Pos+2,_neutral_pos+2
   516  000B36  C02E  F04C         	movff	?_ADCRead_Pos+3,_neutral_pos+3
   517  000B3A                     
   518                           ;main.c: 73:     PORTDbits.RD1=1;
   519  000B3A  8283               	bsf	131,1,c	;volatile
   520  000B3C                     
   521                           ;main.c: 74:     PORTDbits.RD0=0;
   522  000B3C  9083               	bcf	131,0,c	;volatile
   523  000B3E                     
   524                           ;main.c: 75:     _delay((unsigned long)((200)*(16000000/4000.0)));
   525  000B3E  0E05               	movlw	5
   526  000B40  6E38               	movwf	(??_main+1)^0,c
   527  000B42  0E0F               	movlw	15
   528  000B44  6E37               	movwf	??_main^0,c
   529  000B46  0EF1               	movlw	241
   530  000B48                     u2617:
   531  000B48  2EE8               	decfsz	wreg,f,c
   532  000B4A  D7FE               	bra	u2617
   533  000B4C  2E37               	decfsz	??_main^0,f,c
   534  000B4E  D7FC               	bra	u2617
   535  000B50  2E38               	decfsz	(??_main+1)^0,f,c
   536  000B52  D7FA               	bra	u2617
   537  000B54  F000               	nop	
   538  000B56                     
   539                           ;main.c: 76:     PORTDbits.RD1=0;
   540  000B56  9283               	bcf	131,1,c	;volatile
   541  000B58                     
   542                           ;main.c: 77:     PORTDbits.RD0=1;
   543  000B58  8083               	bsf	131,0,c	;volatile
   544  000B5A                     
   545                           ;main.c: 78:     _delay((unsigned long)((200)*(16000000/4000.0)));
   546  000B5A  0E05               	movlw	5
   547  000B5C  6E38               	movwf	(??_main+1)^0,c
   548  000B5E  0E0F               	movlw	15
   549  000B60  6E37               	movwf	??_main^0,c
   550  000B62  0EF1               	movlw	241
   551  000B64                     u2627:
   552  000B64  2EE8               	decfsz	wreg,f,c
   553  000B66  D7FE               	bra	u2627
   554  000B68  2E37               	decfsz	??_main^0,f,c
   555  000B6A  D7FC               	bra	u2627
   556  000B6C  2E38               	decfsz	(??_main+1)^0,f,c
   557  000B6E  D7FA               	bra	u2627
   558  000B70  F000               	nop	
   559  000B72                     
   560                           ;main.c: 79:     PORTDbits.RD1=1;
   561  000B72  8283               	bsf	131,1,c	;volatile
   562  000B74                     
   563                           ;main.c: 80:     PORTDbits.RD0=0;
   564  000B74  9083               	bcf	131,0,c	;volatile
   565  000B76                     
   566                           ;main.c: 81:     _delay((unsigned long)((200)*(16000000/4000.0)));
   567  000B76  0E05               	movlw	5
   568  000B78  6E38               	movwf	(??_main+1)^0,c
   569  000B7A  0E0F               	movlw	15
   570  000B7C  6E37               	movwf	??_main^0,c
   571  000B7E  0EF1               	movlw	241
   572  000B80                     u2637:
   573  000B80  2EE8               	decfsz	wreg,f,c
   574  000B82  D7FE               	bra	u2637
   575  000B84  2E37               	decfsz	??_main^0,f,c
   576  000B86  D7FC               	bra	u2637
   577  000B88  2E38               	decfsz	(??_main+1)^0,f,c
   578  000B8A  D7FA               	bra	u2637
   579  000B8C  F000               	nop	
   580  000B8E                     
   581                           ;main.c: 82:     PORTDbits.RD1=0;
   582  000B8E  9283               	bcf	131,1,c	;volatile
   583  000B90                     
   584                           ;main.c: 83:     PORTDbits.RD0=0;
   585  000B90  9083               	bcf	131,0,c	;volatile
   586  000B92                     
   587                           ;main.c: 85:     max_pos = neutral_pos + (neutral_pos*0.10);
   588  000B92  0ECD               	movlw	205
   589  000B94  6E06               	movwf	___flmul@a^0,c
   590  000B96  0ECC               	movlw	204
   591  000B98  6E07               	movwf	(___flmul@a+1)^0,c
   592  000B9A  0ECC               	movlw	204
   593  000B9C  6E08               	movwf	(___flmul@a+2)^0,c
   594  000B9E  0E3D               	movlw	61
   595  000BA0  6E09               	movwf	(___flmul@a+3)^0,c
   596  000BA2  C049  F002         	movff	_neutral_pos,___flmul@b
   597  000BA6  C04A  F003         	movff	_neutral_pos+1,___flmul@b+1
   598  000BAA  C04B  F004         	movff	_neutral_pos+2,___flmul@b+2
   599  000BAE  C04C  F005         	movff	_neutral_pos+3,___flmul@b+3
   600  000BB2  EC90  F007         	call	___flmul	;wreg free
   601  000BB6  C002  F01B         	movff	?___flmul,___fladd@b
   602  000BBA  C003  F01C         	movff	?___flmul+1,___fladd@b+1
   603  000BBE  C004  F01D         	movff	?___flmul+2,___fladd@b+2
   604  000BC2  C005  F01E         	movff	?___flmul+3,___fladd@b+3
   605  000BC6  C049  F01F         	movff	_neutral_pos,___fladd@a
   606  000BCA  C04A  F020         	movff	_neutral_pos+1,___fladd@a+1
   607  000BCE  C04B  F021         	movff	_neutral_pos+2,___fladd@a+2
   608  000BD2  C04C  F022         	movff	_neutral_pos+3,___fladd@a+3
   609  000BD6  EC03  F003         	call	___fladd	;wreg free
   610  000BDA  C01B  F03D         	movff	?___fladd,_max_pos
   611  000BDE  C01C  F03E         	movff	?___fladd+1,_max_pos+1
   612  000BE2  C01D  F03F         	movff	?___fladd+2,_max_pos+2
   613  000BE6  C01E  F040         	movff	?___fladd+3,_max_pos+3
   614  000BEA                     
   615                           ;main.c: 86:     min_pos = neutral_pos - (neutral_pos*0.10);
   616  000BEA  C049  F02B         	movff	_neutral_pos,___flsub@b
   617  000BEE  C04A  F02C         	movff	_neutral_pos+1,___flsub@b+1
   618  000BF2  C04B  F02D         	movff	_neutral_pos+2,___flsub@b+2
   619  000BF6  C04C  F02E         	movff	_neutral_pos+3,___flsub@b+3
   620  000BFA  0ECD               	movlw	205
   621  000BFC  6E06               	movwf	___flmul@a^0,c
   622  000BFE  0ECC               	movlw	204
   623  000C00  6E07               	movwf	(___flmul@a+1)^0,c
   624  000C02  0ECC               	movlw	204
   625  000C04  6E08               	movwf	(___flmul@a+2)^0,c
   626  000C06  0E3D               	movlw	61
   627  000C08  6E09               	movwf	(___flmul@a+3)^0,c
   628  000C0A  C049  F002         	movff	_neutral_pos,___flmul@b
   629  000C0E  C04A  F003         	movff	_neutral_pos+1,___flmul@b+1
   630  000C12  C04B  F004         	movff	_neutral_pos+2,___flmul@b+2
   631  000C16  C04C  F005         	movff	_neutral_pos+3,___flmul@b+3
   632  000C1A  EC90  F007         	call	___flmul	;wreg free
   633  000C1E  C002  F02F         	movff	?___flmul,___flsub@a
   634  000C22  C003  F030         	movff	?___flmul+1,___flsub@a+1
   635  000C26  C004  F031         	movff	?___flmul+2,___flsub@a+2
   636  000C2A  C005  F032         	movff	?___flmul+3,___flsub@a+3
   637  000C2E  EC2F  F00F         	call	___flsub	;wreg free
   638  000C32  C02B  F039         	movff	?___flsub,_min_pos
   639  000C36  C02C  F03A         	movff	?___flsub+1,_min_pos+1
   640  000C3A  C02D  F03B         	movff	?___flsub+2,_min_pos+2
   641  000C3E  C02E  F03C         	movff	?___flsub+3,_min_pos+3
   642  000C42                     l2420:
   643                           
   644                           ;main.c: 89:    {;main.c: 93:         real_pos = ADCRead_Pos();
   645  000C42  EC86  F00E         	call	_ADCRead_Pos	;wreg free
   646  000C46  C02B  F045         	movff	?_ADCRead_Pos,_real_pos
   647  000C4A  C02C  F046         	movff	?_ADCRead_Pos+1,_real_pos+1
   648  000C4E  C02D  F047         	movff	?_ADCRead_Pos+2,_real_pos+2
   649  000C52  C02E  F048         	movff	?_ADCRead_Pos+3,_real_pos+3
   650  000C56                     
   651                           ;main.c: 97:         if (real_pos>=min_pos && real_pos<=max_pos){
   652  000C56  C045  F002         	movff	_real_pos,___flge@ff1
   653  000C5A  C046  F003         	movff	_real_pos+1,___flge@ff1+1
   654  000C5E  C047  F004         	movff	_real_pos+2,___flge@ff1+2
   655  000C62  C048  F005         	movff	_real_pos+3,___flge@ff1+3
   656  000C66  C039  F006         	movff	_min_pos,___flge@ff2
   657  000C6A  C03A  F007         	movff	_min_pos+1,___flge@ff2+1
   658  000C6E  C03B  F008         	movff	_min_pos+2,___flge@ff2+2
   659  000C72  C03C  F009         	movff	_min_pos+3,___flge@ff2+3
   660  000C76  EC04  F00E         	call	___flge	;wreg free
   661  000C7A  A0D8               	btfss	status,0,c
   662  000C7C  EF42  F006         	goto	u2531
   663  000C80  EF44  F006         	goto	u2530
   664  000C84                     u2531:
   665  000C84  EF8D  F006         	goto	l2442
   666  000C88                     u2530:
   667  000C88  C03D  F002         	movff	_max_pos,___flge@ff1
   668  000C8C  C03E  F003         	movff	_max_pos+1,___flge@ff1+1
   669  000C90  C03F  F004         	movff	_max_pos+2,___flge@ff1+2
   670  000C94  C040  F005         	movff	_max_pos+3,___flge@ff1+3
   671  000C98  C045  F006         	movff	_real_pos,___flge@ff2
   672  000C9C  C046  F007         	movff	_real_pos+1,___flge@ff2+1
   673  000CA0  C047  F008         	movff	_real_pos+2,___flge@ff2+2
   674  000CA4  C048  F009         	movff	_real_pos+3,___flge@ff2+3
   675  000CA8  EC04  F00E         	call	___flge	;wreg free
   676  000CAC  A0D8               	btfss	status,0,c
   677  000CAE  EF5B  F006         	goto	u2541
   678  000CB2  EF5D  F006         	goto	u2540
   679  000CB6                     u2541:
   680  000CB6  EF8D  F006         	goto	l2442
   681  000CBA                     u2540:
   682  000CBA                     
   683                           ;main.c: 99:             PORTDbits.RD0=0;
   684  000CBA  9083               	bcf	131,0,c	;volatile
   685  000CBC                     
   686                           ;main.c: 100:             Vibration_ON(0);
   687  000CBC  0E00               	movlw	0
   688  000CBE  6E1B               	movwf	Vibration_ON@percentage^0,c
   689  000CC0  0E00               	movlw	0
   690  000CC2  6E1C               	movwf	(Vibration_ON@percentage+1)^0,c
   691  000CC4  0E00               	movlw	0
   692  000CC6  6E1D               	movwf	(Vibration_ON@percentage+2)^0,c
   693  000CC8  0E00               	movlw	0
   694  000CCA  6E1E               	movwf	(Vibration_ON@percentage+3)^0,c
   695  000CCC  EC4C  F00C         	call	_Vibration_ON	;wreg free
   696  000CD0                     
   697                           ;main.c: 102:             send_bad_posture_msg_counter = 0;
   698  000CD0  0E00               	movlw	0
   699  000CD2  6E44               	movwf	(_send_bad_posture_msg_counter+1)^0,c
   700  000CD4  0E00               	movlw	0
   701  000CD6  6E43               	movwf	_send_bad_posture_msg_counter^0,c
   702  000CD8                     
   703                           ;main.c: 103:             if(send_good_posture_msg_counter == 0){
   704  000CD8  5041               	movf	_send_good_posture_msg_counter^0,w,c
   705  000CDA  1042               	iorwf	(_send_good_posture_msg_counter+1)^0,w,c
   706  000CDC  A4D8               	btfss	status,2,c
   707  000CDE  EF73  F006         	goto	u2551
   708  000CE2  EF75  F006         	goto	u2550
   709  000CE6                     u2551:
   710  000CE6  EF89  F006         	goto	l2440
   711  000CEA                     u2550:
   712  000CEA                     
   713                           ;main.c: 105:                 BT_load_string("1");
   714  000CEA  0E03               	movlw	low STR_1
   715  000CEC  6E03               	movwf	BT_load_string@string^0,c
   716  000CEE  0E06               	movlw	high STR_1
   717  000CF0  6E04               	movwf	(BT_load_string@string+1)^0,c
   718  000CF2  EC52  F00F         	call	_BT_load_string	;wreg free
   719  000CF6                     
   720                           ;main.c: 106:                 _delay((unsigned long)((100)*(16000000/4000.0)));
   721  000CF6  0E03               	movlw	3
   722  000CF8  6E38               	movwf	(??_main+1)^0,c
   723  000CFA  0E08               	movlw	8
   724  000CFC  6E37               	movwf	??_main^0,c
   725  000CFE  0E77               	movlw	119
   726  000D00                     u2647:
   727  000D00  2EE8               	decfsz	wreg,f,c
   728  000D02  D7FE               	bra	u2647
   729  000D04  2E37               	decfsz	??_main^0,f,c
   730  000D06  D7FC               	bra	u2647
   731  000D08  2E38               	decfsz	(??_main+1)^0,f,c
   732  000D0A  D7FA               	bra	u2647
   733  000D0C  F000               	nop	
   734  000D0E                     
   735                           ;main.c: 107:                 broadcast_BT();
   736  000D0E  ECC0  F00F         	call	_broadcast_BT	;wreg free
   737  000D12                     l2440:
   738                           
   739                           ;main.c: 109:             send_good_posture_msg_counter++;
   740  000D12  4A41               	infsnz	_send_good_posture_msg_counter^0,f,c
   741  000D14  2A42               	incf	(_send_good_posture_msg_counter+1)^0,f,c
   742                           
   743                           ;main.c: 110:         }
   744  000D16  EF0C  F007         	goto	l2464
   745  000D1A                     l2442:
   746  000D1A  C045  F002         	movff	_real_pos,___flge@ff1
   747  000D1E  C046  F003         	movff	_real_pos+1,___flge@ff1+1
   748  000D22  C047  F004         	movff	_real_pos+2,___flge@ff1+2
   749  000D26  C048  F005         	movff	_real_pos+3,___flge@ff1+3
   750  000D2A  C039  F006         	movff	_min_pos,___flge@ff2
   751  000D2E  C03A  F007         	movff	_min_pos+1,___flge@ff2+1
   752  000D32  C03B  F008         	movff	_min_pos+2,___flge@ff2+2
   753  000D36  C03C  F009         	movff	_min_pos+3,___flge@ff2+3
   754  000D3A  EC04  F00E         	call	___flge	;wreg free
   755  000D3E  A0D8               	btfss	status,0,c
   756  000D40  EFA4  F006         	goto	u2561
   757  000D44  EFA6  F006         	goto	u2560
   758  000D48                     u2561:
   759  000D48  EFBF  F006         	goto	l2446
   760  000D4C                     u2560:
   761  000D4C  C03D  F002         	movff	_max_pos,___flge@ff1
   762  000D50  C03E  F003         	movff	_max_pos+1,___flge@ff1+1
   763  000D54  C03F  F004         	movff	_max_pos+2,___flge@ff1+2
   764  000D58  C040  F005         	movff	_max_pos+3,___flge@ff1+3
   765  000D5C  C045  F006         	movff	_real_pos,___flge@ff2
   766  000D60  C046  F007         	movff	_real_pos+1,___flge@ff2+1
   767  000D64  C047  F008         	movff	_real_pos+2,___flge@ff2+2
   768  000D68  C048  F009         	movff	_real_pos+3,___flge@ff2+3
   769  000D6C  EC04  F00E         	call	___flge	;wreg free
   770  000D70  B0D8               	btfsc	status,0,c
   771  000D72  EFBD  F006         	goto	u2571
   772  000D76  EFBF  F006         	goto	u2570
   773  000D7A                     u2571:
   774  000D7A  EF0C  F007         	goto	l2464
   775  000D7E                     u2570:
   776  000D7E                     l2446:
   777                           
   778                           ;main.c: 116:             _delay((unsigned long)((1000)*(16000000/4000.0)));
   779  000D7E  0E15               	movlw	21
   780  000D80  6E38               	movwf	(??_main+1)^0,c
   781  000D82  0E4B               	movlw	75
   782  000D84  6E37               	movwf	??_main^0,c
   783  000D86  0EBE               	movlw	190
   784  000D88                     u2657:
   785  000D88  2EE8               	decfsz	wreg,f,c
   786  000D8A  D7FE               	bra	u2657
   787  000D8C  2E37               	decfsz	??_main^0,f,c
   788  000D8E  D7FC               	bra	u2657
   789  000D90  2E38               	decfsz	(??_main+1)^0,f,c
   790  000D92  D7FA               	bra	u2657
   791  000D94  F000 F000          	nop2	
   792  000D98                     
   793                           ;main.c: 117:             PORTDbits.RD0=1;
   794  000D98  8083               	bsf	131,0,c	;volatile
   795  000D9A                     
   796                           ;main.c: 118:             Vibration_ON(real_pos/256);
   797  000D9A  C045  F002         	movff	_real_pos,___fldiv@b
   798  000D9E  C046  F003         	movff	_real_pos+1,___fldiv@b+1
   799  000DA2  C047  F004         	movff	_real_pos+2,___fldiv@b+2
   800  000DA6  C048  F005         	movff	_real_pos+3,___fldiv@b+3
   801  000DAA  0E00               	movlw	0
   802  000DAC  6E06               	movwf	___fldiv@a^0,c
   803  000DAE  0E00               	movlw	0
   804  000DB0  6E07               	movwf	(___fldiv@a+1)^0,c
   805  000DB2  0E80               	movlw	128
   806  000DB4  6E08               	movwf	(___fldiv@a+2)^0,c
   807  000DB6  0E43               	movlw	67
   808  000DB8  6E09               	movwf	(___fldiv@a+3)^0,c
   809  000DBA  ECA5  F009         	call	___fldiv	;wreg free
   810  000DBE  C002  F01B         	movff	?___fldiv,Vibration_ON@percentage
   811  000DC2  C003  F01C         	movff	?___fldiv+1,Vibration_ON@percentage+1
   812  000DC6  C004  F01D         	movff	?___fldiv+2,Vibration_ON@percentage+2
   813  000DCA  C005  F01E         	movff	?___fldiv+3,Vibration_ON@percentage+3
   814  000DCE  EC4C  F00C         	call	_Vibration_ON	;wreg free
   815  000DD2                     
   816                           ;main.c: 120:             send_good_posture_msg_counter = 0;
   817  000DD2  0E00               	movlw	0
   818  000DD4  6E42               	movwf	(_send_good_posture_msg_counter+1)^0,c
   819  000DD6  0E00               	movlw	0
   820  000DD8  6E41               	movwf	_send_good_posture_msg_counter^0,c
   821  000DDA                     
   822                           ;main.c: 121:             if (send_bad_posture_msg_counter == 0){
   823  000DDA  5043               	movf	_send_bad_posture_msg_counter^0,w,c
   824  000DDC  1044               	iorwf	(_send_bad_posture_msg_counter+1)^0,w,c
   825  000DDE  A4D8               	btfss	status,2,c
   826  000DE0  EFF4  F006         	goto	u2581
   827  000DE4  EFF6  F006         	goto	u2580
   828  000DE8                     u2581:
   829  000DE8  EF0A  F007         	goto	l2462
   830  000DEC                     u2580:
   831  000DEC                     
   832                           ;main.c: 123:                 BT_load_string("0");
   833  000DEC  0E01               	movlw	low STR_2
   834  000DEE  6E03               	movwf	BT_load_string@string^0,c
   835  000DF0  0E06               	movlw	high STR_2
   836  000DF2  6E04               	movwf	(BT_load_string@string+1)^0,c
   837  000DF4  EC52  F00F         	call	_BT_load_string	;wreg free
   838  000DF8                     
   839                           ;main.c: 124:                 _delay((unsigned long)((100)*(16000000/4000.0)));
   840  000DF8  0E03               	movlw	3
   841  000DFA  6E38               	movwf	(??_main+1)^0,c
   842  000DFC  0E08               	movlw	8
   843  000DFE  6E37               	movwf	??_main^0,c
   844  000E00  0E77               	movlw	119
   845  000E02                     u2667:
   846  000E02  2EE8               	decfsz	wreg,f,c
   847  000E04  D7FE               	bra	u2667
   848  000E06  2E37               	decfsz	??_main^0,f,c
   849  000E08  D7FC               	bra	u2667
   850  000E0A  2E38               	decfsz	(??_main+1)^0,f,c
   851  000E0C  D7FA               	bra	u2667
   852  000E0E  F000               	nop	
   853  000E10                     
   854                           ;main.c: 125:                 broadcast_BT();
   855  000E10  ECC0  F00F         	call	_broadcast_BT	;wreg free
   856  000E14                     l2462:
   857                           
   858                           ;main.c: 127:             send_bad_posture_msg_counter++;
   859  000E14  4A43               	infsnz	_send_bad_posture_msg_counter^0,f,c
   860  000E16  2A44               	incf	(_send_bad_posture_msg_counter+1)^0,f,c
   861  000E18                     l2464:
   862                           
   863                           ;main.c: 132:         if (RCIF == 1){
   864  000E18  AA9E               	btfss	3998,5,c	;volatile
   865  000E1A  EF11  F007         	goto	u2591
   866  000E1E  EF13  F007         	goto	u2590
   867  000E22                     u2591:
   868  000E22  EF21  F006         	goto	l2420
   869  000E26                     u2590:
   870  000E26                     
   871                           ;main.c: 134:             if(RCREG=='1'){
   872  000E26  0E31               	movlw	49
   873  000E28  18AE               	xorwf	174,w,c	;volatile
   874  000E2A  A4D8               	btfss	status,2,c
   875  000E2C  EF1A  F007         	goto	u2601
   876  000E30  EF1C  F007         	goto	u2600
   877  000E34                     u2601:
   878  000E34  EF21  F006         	goto	l2420
   879  000E38                     u2600:
   880  000E38                     
   881                           ;main.c: 136:                 PORTDbits.RD1=1;
   882  000E38  8283               	bsf	131,1,c	;volatile
   883  000E3A                     
   884                           ;main.c: 137:                 _delay((unsigned long)((200)*(16000000/4000.0)));
   885  000E3A  0E05               	movlw	5
   886  000E3C  6E38               	movwf	(??_main+1)^0,c
   887  000E3E  0E0F               	movlw	15
   888  000E40  6E37               	movwf	??_main^0,c
   889  000E42  0EF1               	movlw	241
   890  000E44                     u2677:
   891  000E44  2EE8               	decfsz	wreg,f,c
   892  000E46  D7FE               	bra	u2677
   893  000E48  2E37               	decfsz	??_main^0,f,c
   894  000E4A  D7FC               	bra	u2677
   895  000E4C  2E38               	decfsz	(??_main+1)^0,f,c
   896  000E4E  D7FA               	bra	u2677
   897  000E50  F000               	nop	
   898  000E52                     
   899                           ;main.c: 138:                 neutral_pos = ADCRead_Pos();
   900  000E52  EC86  F00E         	call	_ADCRead_Pos	;wreg free
   901  000E56  C02B  F049         	movff	?_ADCRead_Pos,_neutral_pos
   902  000E5A  C02C  F04A         	movff	?_ADCRead_Pos+1,_neutral_pos+1
   903  000E5E  C02D  F04B         	movff	?_ADCRead_Pos+2,_neutral_pos+2
   904  000E62  C02E  F04C         	movff	?_ADCRead_Pos+3,_neutral_pos+3
   905  000E66                     
   906                           ;main.c: 139:                 PORTDbits.RD1=0;
   907  000E66  9283               	bcf	131,1,c	;volatile
   908  000E68                     
   909                           ;main.c: 141:                 max_pos = neutral_pos + (neutral_pos*0.10);
   910  000E68  0ECD               	movlw	205
   911  000E6A  6E06               	movwf	___flmul@a^0,c
   912  000E6C  0ECC               	movlw	204
   913  000E6E  6E07               	movwf	(___flmul@a+1)^0,c
   914  000E70  0ECC               	movlw	204
   915  000E72  6E08               	movwf	(___flmul@a+2)^0,c
   916  000E74  0E3D               	movlw	61
   917  000E76  6E09               	movwf	(___flmul@a+3)^0,c
   918  000E78  C049  F002         	movff	_neutral_pos,___flmul@b
   919  000E7C  C04A  F003         	movff	_neutral_pos+1,___flmul@b+1
   920  000E80  C04B  F004         	movff	_neutral_pos+2,___flmul@b+2
   921  000E84  C04C  F005         	movff	_neutral_pos+3,___flmul@b+3
   922  000E88  EC90  F007         	call	___flmul	;wreg free
   923  000E8C  C002  F01B         	movff	?___flmul,___fladd@b
   924  000E90  C003  F01C         	movff	?___flmul+1,___fladd@b+1
   925  000E94  C004  F01D         	movff	?___flmul+2,___fladd@b+2
   926  000E98  C005  F01E         	movff	?___flmul+3,___fladd@b+3
   927  000E9C  C049  F01F         	movff	_neutral_pos,___fladd@a
   928  000EA0  C04A  F020         	movff	_neutral_pos+1,___fladd@a+1
   929  000EA4  C04B  F021         	movff	_neutral_pos+2,___fladd@a+2
   930  000EA8  C04C  F022         	movff	_neutral_pos+3,___fladd@a+3
   931  000EAC  EC03  F003         	call	___fladd	;wreg free
   932  000EB0  C01B  F03D         	movff	?___fladd,_max_pos
   933  000EB4  C01C  F03E         	movff	?___fladd+1,_max_pos+1
   934  000EB8  C01D  F03F         	movff	?___fladd+2,_max_pos+2
   935  000EBC  C01E  F040         	movff	?___fladd+3,_max_pos+3
   936  000EC0                     
   937                           ;main.c: 142:                 min_pos = neutral_pos - (neutral_pos*0.10);
   938  000EC0  C049  F02B         	movff	_neutral_pos,___flsub@b
   939  000EC4  C04A  F02C         	movff	_neutral_pos+1,___flsub@b+1
   940  000EC8  C04B  F02D         	movff	_neutral_pos+2,___flsub@b+2
   941  000ECC  C04C  F02E         	movff	_neutral_pos+3,___flsub@b+3
   942  000ED0  0ECD               	movlw	205
   943  000ED2  6E06               	movwf	___flmul@a^0,c
   944  000ED4  0ECC               	movlw	204
   945  000ED6  6E07               	movwf	(___flmul@a+1)^0,c
   946  000ED8  0ECC               	movlw	204
   947  000EDA  6E08               	movwf	(___flmul@a+2)^0,c
   948  000EDC  0E3D               	movlw	61
   949  000EDE  6E09               	movwf	(___flmul@a+3)^0,c
   950  000EE0  C049  F002         	movff	_neutral_pos,___flmul@b
   951  000EE4  C04A  F003         	movff	_neutral_pos+1,___flmul@b+1
   952  000EE8  C04B  F004         	movff	_neutral_pos+2,___flmul@b+2
   953  000EEC  C04C  F005         	movff	_neutral_pos+3,___flmul@b+3
   954  000EF0  EC90  F007         	call	___flmul	;wreg free
   955  000EF4  C002  F02F         	movff	?___flmul,___flsub@a
   956  000EF8  C003  F030         	movff	?___flmul+1,___flsub@a+1
   957  000EFC  C004  F031         	movff	?___flmul+2,___flsub@a+2
   958  000F00  C005  F032         	movff	?___flmul+3,___flsub@a+3
   959  000F04  EC2F  F00F         	call	___flsub	;wreg free
   960  000F08  C02B  F039         	movff	?___flsub,_min_pos
   961  000F0C  C02C  F03A         	movff	?___flsub+1,_min_pos+1
   962  000F10  C02D  F03B         	movff	?___flsub+2,_min_pos+2
   963  000F14  C02E  F03C         	movff	?___flsub+3,_min_pos+3
   964  000F18  EF21  F006         	goto	l2420
   965  000F1C  EF13  F000         	goto	start
   966  000F20                     __end_of_main:
   967                           	callstack 0
   968                           
   969 ;; *************** function _broadcast_BT *****************
   970 ;; Defined at:
   971 ;;		line 48 in file "EUSART.c"
   972 ;; Parameters:    Size  Location     Type
   973 ;;		None
   974 ;; Auto vars:     Size  Location     Type
   975 ;;		None
   976 ;; Return value:  Size  Location     Type
   977 ;;                  1    wreg      void 
   978 ;; Registers used:
   979 ;;		wreg, status,2
   980 ;; Tracked objects:
   981 ;;		On entry : 0/0
   982 ;;		On exit  : 0/0
   983 ;;		Unchanged: 0/0
   984 ;; Data sizes:     COMRAM   BANK0   BANK1   BANK2   BANK3   BANK4   BANK5
   985 ;;      Params:         0       0       0       0       0       0       0
   986 ;;      Locals:         0       0       0       0       0       0       0
   987 ;;      Temps:          2       0       0       0       0       0       0
   988 ;;      Totals:         2       0       0       0       0       0       0
   989 ;;Total ram usage:        2 bytes
   990 ;; Hardware stack levels used:    1
   991 ;; Hardware stack levels required when called:    2
   992 ;; This function calls:
   993 ;;		Nothing
   994 ;; This function is called by:
   995 ;;		_main
   996 ;; This function uses a non-reentrant model
   997 ;;
   998                           
   999                           	psect	text1
  1000  001F80                     __ptext1:
  1001                           	callstack 0
  1002  001F80                     _broadcast_BT:
  1003                           	callstack 28
  1004  001F80                     
  1005                           ;EUSART.c: 50:   TXREG = 13;
  1006  001F80  0E0D               	movlw	13
  1007  001F82  6EAD               	movwf	173,c	;volatile
  1008  001F84                     
  1009                           ;EUSART.c: 51:   _delay((unsigned long)((500)*(16000000/4000.0)));
  1010  001F84  0E0B               	movlw	11
  1011  001F86  6E03               	movwf	(??_broadcast_BT+1)^0,c
  1012  001F88  0E26               	movlw	38
  1013  001F8A  6E02               	movwf	??_broadcast_BT^0,c
  1014  001F8C  0E5E               	movlw	94
  1015  001F8E                     u2687:
  1016  001F8E  2EE8               	decfsz	wreg,f,c
  1017  001F90  D7FE               	bra	u2687
  1018  001F92  2E02               	decfsz	??_broadcast_BT^0,f,c
  1019  001F94  D7FC               	bra	u2687
  1020  001F96  2E03               	decfsz	(??_broadcast_BT+1)^0,f,c
  1021  001F98  D7FA               	bra	u2687
  1022  001F9A  0012               	return		;funcret
  1023  001F9C                     __end_of_broadcast_BT:
  1024                           	callstack 0
  1025                           
  1026 ;; *************** function ___flsub *****************
  1027 ;; Defined at:
  1028 ;;		line 245 in file "C:\Program Files\Microchip\xc8\v2.30\pic\sources\c99\common\sprcadd.c"
  1029 ;; Parameters:    Size  Location     Type
  1030 ;;  b               4   42[COMRAM] void 
  1031 ;;  a               4   46[COMRAM] void 
  1032 ;; Auto vars:     Size  Location     Type
  1033 ;;		None
  1034 ;; Return value:  Size  Location     Type
  1035 ;;                  4   42[COMRAM] void 
  1036 ;; Registers used:
  1037 ;;		wreg, status,2, status,0, cstack
  1038 ;; Tracked objects:
  1039 ;;		On entry : 0/0
  1040 ;;		On exit  : 0/0
  1041 ;;		Unchanged: 0/0
  1042 ;; Data sizes:     COMRAM   BANK0   BANK1   BANK2   BANK3   BANK4   BANK5
  1043 ;;      Params:         8       0       0       0       0       0       0
  1044 ;;      Locals:         0       0       0       0       0       0       0
  1045 ;;      Temps:          0       0       0       0       0       0       0
  1046 ;;      Totals:         8       0       0       0       0       0       0
  1047 ;;Total ram usage:        8 bytes
  1048 ;; Hardware stack levels used:    1
  1049 ;; Hardware stack levels required when called:    3
  1050 ;; This function calls:
  1051 ;;		___fladd
  1052 ;; This function is called by:
  1053 ;;		_main
  1054 ;; This function uses a non-reentrant model
  1055 ;;
  1056                           
  1057                           	psect	text2
  1058  001E5E                     __ptext2:
  1059                           	callstack 0
  1060  001E5E                     ___flsub:
  1061                           	callstack 27
  1062  001E5E  0E00               	movlw	0
  1063  001E60  1A2F               	xorwf	___flsub@a^0,f,c
  1064  001E62  0E00               	movlw	0
  1065  001E64  1A30               	xorwf	(___flsub@a+1)^0,f,c
  1066  001E66  0E00               	movlw	0
  1067  001E68  1A31               	xorwf	(___flsub@a+2)^0,f,c
  1068  001E6A  0E80               	movlw	128
  1069  001E6C  1A32               	xorwf	(___flsub@a+3)^0,f,c
  1070  001E6E  C02B  F01B         	movff	___flsub@b,___fladd@b
  1071  001E72  C02C  F01C         	movff	___flsub@b+1,___fladd@b+1
  1072  001E76  C02D  F01D         	movff	___flsub@b+2,___fladd@b+2
  1073  001E7A  C02E  F01E         	movff	___flsub@b+3,___fladd@b+3
  1074  001E7E  C02F  F01F         	movff	___flsub@a,___fladd@a
  1075  001E82  C030  F020         	movff	___flsub@a+1,___fladd@a+1
  1076  001E86  C031  F021         	movff	___flsub@a+2,___fladd@a+2
  1077  001E8A  C032  F022         	movff	___flsub@a+3,___fladd@a+3
  1078  001E8E  EC03  F003         	call	___fladd	;wreg free
  1079  001E92  C01B  F02B         	movff	?___fladd,?___flsub
  1080  001E96  C01C  F02C         	movff	?___fladd+1,?___flsub+1
  1081  001E9A  C01D  F02D         	movff	?___fladd+2,?___flsub+2
  1082  001E9E  C01E  F02E         	movff	?___fladd+3,?___flsub+3
  1083  001EA2  0012               	return		;funcret
  1084  001EA4                     __end_of___flsub:
  1085                           	callstack 0
  1086                           
  1087 ;; *************** function ___flmul *****************
  1088 ;; Defined at:
  1089 ;;		line 8 in file "C:\Program Files\Microchip\xc8\v2.30\pic\sources\c99\common\sprcmul.c"
  1090 ;; Parameters:    Size  Location     Type
  1091 ;;  b               4    1[COMRAM] void 
  1092 ;;  a               4    5[COMRAM] void 
  1093 ;; Auto vars:     Size  Location     Type
  1094 ;;  prod            4   20[COMRAM] struct .
  1095 ;;  grs             4   14[COMRAM] unsigned long 
  1096 ;;  temp            2   24[COMRAM] struct .
  1097 ;;  bexp            1   19[COMRAM] unsigned char 
  1098 ;;  aexp            1   18[COMRAM] unsigned char 
  1099 ;;  sign            1   13[COMRAM] unsigned char 
  1100 ;; Return value:  Size  Location     Type
  1101 ;;                  4    1[COMRAM] unsigned char 
  1102 ;; Registers used:
  1103 ;;		wreg, status,2, status,0, prodl, prodh
  1104 ;; Tracked objects:
  1105 ;;		On entry : 0/0
  1106 ;;		On exit  : 0/0
  1107 ;;		Unchanged: 0/0
  1108 ;; Data sizes:     COMRAM   BANK0   BANK1   BANK2   BANK3   BANK4   BANK5
  1109 ;;      Params:         8       0       0       0       0       0       0
  1110 ;;      Locals:        13       0       0       0       0       0       0
  1111 ;;      Temps:          4       0       0       0       0       0       0
  1112 ;;      Totals:        25       0       0       0       0       0       0
  1113 ;;Total ram usage:       25 bytes
  1114 ;; Hardware stack levels used:    1
  1115 ;; Hardware stack levels required when called:    2
  1116 ;; This function calls:
  1117 ;;		Nothing
  1118 ;; This function is called by:
  1119 ;;		_main
  1120 ;; This function uses a non-reentrant model
  1121 ;;
  1122                           
  1123                           	psect	text3
  1124  000F20                     __ptext3:
  1125                           	callstack 0
  1126  000F20                     ___flmul:
  1127                           	callstack 28
  1128  000F20  5005               	movf	(___flmul@b+3)^0,w,c
  1129  000F22  0B80               	andlw	128
  1130  000F24  6E0E               	movwf	___flmul@sign^0,c
  1131  000F26  5005               	movf	(___flmul@b+3)^0,w,c
  1132  000F28  2405               	addwf	(___flmul@b+3)^0,w,c
  1133  000F2A  6E14               	movwf	___flmul@bexp^0,c
  1134  000F2C  AE04               	btfss	(___flmul@b+2)^0,7,c
  1135  000F2E  EF9B  F007         	goto	u2341
  1136  000F32  EF9D  F007         	goto	u2340
  1137  000F36                     u2341:
  1138  000F36  EF9E  F007         	goto	l2242
  1139  000F3A                     u2340:
  1140  000F3A  8014               	bsf	___flmul@bexp^0,0,c
  1141  000F3C                     l2242:
  1142  000F3C  5014               	movf	___flmul@bexp^0,w,c
  1143  000F3E  B4D8               	btfsc	status,2,c
  1144  000F40  EFA4  F007         	goto	u2351
  1145  000F44  EFA6  F007         	goto	u2350
  1146  000F48                     u2351:
  1147  000F48  EFB9  F007         	goto	l2250
  1148  000F4C                     u2350:
  1149  000F4C  2814               	incf	___flmul@bexp^0,w,c
  1150  000F4E  A4D8               	btfss	status,2,c
  1151  000F50  EFAC  F007         	goto	u2361
  1152  000F54  EFAE  F007         	goto	u2360
  1153  000F58                     u2361:
  1154  000F58  EFB6  F007         	goto	l2248
  1155  000F5C                     u2360:
  1156  000F5C  0E00               	movlw	0
  1157  000F5E  6E02               	movwf	___flmul@b^0,c
  1158  000F60  0E00               	movlw	0
  1159  000F62  6E03               	movwf	(___flmul@b+1)^0,c
  1160  000F64  0E00               	movlw	0
  1161  000F66  6E04               	movwf	(___flmul@b+2)^0,c
  1162  000F68  0E00               	movlw	0
  1163  000F6A  6E05               	movwf	(___flmul@b+3)^0,c
  1164  000F6C                     l2248:
  1165  000F6C  8E04               	bsf	(___flmul@b+2)^0,7,c
  1166  000F6E  EFC1  F007         	goto	l2252
  1167  000F72                     l2250:
  1168  000F72  0E00               	movlw	0
  1169  000F74  6E02               	movwf	___flmul@b^0,c
  1170  000F76  0E00               	movlw	0
  1171  000F78  6E03               	movwf	(___flmul@b+1)^0,c
  1172  000F7A  0E00               	movlw	0
  1173  000F7C  6E04               	movwf	(___flmul@b+2)^0,c
  1174  000F7E  0E00               	movlw	0
  1175  000F80  6E05               	movwf	(___flmul@b+3)^0,c
  1176  000F82                     l2252:
  1177  000F82  5009               	movf	(___flmul@a+3)^0,w,c
  1178  000F84  0B80               	andlw	128
  1179  000F86  1A0E               	xorwf	___flmul@sign^0,f,c
  1180  000F88  5009               	movf	(___flmul@a+3)^0,w,c
  1181  000F8A  2409               	addwf	(___flmul@a+3)^0,w,c
  1182  000F8C  6E13               	movwf	___flmul@aexp^0,c
  1183  000F8E  AE08               	btfss	(___flmul@a+2)^0,7,c
  1184  000F90  EFCC  F007         	goto	u2371
  1185  000F94  EFCE  F007         	goto	u2370
  1186  000F98                     u2371:
  1187  000F98  EFCF  F007         	goto	l2260
  1188  000F9C                     u2370:
  1189  000F9C  8013               	bsf	___flmul@aexp^0,0,c
  1190  000F9E                     l2260:
  1191  000F9E  5013               	movf	___flmul@aexp^0,w,c
  1192  000FA0  B4D8               	btfsc	status,2,c
  1193  000FA2  EFD5  F007         	goto	u2381
  1194  000FA6  EFD7  F007         	goto	u2380
  1195  000FAA                     u2381:
  1196  000FAA  EFEA  F007         	goto	l2268
  1197  000FAE                     u2380:
  1198  000FAE  2813               	incf	___flmul@aexp^0,w,c
  1199  000FB0  A4D8               	btfss	status,2,c
  1200  000FB2  EFDD  F007         	goto	u2391
  1201  000FB6  EFDF  F007         	goto	u2390
  1202  000FBA                     u2391:
  1203  000FBA  EFE7  F007         	goto	l2266
  1204  000FBE                     u2390:
  1205  000FBE  0E00               	movlw	0
  1206  000FC0  6E06               	movwf	___flmul@a^0,c
  1207  000FC2  0E00               	movlw	0
  1208  000FC4  6E07               	movwf	(___flmul@a+1)^0,c
  1209  000FC6  0E00               	movlw	0
  1210  000FC8  6E08               	movwf	(___flmul@a+2)^0,c
  1211  000FCA  0E00               	movlw	0
  1212  000FCC  6E09               	movwf	(___flmul@a+3)^0,c
  1213  000FCE                     l2266:
  1214  000FCE  8E08               	bsf	(___flmul@a+2)^0,7,c
  1215  000FD0  EFF2  F007         	goto	l793
  1216  000FD4                     l2268:
  1217  000FD4  0E00               	movlw	0
  1218  000FD6  6E06               	movwf	___flmul@a^0,c
  1219  000FD8  0E00               	movlw	0
  1220  000FDA  6E07               	movwf	(___flmul@a+1)^0,c
  1221  000FDC  0E00               	movlw	0
  1222  000FDE  6E08               	movwf	(___flmul@a+2)^0,c
  1223  000FE0  0E00               	movlw	0
  1224  000FE2  6E09               	movwf	(___flmul@a+3)^0,c
  1225  000FE4                     l793:
  1226  000FE4  5013               	movf	___flmul@aexp^0,w,c
  1227  000FE6  B4D8               	btfsc	status,2,c
  1228  000FE8  EFF8  F007         	goto	u2401
  1229  000FEC  EFFA  F007         	goto	u2400
  1230  000FF0                     u2401:
  1231  000FF0  EF02  F008         	goto	l2272
  1232  000FF4                     u2400:
  1233  000FF4  5014               	movf	___flmul@bexp^0,w,c
  1234  000FF6  A4D8               	btfss	status,2,c
  1235  000FF8  EF00  F008         	goto	u2411
  1236  000FFC  EF02  F008         	goto	u2410
  1237  001000                     u2411:
  1238  001000  EF0C  F008         	goto	l2276
  1239  001004                     u2410:
  1240  001004                     l2272:
  1241  001004  0E00               	movlw	0
  1242  001006  6E02               	movwf	?___flmul^0,c
  1243  001008  0E00               	movlw	0
  1244  00100A  6E03               	movwf	(?___flmul+1)^0,c
  1245  00100C  0E00               	movlw	0
  1246  00100E  6E04               	movwf	(?___flmul+2)^0,c
  1247  001010  0E00               	movlw	0
  1248  001012  6E05               	movwf	(?___flmul+3)^0,c
  1249  001014  EFA4  F009         	goto	l797
  1250  001018                     l2276:
  1251  001018  5008               	movf	(___flmul@a+2)^0,w,c
  1252  00101A  0202               	mulwf	___flmul@b^0,c
  1253  00101C  CFF3 F019          	movff	prodl,___flmul@temp
  1254  001020  CFF4 F01A          	movff	prodh,___flmul@temp+1
  1255  001024  5019               	movf	___flmul@temp^0,w,c
  1256  001026  6E0F               	movwf	___flmul@grs^0,c
  1257  001028  6A10               	clrf	(___flmul@grs+1)^0,c
  1258  00102A  6A11               	clrf	(___flmul@grs+2)^0,c
  1259  00102C  6A12               	clrf	(___flmul@grs+3)^0,c
  1260  00102E  501A               	movf	(___flmul@temp+1)^0,w,c
  1261  001030  6E15               	movwf	___flmul@prod^0,c
  1262  001032  6A16               	clrf	(___flmul@prod+1)^0,c
  1263  001034  6A17               	clrf	(___flmul@prod+2)^0,c
  1264  001036  6A18               	clrf	(___flmul@prod+3)^0,c
  1265  001038  5007               	movf	(___flmul@a+1)^0,w,c
  1266  00103A  0203               	mulwf	(___flmul@b+1)^0,c
  1267  00103C  CFF3 F019          	movff	prodl,___flmul@temp
  1268  001040  CFF4 F01A          	movff	prodh,___flmul@temp+1
  1269  001044  5019               	movf	___flmul@temp^0,w,c
  1270  001046  260F               	addwf	___flmul@grs^0,f,c
  1271  001048  0E00               	movlw	0
  1272  00104A  2210               	addwfc	(___flmul@grs+1)^0,f,c
  1273  00104C  2211               	addwfc	(___flmul@grs+2)^0,f,c
  1274  00104E  2212               	addwfc	(___flmul@grs+3)^0,f,c
  1275  001050  501A               	movf	(___flmul@temp+1)^0,w,c
  1276  001052  2615               	addwf	___flmul@prod^0,f,c
  1277  001054  0E00               	movlw	0
  1278  001056  2216               	addwfc	(___flmul@prod+1)^0,f,c
  1279  001058  2217               	addwfc	(___flmul@prod+2)^0,f,c
  1280  00105A  2218               	addwfc	(___flmul@prod+3)^0,f,c
  1281  00105C  5006               	movf	___flmul@a^0,w,c
  1282  00105E  0204               	mulwf	(___flmul@b+2)^0,c
  1283  001060  CFF3 F019          	movff	prodl,___flmul@temp
  1284  001064  CFF4 F01A          	movff	prodh,___flmul@temp+1
  1285  001068  5019               	movf	___flmul@temp^0,w,c
  1286  00106A  260F               	addwf	___flmul@grs^0,f,c
  1287  00106C  0E00               	movlw	0
  1288  00106E  2210               	addwfc	(___flmul@grs+1)^0,f,c
  1289  001070  2211               	addwfc	(___flmul@grs+2)^0,f,c
  1290  001072  2212               	addwfc	(___flmul@grs+3)^0,f,c
  1291  001074  501A               	movf	(___flmul@temp+1)^0,w,c
  1292  001076  2615               	addwf	___flmul@prod^0,f,c
  1293  001078  0E00               	movlw	0
  1294  00107A  2216               	addwfc	(___flmul@prod+1)^0,f,c
  1295  00107C  2217               	addwfc	(___flmul@prod+2)^0,f,c
  1296  00107E  2218               	addwfc	(___flmul@prod+3)^0,f,c
  1297  001080  C011  F012         	movff	___flmul@grs+2,___flmul@grs+3
  1298  001084  C010  F011         	movff	___flmul@grs+1,___flmul@grs+2
  1299  001088  C00F  F010         	movff	___flmul@grs,___flmul@grs+1
  1300  00108C  6A0F               	clrf	___flmul@grs^0,c
  1301  00108E  5006               	movf	___flmul@a^0,w,c
  1302  001090  0203               	mulwf	(___flmul@b+1)^0,c
  1303  001092  CFF3 F019          	movff	prodl,___flmul@temp
  1304  001096  CFF4 F01A          	movff	prodh,___flmul@temp+1
  1305  00109A  5019               	movf	___flmul@temp^0,w,c
  1306  00109C  260F               	addwf	___flmul@grs^0,f,c
  1307  00109E  501A               	movf	(___flmul@temp+1)^0,w,c
  1308  0010A0  2210               	addwfc	(___flmul@grs+1)^0,f,c
  1309  0010A2  0E00               	movlw	0
  1310  0010A4  2211               	addwfc	(___flmul@grs+2)^0,f,c
  1311  0010A6  0E00               	movlw	0
  1312  0010A8  2212               	addwfc	(___flmul@grs+3)^0,f,c
  1313  0010AA  5007               	movf	(___flmul@a+1)^0,w,c
  1314  0010AC  0202               	mulwf	___flmul@b^0,c
  1315  0010AE  CFF3 F019          	movff	prodl,___flmul@temp
  1316  0010B2  CFF4 F01A          	movff	prodh,___flmul@temp+1
  1317  0010B6  5019               	movf	___flmul@temp^0,w,c
  1318  0010B8  260F               	addwf	___flmul@grs^0,f,c
  1319  0010BA  501A               	movf	(___flmul@temp+1)^0,w,c
  1320  0010BC  2210               	addwfc	(___flmul@grs+1)^0,f,c
  1321  0010BE  0E00               	movlw	0
  1322  0010C0  2211               	addwfc	(___flmul@grs+2)^0,f,c
  1323  0010C2  0E00               	movlw	0
  1324  0010C4  2212               	addwfc	(___flmul@grs+3)^0,f,c
  1325  0010C6  C011  F012         	movff	___flmul@grs+2,___flmul@grs+3
  1326  0010CA  C010  F011         	movff	___flmul@grs+1,___flmul@grs+2
  1327  0010CE  C00F  F010         	movff	___flmul@grs,___flmul@grs+1
  1328  0010D2  6A0F               	clrf	___flmul@grs^0,c
  1329  0010D4  5006               	movf	___flmul@a^0,w,c
  1330  0010D6  0202               	mulwf	___flmul@b^0,c
  1331  0010D8  CFF3 F019          	movff	prodl,___flmul@temp
  1332  0010DC  CFF4 F01A          	movff	prodh,___flmul@temp+1
  1333  0010E0  5019               	movf	___flmul@temp^0,w,c
  1334  0010E2  260F               	addwf	___flmul@grs^0,f,c
  1335  0010E4  501A               	movf	(___flmul@temp+1)^0,w,c
  1336  0010E6  2210               	addwfc	(___flmul@grs+1)^0,f,c
  1337  0010E8  0E00               	movlw	0
  1338  0010EA  2211               	addwfc	(___flmul@grs+2)^0,f,c
  1339  0010EC  0E00               	movlw	0
  1340  0010EE  2212               	addwfc	(___flmul@grs+3)^0,f,c
  1341  0010F0  5008               	movf	(___flmul@a+2)^0,w,c
  1342  0010F2  0203               	mulwf	(___flmul@b+1)^0,c
  1343  0010F4  CFF3 F019          	movff	prodl,___flmul@temp
  1344  0010F8  CFF4 F01A          	movff	prodh,___flmul@temp+1
  1345  0010FC  5019               	movf	___flmul@temp^0,w,c
  1346  0010FE  2615               	addwf	___flmul@prod^0,f,c
  1347  001100  501A               	movf	(___flmul@temp+1)^0,w,c
  1348  001102  2216               	addwfc	(___flmul@prod+1)^0,f,c
  1349  001104  0E00               	movlw	0
  1350  001106  2217               	addwfc	(___flmul@prod+2)^0,f,c
  1351  001108  0E00               	movlw	0
  1352  00110A  2218               	addwfc	(___flmul@prod+3)^0,f,c
  1353  00110C  5007               	movf	(___flmul@a+1)^0,w,c
  1354  00110E  0204               	mulwf	(___flmul@b+2)^0,c
  1355  001110  CFF3 F019          	movff	prodl,___flmul@temp
  1356  001114  CFF4 F01A          	movff	prodh,___flmul@temp+1
  1357  001118  5019               	movf	___flmul@temp^0,w,c
  1358  00111A  2615               	addwf	___flmul@prod^0,f,c
  1359  00111C  501A               	movf	(___flmul@temp+1)^0,w,c
  1360  00111E  2216               	addwfc	(___flmul@prod+1)^0,f,c
  1361  001120  0E00               	movlw	0
  1362  001122  2217               	addwfc	(___flmul@prod+2)^0,f,c
  1363  001124  0E00               	movlw	0
  1364  001126  2218               	addwfc	(___flmul@prod+3)^0,f,c
  1365  001128  5008               	movf	(___flmul@a+2)^0,w,c
  1366  00112A  0204               	mulwf	(___flmul@b+2)^0,c
  1367  00112C  CFF3 F019          	movff	prodl,___flmul@temp
  1368  001130  CFF4 F01A          	movff	prodh,___flmul@temp+1
  1369  001134  5019               	movf	___flmul@temp^0,w,c
  1370  001136  6E0A               	movwf	??___flmul^0,c
  1371  001138  501A               	movf	(___flmul@temp+1)^0,w,c
  1372  00113A  6E0B               	movwf	(??___flmul+1)^0,c
  1373  00113C  6A0C               	clrf	(??___flmul+2)^0,c
  1374  00113E  6A0D               	clrf	(??___flmul+3)^0,c
  1375  001140  C00C  F00D         	movff	??___flmul+2,??___flmul+3
  1376  001144  C00B  F00C         	movff	??___flmul+1,??___flmul+2
  1377  001148  C00A  F00B         	movff	??___flmul,??___flmul+1
  1378  00114C  6A0A               	clrf	??___flmul^0,c
  1379  00114E  500A               	movf	??___flmul^0,w,c
  1380  001150  2615               	addwf	___flmul@prod^0,f,c
  1381  001152  500B               	movf	(??___flmul+1)^0,w,c
  1382  001154  2216               	addwfc	(___flmul@prod+1)^0,f,c
  1383  001156  500C               	movf	(??___flmul+2)^0,w,c
  1384  001158  2217               	addwfc	(___flmul@prod+2)^0,f,c
  1385  00115A  500D               	movf	(??___flmul+3)^0,w,c
  1386  00115C  2218               	addwfc	(___flmul@prod+3)^0,f,c
  1387  00115E  C00F  F00A         	movff	___flmul@grs,??___flmul
  1388  001162  C010  F00B         	movff	___flmul@grs+1,??___flmul+1
  1389  001166  C011  F00C         	movff	___flmul@grs+2,??___flmul+2
  1390  00116A  C012  F00D         	movff	___flmul@grs+3,??___flmul+3
  1391  00116E  0E19               	movlw	25
  1392  001170  EFBF  F008         	goto	u2420
  1393  001174                     u2425:
  1394  001174  90D8               	bcf	status,0,c
  1395  001176  320D               	rrcf	(??___flmul+3)^0,f,c
  1396  001178  320C               	rrcf	(??___flmul+2)^0,f,c
  1397  00117A  320B               	rrcf	(??___flmul+1)^0,f,c
  1398  00117C  320A               	rrcf	??___flmul^0,f,c
  1399  00117E                     u2420:
  1400  00117E  2EE8               	decfsz	wreg,f,c
  1401  001180  EFBA  F008         	goto	u2425
  1402  001184  500A               	movf	??___flmul^0,w,c
  1403  001186  2615               	addwf	___flmul@prod^0,f,c
  1404  001188  500B               	movf	(??___flmul+1)^0,w,c
  1405  00118A  2216               	addwfc	(___flmul@prod+1)^0,f,c
  1406  00118C  500C               	movf	(??___flmul+2)^0,w,c
  1407  00118E  2217               	addwfc	(___flmul@prod+2)^0,f,c
  1408  001190  500D               	movf	(??___flmul+3)^0,w,c
  1409  001192  2218               	addwfc	(___flmul@prod+3)^0,f,c
  1410  001194  C011  F012         	movff	___flmul@grs+2,___flmul@grs+3
  1411  001198  C010  F011         	movff	___flmul@grs+1,___flmul@grs+2
  1412  00119C  C00F  F010         	movff	___flmul@grs,___flmul@grs+1
  1413  0011A0  6A0F               	clrf	___flmul@grs^0,c
  1414  0011A2  5013               	movf	___flmul@aexp^0,w,c
  1415  0011A4  C014  F00A         	movff	___flmul@bexp,??___flmul
  1416  0011A8  6A0B               	clrf	(??___flmul+1)^0,c
  1417  0011AA  260A               	addwf	??___flmul^0,f,c
  1418  0011AC  0E00               	movlw	0
  1419  0011AE  220B               	addwfc	(??___flmul+1)^0,f,c
  1420  0011B0  0E82               	movlw	130
  1421  0011B2  240A               	addwf	??___flmul^0,w,c
  1422  0011B4  6E19               	movwf	___flmul@temp^0,c
  1423  0011B6  0EFF               	movlw	255
  1424  0011B8  200B               	addwfc	(??___flmul+1)^0,w,c
  1425  0011BA  6E1A               	movwf	(___flmul@temp+1)^0,c
  1426  0011BC  EFF5  F008         	goto	l2324
  1427  0011C0                     l2318:
  1428  0011C0  90D8               	bcf	status,0,c
  1429  0011C2  3615               	rlcf	___flmul@prod^0,f,c
  1430  0011C4  3616               	rlcf	(___flmul@prod+1)^0,f,c
  1431  0011C6  3617               	rlcf	(___flmul@prod+2)^0,f,c
  1432  0011C8  3618               	rlcf	(___flmul@prod+3)^0,f,c
  1433  0011CA  AE12               	btfss	(___flmul@grs+3)^0,7,c
  1434  0011CC  EFEA  F008         	goto	u2431
  1435  0011D0  EFEC  F008         	goto	u2430
  1436  0011D4                     u2431:
  1437  0011D4  EFED  F008         	goto	l800
  1438  0011D8                     u2430:
  1439  0011D8  8015               	bsf	___flmul@prod^0,0,c
  1440  0011DA                     l800:
  1441  0011DA  90D8               	bcf	status,0,c
  1442  0011DC  360F               	rlcf	___flmul@grs^0,f,c
  1443  0011DE  3610               	rlcf	(___flmul@grs+1)^0,f,c
  1444  0011E0  3611               	rlcf	(___flmul@grs+2)^0,f,c
  1445  0011E2  3612               	rlcf	(___flmul@grs+3)^0,f,c
  1446  0011E4  0619               	decf	___flmul@temp^0,f,c
  1447  0011E6  A0D8               	btfss	status,0,c
  1448  0011E8  061A               	decf	(___flmul@temp+1)^0,f,c
  1449  0011EA                     l2324:
  1450  0011EA  AE17               	btfss	(___flmul@prod+2)^0,7,c
  1451  0011EC  EFFA  F008         	goto	u2441
  1452  0011F0  EFFC  F008         	goto	u2440
  1453  0011F4                     u2441:
  1454  0011F4  EFE0  F008         	goto	l2318
  1455  0011F8                     u2440:
  1456  0011F8  0E00               	movlw	0
  1457  0011FA  6E13               	movwf	___flmul@aexp^0,c
  1458  0011FC  AE12               	btfss	(___flmul@grs+3)^0,7,c
  1459  0011FE  EF03  F009         	goto	u2451
  1460  001202  EF05  F009         	goto	u2450
  1461  001206                     u2451:
  1462  001206  EF29  F009         	goto	l802
  1463  00120A                     u2450:
  1464  00120A  0EFF               	movlw	255
  1465  00120C  140F               	andwf	___flmul@grs^0,w,c
  1466  00120E  6E0A               	movwf	??___flmul^0,c
  1467  001210  0EFF               	movlw	255
  1468  001212  1410               	andwf	(___flmul@grs+1)^0,w,c
  1469  001214  6E0B               	movwf	(??___flmul+1)^0,c
  1470  001216  0EFF               	movlw	255
  1471  001218  1411               	andwf	(___flmul@grs+2)^0,w,c
  1472  00121A  6E0C               	movwf	(??___flmul+2)^0,c
  1473  00121C  0E7F               	movlw	127
  1474  00121E  1412               	andwf	(___flmul@grs+3)^0,w,c
  1475  001220  6E0D               	movwf	(??___flmul+3)^0,c
  1476  001222  500A               	movf	??___flmul^0,w,c
  1477  001224  100B               	iorwf	(??___flmul+1)^0,w,c
  1478  001226  100C               	iorwf	(??___flmul+2)^0,w,c
  1479  001228  100D               	iorwf	(??___flmul+3)^0,w,c
  1480  00122A  B4D8               	btfsc	status,2,c
  1481  00122C  EF1A  F009         	goto	u2461
  1482  001230  EF1C  F009         	goto	u2460
  1483  001234                     u2461:
  1484  001234  EF20  F009         	goto	l803
  1485  001238                     u2460:
  1486  001238                     l2332:
  1487  001238  0E01               	movlw	1
  1488  00123A  6E13               	movwf	___flmul@aexp^0,c
  1489  00123C  EF29  F009         	goto	l802
  1490  001240                     l803:
  1491  001240  A015               	btfss	___flmul@prod^0,0,c
  1492  001242  EF25  F009         	goto	u2471
  1493  001246  EF27  F009         	goto	u2470
  1494  00124A                     u2471:
  1495  00124A  EF29  F009         	goto	l802
  1496  00124E                     u2470:
  1497  00124E  EF1C  F009         	goto	l2332
  1498  001252                     l802:
  1499  001252  5013               	movf	___flmul@aexp^0,w,c
  1500  001254  B4D8               	btfsc	status,2,c
  1501  001256  EF2F  F009         	goto	u2481
  1502  00125A  EF31  F009         	goto	u2480
  1503  00125E                     u2481:
  1504  00125E  EF55  F009         	goto	l2344
  1505  001262                     u2480:
  1506  001262  0E01               	movlw	1
  1507  001264  2615               	addwf	___flmul@prod^0,f,c
  1508  001266  0E00               	movlw	0
  1509  001268  2216               	addwfc	(___flmul@prod+1)^0,f,c
  1510  00126A  2217               	addwfc	(___flmul@prod+2)^0,f,c
  1511  00126C  2218               	addwfc	(___flmul@prod+3)^0,f,c
  1512  00126E  A018               	btfss	(___flmul@prod+3)^0,0,c
  1513  001270  EF3C  F009         	goto	u2491
  1514  001274  EF3E  F009         	goto	u2490
  1515  001278                     u2491:
  1516  001278  EF55  F009         	goto	l2344
  1517  00127C                     u2490:
  1518  00127C  C015  F00A         	movff	___flmul@prod,??___flmul
  1519  001280  C016  F00B         	movff	___flmul@prod+1,??___flmul+1
  1520  001284  C017  F00C         	movff	___flmul@prod+2,??___flmul+2
  1521  001288  C018  F00D         	movff	___flmul@prod+3,??___flmul+3
  1522  00128C  340D               	rlcf	(??___flmul+3)^0,w,c
  1523  00128E  320D               	rrcf	(??___flmul+3)^0,f,c
  1524  001290  320C               	rrcf	(??___flmul+2)^0,f,c
  1525  001292  320B               	rrcf	(??___flmul+1)^0,f,c
  1526  001294  320A               	rrcf	??___flmul^0,f,c
  1527  001296  C00A  F015         	movff	??___flmul,___flmul@prod
  1528  00129A  C00B  F016         	movff	??___flmul+1,___flmul@prod+1
  1529  00129E  C00C  F017         	movff	??___flmul+2,___flmul@prod+2
  1530  0012A2  C00D  F018         	movff	??___flmul+3,___flmul@prod+3
  1531  0012A6  4A19               	infsnz	___flmul@temp^0,f,c
  1532  0012A8  2A1A               	incf	(___flmul@temp+1)^0,f,c
  1533  0012AA                     l2344:
  1534  0012AA  BE1A               	btfsc	(___flmul@temp+1)^0,7,c
  1535  0012AC  EF60  F009         	goto	u2501
  1536  0012B0  501A               	movf	(___flmul@temp+1)^0,w,c
  1537  0012B2  E108               	bnz	u2500
  1538  0012B4  2819               	incf	___flmul@temp^0,w,c
  1539  0012B6  A0D8               	btfss	status,0,c
  1540  0012B8  EF60  F009         	goto	u2501
  1541  0012BC  EF62  F009         	goto	u2500
  1542  0012C0                     u2501:
  1543  0012C0  EF6C  F009         	goto	l2348
  1544  0012C4                     u2500:
  1545  0012C4  0E00               	movlw	0
  1546  0012C6  6E15               	movwf	___flmul@prod^0,c
  1547  0012C8  0E00               	movlw	0
  1548  0012CA  6E16               	movwf	(___flmul@prod+1)^0,c
  1549  0012CC  0E80               	movlw	128
  1550  0012CE  6E17               	movwf	(___flmul@prod+2)^0,c
  1551  0012D0  0E7F               	movlw	127
  1552  0012D2  6E18               	movwf	(___flmul@prod+3)^0,c
  1553  0012D4  EF9A  F009         	goto	l2360
  1554  0012D8                     l2348:
  1555  0012D8  BE1A               	btfsc	(___flmul@temp+1)^0,7,c
  1556  0012DA  EF79  F009         	goto	u2510
  1557  0012DE  501A               	movf	(___flmul@temp+1)^0,w,c
  1558  0012E0  E106               	bnz	u2511
  1559  0012E2  0419               	decf	___flmul@temp^0,w,c
  1560  0012E4  B0D8               	btfsc	status,0,c
  1561  0012E6  EF77  F009         	goto	u2511
  1562  0012EA  EF79  F009         	goto	u2510
  1563  0012EE                     u2511:
  1564  0012EE  EF85  F009         	goto	l810
  1565  0012F2                     u2510:
  1566  0012F2  0E00               	movlw	0
  1567  0012F4  6E15               	movwf	___flmul@prod^0,c
  1568  0012F6  0E00               	movlw	0
  1569  0012F8  6E16               	movwf	(___flmul@prod+1)^0,c
  1570  0012FA  0E00               	movlw	0
  1571  0012FC  6E17               	movwf	(___flmul@prod+2)^0,c
  1572  0012FE  0E00               	movlw	0
  1573  001300  6E18               	movwf	(___flmul@prod+3)^0,c
  1574  001302  0E00               	movlw	0
  1575  001304  6E0E               	movwf	___flmul@sign^0,c
  1576  001306  EF9A  F009         	goto	l2360
  1577  00130A                     l810:
  1578  00130A  C019  F014         	movff	___flmul@temp,___flmul@bexp
  1579  00130E  0EFF               	movlw	255
  1580  001310  1615               	andwf	___flmul@prod^0,f,c
  1581  001312  0EFF               	movlw	255
  1582  001314  1616               	andwf	(___flmul@prod+1)^0,f,c
  1583  001316  0E7F               	movlw	127
  1584  001318  1617               	andwf	(___flmul@prod+2)^0,f,c
  1585  00131A  0E00               	movlw	0
  1586  00131C  1618               	andwf	(___flmul@prod+3)^0,f,c
  1587  00131E  A014               	btfss	___flmul@bexp^0,0,c
  1588  001320  EF94  F009         	goto	u2521
  1589  001324  EF96  F009         	goto	u2520
  1590  001328                     u2521:
  1591  001328  EF97  F009         	goto	l2358
  1592  00132C                     u2520:
  1593  00132C  8E17               	bsf	(___flmul@prod+2)^0,7,c
  1594  00132E                     l2358:
  1595  00132E  90D8               	bcf	status,0,c
  1596  001330  3014               	rrcf	___flmul@bexp^0,w,c
  1597  001332  6E18               	movwf	(___flmul@prod+3)^0,c
  1598  001334                     l2360:
  1599  001334  500E               	movf	___flmul@sign^0,w,c
  1600  001336  1218               	iorwf	(___flmul@prod+3)^0,f,c
  1601  001338  C015  F002         	movff	___flmul@prod,?___flmul
  1602  00133C  C016  F003         	movff	___flmul@prod+1,?___flmul+1
  1603  001340  C017  F004         	movff	___flmul@prod+2,?___flmul+2
  1604  001344  C018  F005         	movff	___flmul@prod+3,?___flmul+3
  1605  001348                     l797:
  1606  001348  0012               	return		;funcret
  1607  00134A                     __end_of___flmul:
  1608                           	callstack 0
  1609                           
  1610 ;; *************** function ___fldiv *****************
  1611 ;; Defined at:
  1612 ;;		line 11 in file "C:\Program Files\Microchip\xc8\v2.30\pic\sources\c99\common\sprcdiv.c"
  1613 ;; Parameters:    Size  Location     Type
  1614 ;;  b               4    1[COMRAM] unsigned char 
  1615 ;;  a               4    5[COMRAM] unsigned char 
  1616 ;; Auto vars:     Size  Location     Type
  1617 ;;  grs             4   20[COMRAM] unsigned long 
  1618 ;;  rem             4   13[COMRAM] unsigned long 
  1619 ;;  new_exp         2   18[COMRAM] short 
  1620 ;;  aexp            1   25[COMRAM] unsigned char 
  1621 ;;  bexp            1   24[COMRAM] unsigned char 
  1622 ;;  sign            1   17[COMRAM] unsigned char 
  1623 ;; Return value:  Size  Location     Type
  1624 ;;                  4    1[COMRAM] unsigned char 
  1625 ;; Registers used:
  1626 ;;		wreg, status,2, status,0
  1627 ;; Tracked objects:
  1628 ;;		On entry : 0/0
  1629 ;;		On exit  : 0/0
  1630 ;;		Unchanged: 0/0
  1631 ;; Data sizes:     COMRAM   BANK0   BANK1   BANK2   BANK3   BANK4   BANK5
  1632 ;;      Params:         8       0       0       0       0       0       0
  1633 ;;      Locals:        13       0       0       0       0       0       0
  1634 ;;      Temps:          4       0       0       0       0       0       0
  1635 ;;      Totals:        25       0       0       0       0       0       0
  1636 ;;Total ram usage:       25 bytes
  1637 ;; Hardware stack levels used:    1
  1638 ;; Hardware stack levels required when called:    2
  1639 ;; This function calls:
  1640 ;;		Nothing
  1641 ;; This function is called by:
  1642 ;;		_main
  1643 ;; This function uses a non-reentrant model
  1644 ;;
  1645                           
  1646                           	psect	text4
  1647  00134A                     __ptext4:
  1648                           	callstack 0
  1649  00134A                     ___fldiv:
  1650                           	callstack 28
  1651  00134A  5005               	movf	(___fldiv@b+3)^0,w,c
  1652  00134C  0B80               	andlw	128
  1653  00134E  6E12               	movwf	___fldiv@sign^0,c
  1654  001350  5005               	movf	(___fldiv@b+3)^0,w,c
  1655  001352  2405               	addwf	(___fldiv@b+3)^0,w,c
  1656  001354  6E19               	movwf	___fldiv@bexp^0,c
  1657  001356  AE04               	btfss	(___fldiv@b+2)^0,7,c
  1658  001358  EFB0  F009         	goto	u2111
  1659  00135C  EFB2  F009         	goto	u2110
  1660  001360                     u2111:
  1661  001360  EFB3  F009         	goto	l2104
  1662  001364                     u2110:
  1663  001364  8019               	bsf	___fldiv@bexp^0,0,c
  1664  001366                     l2104:
  1665  001366  5019               	movf	___fldiv@bexp^0,w,c
  1666  001368  B4D8               	btfsc	status,2,c
  1667  00136A  EFB9  F009         	goto	u2121
  1668  00136E  EFBB  F009         	goto	u2120
  1669  001372                     u2121:
  1670  001372  EFD0  F009         	goto	l2114
  1671  001376                     u2120:
  1672  001376  2819               	incf	___fldiv@bexp^0,w,c
  1673  001378  A4D8               	btfss	status,2,c
  1674  00137A  EFC1  F009         	goto	u2131
  1675  00137E  EFC3  F009         	goto	u2130
  1676  001382                     u2131:
  1677  001382  EFCB  F009         	goto	l2110
  1678  001386                     u2130:
  1679  001386  0E00               	movlw	0
  1680  001388  6E02               	movwf	___fldiv@b^0,c
  1681  00138A  0E00               	movlw	0
  1682  00138C  6E03               	movwf	(___fldiv@b+1)^0,c
  1683  00138E  0E00               	movlw	0
  1684  001390  6E04               	movwf	(___fldiv@b+2)^0,c
  1685  001392  0E00               	movlw	0
  1686  001394  6E05               	movwf	(___fldiv@b+3)^0,c
  1687  001396                     l2110:
  1688  001396  8E04               	bsf	(___fldiv@b+2)^0,7,c
  1689  001398  0E00               	movlw	0
  1690  00139A  6E05               	movwf	(___fldiv@b+3)^0,c
  1691  00139C  EFD8  F009         	goto	l2116
  1692  0013A0                     l2114:
  1693  0013A0  0E00               	movlw	0
  1694  0013A2  6E02               	movwf	___fldiv@b^0,c
  1695  0013A4  0E00               	movlw	0
  1696  0013A6  6E03               	movwf	(___fldiv@b+1)^0,c
  1697  0013A8  0E00               	movlw	0
  1698  0013AA  6E04               	movwf	(___fldiv@b+2)^0,c
  1699  0013AC  0E00               	movlw	0
  1700  0013AE  6E05               	movwf	(___fldiv@b+3)^0,c
  1701  0013B0                     l2116:
  1702  0013B0  5009               	movf	(___fldiv@a+3)^0,w,c
  1703  0013B2  0B80               	andlw	128
  1704  0013B4  1A12               	xorwf	___fldiv@sign^0,f,c
  1705  0013B6  5009               	movf	(___fldiv@a+3)^0,w,c
  1706  0013B8  2409               	addwf	(___fldiv@a+3)^0,w,c
  1707  0013BA  6E1A               	movwf	___fldiv@aexp^0,c
  1708  0013BC  AE08               	btfss	(___fldiv@a+2)^0,7,c
  1709  0013BE  EFE3  F009         	goto	u2141
  1710  0013C2  EFE5  F009         	goto	u2140
  1711  0013C6                     u2141:
  1712  0013C6  EFE6  F009         	goto	l2124
  1713  0013CA                     u2140:
  1714  0013CA  801A               	bsf	___fldiv@aexp^0,0,c
  1715  0013CC                     l2124:
  1716  0013CC  501A               	movf	___fldiv@aexp^0,w,c
  1717  0013CE  B4D8               	btfsc	status,2,c
  1718  0013D0  EFEC  F009         	goto	u2151
  1719  0013D4  EFEE  F009         	goto	u2150
  1720  0013D8                     u2151:
  1721  0013D8  EF03  F00A         	goto	l2134
  1722  0013DC                     u2150:
  1723  0013DC  281A               	incf	___fldiv@aexp^0,w,c
  1724  0013DE  A4D8               	btfss	status,2,c
  1725  0013E0  EFF4  F009         	goto	u2161
  1726  0013E4  EFF6  F009         	goto	u2160
  1727  0013E8                     u2161:
  1728  0013E8  EFFE  F009         	goto	l2130
  1729  0013EC                     u2160:
  1730  0013EC  0E00               	movlw	0
  1731  0013EE  6E06               	movwf	___fldiv@a^0,c
  1732  0013F0  0E00               	movlw	0
  1733  0013F2  6E07               	movwf	(___fldiv@a+1)^0,c
  1734  0013F4  0E00               	movlw	0
  1735  0013F6  6E08               	movwf	(___fldiv@a+2)^0,c
  1736  0013F8  0E00               	movlw	0
  1737  0013FA  6E09               	movwf	(___fldiv@a+3)^0,c
  1738  0013FC                     l2130:
  1739  0013FC  8E08               	bsf	(___fldiv@a+2)^0,7,c
  1740  0013FE  0E00               	movlw	0
  1741  001400  6E09               	movwf	(___fldiv@a+3)^0,c
  1742  001402  EF0B  F00A         	goto	l2136
  1743  001406                     l2134:
  1744  001406  0E00               	movlw	0
  1745  001408  6E06               	movwf	___fldiv@a^0,c
  1746  00140A  0E00               	movlw	0
  1747  00140C  6E07               	movwf	(___fldiv@a+1)^0,c
  1748  00140E  0E00               	movlw	0
  1749  001410  6E08               	movwf	(___fldiv@a+2)^0,c
  1750  001412  0E00               	movlw	0
  1751  001414  6E09               	movwf	(___fldiv@a+3)^0,c
  1752  001416                     l2136:
  1753  001416  5006               	movf	___fldiv@a^0,w,c
  1754  001418  1007               	iorwf	(___fldiv@a+1)^0,w,c
  1755  00141A  1008               	iorwf	(___fldiv@a+2)^0,w,c
  1756  00141C  1009               	iorwf	(___fldiv@a+3)^0,w,c
  1757  00141E  A4D8               	btfss	status,2,c
  1758  001420  EF14  F00A         	goto	u2171
  1759  001424  EF16  F00A         	goto	u2170
  1760  001428                     u2171:
  1761  001428  EF2E  F00A         	goto	l2148
  1762  00142C                     u2170:
  1763  00142C  0E00               	movlw	0
  1764  00142E  6E02               	movwf	___fldiv@b^0,c
  1765  001430  0E00               	movlw	0
  1766  001432  6E03               	movwf	(___fldiv@b+1)^0,c
  1767  001434  0E00               	movlw	0
  1768  001436  6E04               	movwf	(___fldiv@b+2)^0,c
  1769  001438  0E00               	movlw	0
  1770  00143A  6E05               	movwf	(___fldiv@b+3)^0,c
  1771  00143C  0E80               	movlw	128
  1772  00143E  1204               	iorwf	(___fldiv@b+2)^0,f,c
  1773  001440  0E7F               	movlw	127
  1774  001442  1205               	iorwf	(___fldiv@b+3)^0,f,c
  1775  001444                     l2142:
  1776  001444  5012               	movf	___fldiv@sign^0,w,c
  1777  001446  1205               	iorwf	(___fldiv@b+3)^0,f,c
  1778  001448  C002  F002         	movff	___fldiv@b,?___fldiv
  1779  00144C  C003  F003         	movff	___fldiv@b+1,?___fldiv+1
  1780  001450  C004  F004         	movff	___fldiv@b+2,?___fldiv+2
  1781  001454  C005  F005         	movff	___fldiv@b+3,?___fldiv+3
  1782  001458  EF71  F00B         	goto	l761
  1783  00145C                     l2148:
  1784  00145C  5019               	movf	___fldiv@bexp^0,w,c
  1785  00145E  A4D8               	btfss	status,2,c
  1786  001460  EF34  F00A         	goto	u2181
  1787  001464  EF36  F00A         	goto	u2180
  1788  001468                     u2181:
  1789  001468  EF40  F00A         	goto	l2156
  1790  00146C                     u2180:
  1791  00146C  0E00               	movlw	0
  1792  00146E  6E02               	movwf	?___fldiv^0,c
  1793  001470  0E00               	movlw	0
  1794  001472  6E03               	movwf	(?___fldiv+1)^0,c
  1795  001474  0E00               	movlw	0
  1796  001476  6E04               	movwf	(?___fldiv+2)^0,c
  1797  001478  0E00               	movlw	0
  1798  00147A  6E05               	movwf	(?___fldiv+3)^0,c
  1799  00147C  EF71  F00B         	goto	l761
  1800  001480                     l2156:
  1801  001480  501A               	movf	___fldiv@aexp^0,w,c
  1802  001482  C019  F00A         	movff	___fldiv@bexp,??___fldiv
  1803  001486  6A0B               	clrf	(??___fldiv+1)^0,c
  1804  001488  5E0A               	subwf	??___fldiv^0,f,c
  1805  00148A  0E00               	movlw	0
  1806  00148C  5A0B               	subwfb	(??___fldiv+1)^0,f,c
  1807  00148E  0E7F               	movlw	127
  1808  001490  240A               	addwf	??___fldiv^0,w,c
  1809  001492  6E13               	movwf	___fldiv@new_exp^0,c
  1810  001494  0E00               	movlw	0
  1811  001496  200B               	addwfc	(??___fldiv+1)^0,w,c
  1812  001498  6E14               	movwf	(___fldiv@new_exp+1)^0,c
  1813  00149A  C002  F00E         	movff	___fldiv@b,___fldiv@rem
  1814  00149E  C003  F00F         	movff	___fldiv@b+1,___fldiv@rem+1
  1815  0014A2  C004  F010         	movff	___fldiv@b+2,___fldiv@rem+2
  1816  0014A6  C005  F011         	movff	___fldiv@b+3,___fldiv@rem+3
  1817  0014AA  0E00               	movlw	0
  1818  0014AC  6E02               	movwf	___fldiv@b^0,c
  1819  0014AE  0E00               	movlw	0
  1820  0014B0  6E03               	movwf	(___fldiv@b+1)^0,c
  1821  0014B2  0E00               	movlw	0
  1822  0014B4  6E04               	movwf	(___fldiv@b+2)^0,c
  1823  0014B6  0E00               	movlw	0
  1824  0014B8  6E05               	movwf	(___fldiv@b+3)^0,c
  1825  0014BA  0E00               	movlw	0
  1826  0014BC  6E15               	movwf	___fldiv@grs^0,c
  1827  0014BE  0E00               	movlw	0
  1828  0014C0  6E16               	movwf	(___fldiv@grs+1)^0,c
  1829  0014C2  0E00               	movlw	0
  1830  0014C4  6E17               	movwf	(___fldiv@grs+2)^0,c
  1831  0014C6  0E00               	movlw	0
  1832  0014C8  6E18               	movwf	(___fldiv@grs+3)^0,c
  1833  0014CA  0E00               	movlw	0
  1834  0014CC  6E1A               	movwf	___fldiv@aexp^0,c
  1835  0014CE  EFA1  F00A         	goto	l763
  1836  0014D2                     l2166:
  1837  0014D2  501A               	movf	___fldiv@aexp^0,w,c
  1838  0014D4  B4D8               	btfsc	status,2,c
  1839  0014D6  EF6F  F00A         	goto	u2191
  1840  0014DA  EF71  F00A         	goto	u2190
  1841  0014DE                     u2191:
  1842  0014DE  EF88  F00A         	goto	l2174
  1843  0014E2                     u2190:
  1844  0014E2  90D8               	bcf	status,0,c
  1845  0014E4  360E               	rlcf	___fldiv@rem^0,f,c
  1846  0014E6  360F               	rlcf	(___fldiv@rem+1)^0,f,c
  1847  0014E8  3610               	rlcf	(___fldiv@rem+2)^0,f,c
  1848  0014EA  3611               	rlcf	(___fldiv@rem+3)^0,f,c
  1849  0014EC  90D8               	bcf	status,0,c
  1850  0014EE  3602               	rlcf	___fldiv@b^0,f,c
  1851  0014F0  3603               	rlcf	(___fldiv@b+1)^0,f,c
  1852  0014F2  3604               	rlcf	(___fldiv@b+2)^0,f,c
  1853  0014F4  3605               	rlcf	(___fldiv@b+3)^0,f,c
  1854  0014F6  AE18               	btfss	(___fldiv@grs+3)^0,7,c
  1855  0014F8  EF80  F00A         	goto	u2201
  1856  0014FC  EF82  F00A         	goto	u2200
  1857  001500                     u2201:
  1858  001500  EF83  F00A         	goto	l766
  1859  001504                     u2200:
  1860  001504  8002               	bsf	___fldiv@b^0,0,c
  1861  001506                     l766:
  1862  001506  90D8               	bcf	status,0,c
  1863  001508  3615               	rlcf	___fldiv@grs^0,f,c
  1864  00150A  3616               	rlcf	(___fldiv@grs+1)^0,f,c
  1865  00150C  3617               	rlcf	(___fldiv@grs+2)^0,f,c
  1866  00150E  3618               	rlcf	(___fldiv@grs+3)^0,f,c
  1867  001510                     l2174:
  1868  001510  5006               	movf	___fldiv@a^0,w,c
  1869  001512  5C0E               	subwf	___fldiv@rem^0,w,c
  1870  001514  5007               	movf	(___fldiv@a+1)^0,w,c
  1871  001516  580F               	subwfb	(___fldiv@rem+1)^0,w,c
  1872  001518  5008               	movf	(___fldiv@a+2)^0,w,c
  1873  00151A  5810               	subwfb	(___fldiv@rem+2)^0,w,c
  1874  00151C  5009               	movf	(___fldiv@a+3)^0,w,c
  1875  00151E  5811               	subwfb	(___fldiv@rem+3)^0,w,c
  1876  001520  A0D8               	btfss	status,0,c
  1877  001522  EF95  F00A         	goto	u2211
  1878  001526  EF97  F00A         	goto	u2210
  1879  00152A                     u2211:
  1880  00152A  EFA0  F00A         	goto	l2180
  1881  00152E                     u2210:
  1882  00152E  8C18               	bsf	(___fldiv@grs+3)^0,6,c
  1883  001530  5006               	movf	___fldiv@a^0,w,c
  1884  001532  5E0E               	subwf	___fldiv@rem^0,f,c
  1885  001534  5007               	movf	(___fldiv@a+1)^0,w,c
  1886  001536  5A0F               	subwfb	(___fldiv@rem+1)^0,f,c
  1887  001538  5008               	movf	(___fldiv@a+2)^0,w,c
  1888  00153A  5A10               	subwfb	(___fldiv@rem+2)^0,f,c
  1889  00153C  5009               	movf	(___fldiv@a+3)^0,w,c
  1890  00153E  5A11               	subwfb	(___fldiv@rem+3)^0,f,c
  1891  001540                     l2180:
  1892  001540  2A1A               	incf	___fldiv@aexp^0,f,c
  1893  001542                     l763:
  1894  001542  0E19               	movlw	25
  1895  001544  641A               	cpfsgt	___fldiv@aexp^0,c
  1896  001546  EFA7  F00A         	goto	u2221
  1897  00154A  EFA9  F00A         	goto	u2220
  1898  00154E                     u2221:
  1899  00154E  EF69  F00A         	goto	l2166
  1900  001552                     u2220:
  1901  001552  500E               	movf	___fldiv@rem^0,w,c
  1902  001554  100F               	iorwf	(___fldiv@rem+1)^0,w,c
  1903  001556  1010               	iorwf	(___fldiv@rem+2)^0,w,c
  1904  001558  1011               	iorwf	(___fldiv@rem+3)^0,w,c
  1905  00155A  B4D8               	btfsc	status,2,c
  1906  00155C  EFB2  F00A         	goto	u2231
  1907  001560  EFB4  F00A         	goto	u2230
  1908  001564                     u2231:
  1909  001564  EFCC  F00A         	goto	l2192
  1910  001568                     u2230:
  1911  001568  8015               	bsf	___fldiv@grs^0,0,c
  1912  00156A  EFCC  F00A         	goto	l2192
  1913  00156E                     l2186:
  1914  00156E  90D8               	bcf	status,0,c
  1915  001570  3602               	rlcf	___fldiv@b^0,f,c
  1916  001572  3603               	rlcf	(___fldiv@b+1)^0,f,c
  1917  001574  3604               	rlcf	(___fldiv@b+2)^0,f,c
  1918  001576  3605               	rlcf	(___fldiv@b+3)^0,f,c
  1919  001578  AE18               	btfss	(___fldiv@grs+3)^0,7,c
  1920  00157A  EFC1  F00A         	goto	u2241
  1921  00157E  EFC3  F00A         	goto	u2240
  1922  001582                     u2241:
  1923  001582  EFC4  F00A         	goto	l772
  1924  001586                     u2240:
  1925  001586  8002               	bsf	___fldiv@b^0,0,c
  1926  001588                     l772:
  1927  001588  90D8               	bcf	status,0,c
  1928  00158A  3615               	rlcf	___fldiv@grs^0,f,c
  1929  00158C  3616               	rlcf	(___fldiv@grs+1)^0,f,c
  1930  00158E  3617               	rlcf	(___fldiv@grs+2)^0,f,c
  1931  001590  3618               	rlcf	(___fldiv@grs+3)^0,f,c
  1932  001592  0613               	decf	___fldiv@new_exp^0,f,c
  1933  001594  A0D8               	btfss	status,0,c
  1934  001596  0614               	decf	(___fldiv@new_exp+1)^0,f,c
  1935  001598                     l2192:
  1936  001598  AE04               	btfss	(___fldiv@b+2)^0,7,c
  1937  00159A  EFD1  F00A         	goto	u2251
  1938  00159E  EFD3  F00A         	goto	u2250
  1939  0015A2                     u2251:
  1940  0015A2  EFB7  F00A         	goto	l2186
  1941  0015A6                     u2250:
  1942  0015A6  0E00               	movlw	0
  1943  0015A8  6E1A               	movwf	___fldiv@aexp^0,c
  1944  0015AA  AE18               	btfss	(___fldiv@grs+3)^0,7,c
  1945  0015AC  EFDA  F00A         	goto	u2261
  1946  0015B0  EFDC  F00A         	goto	u2260
  1947  0015B4                     u2261:
  1948  0015B4  EF00  F00B         	goto	l774
  1949  0015B8                     u2260:
  1950  0015B8  0EFF               	movlw	255
  1951  0015BA  1415               	andwf	___fldiv@grs^0,w,c
  1952  0015BC  6E0A               	movwf	??___fldiv^0,c
  1953  0015BE  0EFF               	movlw	255
  1954  0015C0  1416               	andwf	(___fldiv@grs+1)^0,w,c
  1955  0015C2  6E0B               	movwf	(??___fldiv+1)^0,c
  1956  0015C4  0EFF               	movlw	255
  1957  0015C6  1417               	andwf	(___fldiv@grs+2)^0,w,c
  1958  0015C8  6E0C               	movwf	(??___fldiv+2)^0,c
  1959  0015CA  0E7F               	movlw	127
  1960  0015CC  1418               	andwf	(___fldiv@grs+3)^0,w,c
  1961  0015CE  6E0D               	movwf	(??___fldiv+3)^0,c
  1962  0015D0  500A               	movf	??___fldiv^0,w,c
  1963  0015D2  100B               	iorwf	(??___fldiv+1)^0,w,c
  1964  0015D4  100C               	iorwf	(??___fldiv+2)^0,w,c
  1965  0015D6  100D               	iorwf	(??___fldiv+3)^0,w,c
  1966  0015D8  B4D8               	btfsc	status,2,c
  1967  0015DA  EFF1  F00A         	goto	u2271
  1968  0015DE  EFF3  F00A         	goto	u2270
  1969  0015E2                     u2271:
  1970  0015E2  EFF7  F00A         	goto	l775
  1971  0015E6                     u2270:
  1972  0015E6                     l2200:
  1973  0015E6  0E01               	movlw	1
  1974  0015E8  6E1A               	movwf	___fldiv@aexp^0,c
  1975  0015EA  EF00  F00B         	goto	l774
  1976  0015EE                     l775:
  1977  0015EE  A002               	btfss	___fldiv@b^0,0,c
  1978  0015F0  EFFC  F00A         	goto	u2281
  1979  0015F4  EFFE  F00A         	goto	u2280
  1980  0015F8                     u2281:
  1981  0015F8  EF00  F00B         	goto	l774
  1982  0015FC                     u2280:
  1983  0015FC  EFF3  F00A         	goto	l2200
  1984  001600                     l774:
  1985  001600  501A               	movf	___fldiv@aexp^0,w,c
  1986  001602  B4D8               	btfsc	status,2,c
  1987  001604  EF06  F00B         	goto	u2291
  1988  001608  EF08  F00B         	goto	u2290
  1989  00160C                     u2291:
  1990  00160C  EF2C  F00B         	goto	l2212
  1991  001610                     u2290:
  1992  001610  0E01               	movlw	1
  1993  001612  2602               	addwf	___fldiv@b^0,f,c
  1994  001614  0E00               	movlw	0
  1995  001616  2203               	addwfc	(___fldiv@b+1)^0,f,c
  1996  001618  2204               	addwfc	(___fldiv@b+2)^0,f,c
  1997  00161A  2205               	addwfc	(___fldiv@b+3)^0,f,c
  1998  00161C  A005               	btfss	(___fldiv@b+3)^0,0,c
  1999  00161E  EF13  F00B         	goto	u2301
  2000  001622  EF15  F00B         	goto	u2300
  2001  001626                     u2301:
  2002  001626  EF2C  F00B         	goto	l2212
  2003  00162A                     u2300:
  2004  00162A  C002  F00A         	movff	___fldiv@b,??___fldiv
  2005  00162E  C003  F00B         	movff	___fldiv@b+1,??___fldiv+1
  2006  001632  C004  F00C         	movff	___fldiv@b+2,??___fldiv+2
  2007  001636  C005  F00D         	movff	___fldiv@b+3,??___fldiv+3
  2008  00163A  340D               	rlcf	(??___fldiv+3)^0,w,c
  2009  00163C  320D               	rrcf	(??___fldiv+3)^0,f,c
  2010  00163E  320C               	rrcf	(??___fldiv+2)^0,f,c
  2011  001640  320B               	rrcf	(??___fldiv+1)^0,f,c
  2012  001642  320A               	rrcf	??___fldiv^0,f,c
  2013  001644  C00A  F002         	movff	??___fldiv,___fldiv@b
  2014  001648  C00B  F003         	movff	??___fldiv+1,___fldiv@b+1
  2015  00164C  C00C  F004         	movff	??___fldiv+2,___fldiv@b+2
  2016  001650  C00D  F005         	movff	??___fldiv+3,___fldiv@b+3
  2017  001654  4A13               	infsnz	___fldiv@new_exp^0,f,c
  2018  001656  2A14               	incf	(___fldiv@new_exp+1)^0,f,c
  2019  001658                     l2212:
  2020  001658  BE14               	btfsc	(___fldiv@new_exp+1)^0,7,c
  2021  00165A  EF37  F00B         	goto	u2311
  2022  00165E  5014               	movf	(___fldiv@new_exp+1)^0,w,c
  2023  001660  E108               	bnz	u2310
  2024  001662  2813               	incf	___fldiv@new_exp^0,w,c
  2025  001664  A0D8               	btfss	status,0,c
  2026  001666  EF37  F00B         	goto	u2311
  2027  00166A  EF39  F00B         	goto	u2310
  2028  00166E                     u2311:
  2029  00166E  EF44  F00B         	goto	l2216
  2030  001672                     u2310:
  2031  001672  0E00               	movlw	0
  2032  001674  6E14               	movwf	(___fldiv@new_exp+1)^0,c
  2033  001676  6813               	setf	___fldiv@new_exp^0,c
  2034  001678  0E00               	movlw	0
  2035  00167A  6E02               	movwf	___fldiv@b^0,c
  2036  00167C  0E00               	movlw	0
  2037  00167E  6E03               	movwf	(___fldiv@b+1)^0,c
  2038  001680  0E00               	movlw	0
  2039  001682  6E04               	movwf	(___fldiv@b+2)^0,c
  2040  001684  0E00               	movlw	0
  2041  001686  6E05               	movwf	(___fldiv@b+3)^0,c
  2042  001688                     l2216:
  2043  001688  BE14               	btfsc	(___fldiv@new_exp+1)^0,7,c
  2044  00168A  EF51  F00B         	goto	u2320
  2045  00168E  5014               	movf	(___fldiv@new_exp+1)^0,w,c
  2046  001690  E106               	bnz	u2321
  2047  001692  0413               	decf	___fldiv@new_exp^0,w,c
  2048  001694  B0D8               	btfsc	status,0,c
  2049  001696  EF4F  F00B         	goto	u2321
  2050  00169A  EF51  F00B         	goto	u2320
  2051  00169E                     u2321:
  2052  00169E  EF5F  F00B         	goto	l2220
  2053  0016A2                     u2320:
  2054  0016A2  0E00               	movlw	0
  2055  0016A4  6E14               	movwf	(___fldiv@new_exp+1)^0,c
  2056  0016A6  0E00               	movlw	0
  2057  0016A8  6E13               	movwf	___fldiv@new_exp^0,c
  2058  0016AA  0E00               	movlw	0
  2059  0016AC  6E02               	movwf	___fldiv@b^0,c
  2060  0016AE  0E00               	movlw	0
  2061  0016B0  6E03               	movwf	(___fldiv@b+1)^0,c
  2062  0016B2  0E00               	movlw	0
  2063  0016B4  6E04               	movwf	(___fldiv@b+2)^0,c
  2064  0016B6  0E00               	movlw	0
  2065  0016B8  6E05               	movwf	(___fldiv@b+3)^0,c
  2066  0016BA  0E00               	movlw	0
  2067  0016BC  6E12               	movwf	___fldiv@sign^0,c
  2068  0016BE                     l2220:
  2069  0016BE  C013  F019         	movff	___fldiv@new_exp,___fldiv@bexp
  2070  0016C2  A019               	btfss	___fldiv@bexp^0,0,c
  2071  0016C4  EF66  F00B         	goto	u2331
  2072  0016C8  EF68  F00B         	goto	u2330
  2073  0016CC                     u2331:
  2074  0016CC  EF6B  F00B         	goto	l2226
  2075  0016D0                     u2330:
  2076  0016D0  8E04               	bsf	(___fldiv@b+2)^0,7,c
  2077  0016D2  EF6C  F00B         	goto	l2228
  2078  0016D6                     l2226:
  2079  0016D6  9E04               	bcf	(___fldiv@b+2)^0,7,c
  2080  0016D8                     l2228:
  2081  0016D8  90D8               	bcf	status,0,c
  2082  0016DA  3019               	rrcf	___fldiv@bexp^0,w,c
  2083  0016DC  6E05               	movwf	(___fldiv@b+3)^0,c
  2084  0016DE  EF22  F00A         	goto	l2142
  2085  0016E2                     l761:
  2086  0016E2  0012               	return		;funcret
  2087  0016E4                     __end_of___fldiv:
  2088                           	callstack 0
  2089                           
  2090 ;; *************** function _Vibration_ON *****************
  2091 ;; Defined at:
  2092 ;;		line 23 in file "PWM.c"
  2093 ;; Parameters:    Size  Location     Type
  2094 ;;  percentage      4   26[COMRAM] unsigned char 
  2095 ;; Auto vars:     Size  Location     Type
  2096 ;;  output          4   35[COMRAM] long 
  2097 ;; Return value:  Size  Location     Type
  2098 ;;                  1    wreg      void 
  2099 ;; Registers used:
  2100 ;;		wreg, status,2, status,0, cstack
  2101 ;; Tracked objects:
  2102 ;;		On entry : 0/0
  2103 ;;		On exit  : 0/0
  2104 ;;		Unchanged: 0/0
  2105 ;; Data sizes:     COMRAM   BANK0   BANK1   BANK2   BANK3   BANK4   BANK5
  2106 ;;      Params:         4       0       0       0       0       0       0
  2107 ;;      Locals:         4       0       0       0       0       0       0
  2108 ;;      Temps:          5       0       0       0       0       0       0
  2109 ;;      Totals:        13       0       0       0       0       0       0
  2110 ;;Total ram usage:       13 bytes
  2111 ;; Hardware stack levels used:    1
  2112 ;; Hardware stack levels required when called:    3
  2113 ;; This function calls:
  2114 ;;		___aldiv
  2115 ;;		___flge
  2116 ;;		___fltol
  2117 ;;		___lmul
  2118 ;; This function is called by:
  2119 ;;		_main
  2120 ;; This function uses a non-reentrant model
  2121 ;;
  2122                           
  2123                           	psect	text5
  2124  001898                     __ptext5:
  2125                           	callstack 0
  2126  001898                     _Vibration_ON:
  2127                           	callstack 27
  2128  001898                     
  2129                           ;PWM.c: 25:     long output;;PWM.c: 27:     if (percentage > 100) {
  2130  001898  0E00               	movlw	0
  2131  00189A  6E02               	movwf	___flge@ff1^0,c
  2132  00189C  0E00               	movlw	0
  2133  00189E  6E03               	movwf	(___flge@ff1+1)^0,c
  2134  0018A0  0EC8               	movlw	200
  2135  0018A2  6E04               	movwf	(___flge@ff1+2)^0,c
  2136  0018A4  0E42               	movlw	66
  2137  0018A6  6E05               	movwf	(___flge@ff1+3)^0,c
  2138  0018A8  C01B  F006         	movff	Vibration_ON@percentage,___flge@ff2
  2139  0018AC  C01C  F007         	movff	Vibration_ON@percentage+1,___flge@ff2+1
  2140  0018B0  C01D  F008         	movff	Vibration_ON@percentage+2,___flge@ff2+2
  2141  0018B4  C01E  F009         	movff	Vibration_ON@percentage+3,___flge@ff2+3
  2142  0018B8  EC04  F00E         	call	___flge	;wreg free
  2143  0018BC  B0D8               	btfsc	status,0,c
  2144  0018BE  EF63  F00C         	goto	u2011
  2145  0018C2  EF65  F00C         	goto	u2010
  2146  0018C6                     u2011:
  2147  0018C6  EF67  F00C         	goto	l2056
  2148  0018CA                     u2010:
  2149  0018CA  EFFA  F00C         	goto	l131
  2150  0018CE                     l2056:
  2151                           
  2152                           ;PWM.c: 31:     output = ((long) (PR2 + 1)) << 2;
  2153  0018CE  0E01               	movlw	1
  2154  0018D0  24CB               	addwf	203,w,c	;volatile
  2155  0018D2  6E1F               	movwf	??_Vibration_ON^0,c
  2156  0018D4  6A20               	clrf	(??_Vibration_ON+1)^0,c
  2157  0018D6  0E00               	movlw	0
  2158  0018D8  2220               	addwfc	(??_Vibration_ON+1)^0,f,c
  2159  0018DA  6A21               	clrf	(??_Vibration_ON+2)^0,c
  2160  0018DC  BE20               	btfsc	(??_Vibration_ON+1)^0,7,c
  2161  0018DE  0621               	decf	(??_Vibration_ON+2)^0,f,c
  2162  0018E0  5021               	movf	(??_Vibration_ON+2)^0,w,c
  2163  0018E2  6E22               	movwf	(??_Vibration_ON+3)^0,c
  2164  0018E4  0E02               	movlw	2
  2165  0018E6                     u2025:
  2166  0018E6  90D8               	bcf	status,0,c
  2167  0018E8  361F               	rlcf	??_Vibration_ON^0,f,c
  2168  0018EA  3620               	rlcf	(??_Vibration_ON+1)^0,f,c
  2169  0018EC  3621               	rlcf	(??_Vibration_ON+2)^0,f,c
  2170  0018EE  3622               	rlcf	(??_Vibration_ON+3)^0,f,c
  2171  0018F0  2EE8               	decfsz	wreg,f,c
  2172  0018F2  EF73  F00C         	goto	u2025
  2173  0018F6  C01F  F024         	movff	??_Vibration_ON,Vibration_ON@output
  2174  0018FA  C020  F025         	movff	??_Vibration_ON+1,Vibration_ON@output+1
  2175  0018FE  C021  F026         	movff	??_Vibration_ON+2,Vibration_ON@output+2
  2176  001902  C022  F027         	movff	??_Vibration_ON+3,Vibration_ON@output+3
  2177  001906                     
  2178                           ;PWM.c: 32:     output= output * ((long) percentage);
  2179  001906  C01B  F002         	movff	Vibration_ON@percentage,___fltol@f1
  2180  00190A  C01C  F003         	movff	Vibration_ON@percentage+1,___fltol@f1+1
  2181  00190E  C01D  F004         	movff	Vibration_ON@percentage+2,___fltol@f1+2
  2182  001912  C01E  F005         	movff	Vibration_ON@percentage+3,___fltol@f1+3
  2183  001916  EC81  F00D         	call	___fltol	;wreg free
  2184  00191A  C002  F00C         	movff	?___fltol,___lmul@multiplier
  2185  00191E  C003  F00D         	movff	?___fltol+1,___lmul@multiplier+1
  2186  001922  C004  F00E         	movff	?___fltol+2,___lmul@multiplier+2
  2187  001926  C005  F00F         	movff	?___fltol+3,___lmul@multiplier+3
  2188  00192A  C024  F010         	movff	Vibration_ON@output,___lmul@multiplicand
  2189  00192E  C025  F011         	movff	Vibration_ON@output+1,___lmul@multiplicand+1
  2190  001932  C026  F012         	movff	Vibration_ON@output+2,___lmul@multiplicand+2
  2191  001936  C027  F013         	movff	Vibration_ON@output+3,___lmul@multiplicand+3
  2192  00193A  ECFA  F00E         	call	___lmul	;wreg free
  2193  00193E  C00C  F024         	movff	?___lmul,Vibration_ON@output
  2194  001942  C00D  F025         	movff	?___lmul+1,Vibration_ON@output+1
  2195  001946  C00E  F026         	movff	?___lmul+2,Vibration_ON@output+2
  2196  00194A  C00F  F027         	movff	?___lmul+3,Vibration_ON@output+3
  2197  00194E                     
  2198                           ;PWM.c: 33:     output = output / 100;
  2199  00194E  C024  F002         	movff	Vibration_ON@output,___aldiv@dividend
  2200  001952  C025  F003         	movff	Vibration_ON@output+1,___aldiv@dividend+1
  2201  001956  C026  F004         	movff	Vibration_ON@output+2,___aldiv@dividend+2
  2202  00195A  C027  F005         	movff	Vibration_ON@output+3,___aldiv@dividend+3
  2203  00195E  0E64               	movlw	100
  2204  001960  6E06               	movwf	___aldiv@divisor^0,c
  2205  001962  0E00               	movlw	0
  2206  001964  6E07               	movwf	(___aldiv@divisor+1)^0,c
  2207  001966  0E00               	movlw	0
  2208  001968  6E08               	movwf	(___aldiv@divisor+2)^0,c
  2209  00196A  0E00               	movlw	0
  2210  00196C  6E09               	movwf	(___aldiv@divisor+3)^0,c
  2211  00196E  ECFB  F00C         	call	___aldiv	;wreg free
  2212  001972  C002  F024         	movff	?___aldiv,Vibration_ON@output
  2213  001976  C003  F025         	movff	?___aldiv+1,Vibration_ON@output+1
  2214  00197A  C004  F026         	movff	?___aldiv+2,Vibration_ON@output+2
  2215  00197E  C005  F027         	movff	?___aldiv+3,Vibration_ON@output+3
  2216                           
  2217                           ;PWM.c: 36:     CCPR1L = output >> 2;
  2218  001982  0E02               	movlw	2
  2219  001984  6E1F               	movwf	??_Vibration_ON^0,c
  2220  001986  C024  F020         	movff	Vibration_ON@output,??_Vibration_ON+1
  2221  00198A  C025  F021         	movff	Vibration_ON@output+1,??_Vibration_ON+2
  2222  00198E  C026  F022         	movff	Vibration_ON@output+2,??_Vibration_ON+3
  2223  001992  C027  F023         	movff	Vibration_ON@output+3,??_Vibration_ON+4
  2224  001996                     u2035:
  2225  001996  661F               	tstfsz	??_Vibration_ON^0,c
  2226  001998  EFD0  F00C         	goto	u2036
  2227  00199C  EFD8  F00C         	goto	u2037
  2228  0019A0                     u2036:
  2229  0019A0  3423               	rlcf	(??_Vibration_ON+4)^0,w,c
  2230  0019A2  3223               	rrcf	(??_Vibration_ON+4)^0,f,c
  2231  0019A4  3222               	rrcf	(??_Vibration_ON+3)^0,f,c
  2232  0019A6  3221               	rrcf	(??_Vibration_ON+2)^0,f,c
  2233  0019A8  3220               	rrcf	(??_Vibration_ON+1)^0,f,c
  2234  0019AA  2E1F               	decfsz	??_Vibration_ON^0,f,c
  2235  0019AC  EFCB  F00C         	goto	u2035
  2236  0019B0                     u2037:
  2237  0019B0  5020               	movf	(??_Vibration_ON+1)^0,w,c
  2238  0019B2  6EBE               	movwf	190,c	;volatile
  2239                           
  2240                           ;PWM.c: 37:     DC1B1 = (output & 2) >> 1;
  2241  0019B4  C024  F01F         	movff	Vibration_ON@output,??_Vibration_ON
  2242  0019B8  C025  F020         	movff	Vibration_ON@output+1,??_Vibration_ON+1
  2243  0019BC  C026  F021         	movff	Vibration_ON@output+2,??_Vibration_ON+2
  2244  0019C0  C027  F022         	movff	Vibration_ON@output+3,??_Vibration_ON+3
  2245  0019C4  3422               	rlcf	(??_Vibration_ON+3)^0,w,c
  2246  0019C6  3222               	rrcf	(??_Vibration_ON+3)^0,f,c
  2247  0019C8  3221               	rrcf	(??_Vibration_ON+2)^0,f,c
  2248  0019CA  3220               	rrcf	(??_Vibration_ON+1)^0,f,c
  2249  0019CC  321F               	rrcf	??_Vibration_ON^0,f,c
  2250  0019CE  301F               	rrcf	??_Vibration_ON^0,w,c
  2251  0019D0  B0D8               	btfsc	status,0,c
  2252  0019D2  EFED  F00C         	goto	u2041
  2253  0019D6  EFF0  F00C         	goto	u2040
  2254  0019DA                     u2041:
  2255  0019DA  8ABD               	bsf	4029,5,c	;volatile
  2256  0019DC  EFF1  F00C         	goto	u2055
  2257  0019E0                     u2040:
  2258  0019E0  9ABD               	bcf	4029,5,c	;volatile
  2259  0019E2                     u2055:
  2260  0019E2                     
  2261                           ;PWM.c: 38:     DC1B0 = (output & 1);
  2262  0019E2  B024               	btfsc	Vibration_ON@output^0,0,c
  2263  0019E4  EFF6  F00C         	goto	u2061
  2264  0019E8  EFF9  F00C         	goto	u2060
  2265  0019EC                     u2061:
  2266  0019EC  88BD               	bsf	4029,4,c	;volatile
  2267  0019EE  EFFA  F00C         	goto	u2075
  2268  0019F2                     u2060:
  2269  0019F2  98BD               	bcf	4029,4,c	;volatile
  2270  0019F4                     u2075:
  2271  0019F4                     l131:
  2272  0019F4  0012               	return		;funcret
  2273  0019F6                     __end_of_Vibration_ON:
  2274                           	callstack 0
  2275                           
  2276 ;; *************** function ___lmul *****************
  2277 ;; Defined at:
  2278 ;;		line 15 in file "C:\Program Files\Microchip\xc8\v2.30\pic\sources\c99\common\Umul32.c"
  2279 ;; Parameters:    Size  Location     Type
  2280 ;;  multiplier      4   11[COMRAM] unsigned long 
  2281 ;;  multiplicand    4   15[COMRAM] unsigned long 
  2282 ;; Auto vars:     Size  Location     Type
  2283 ;;  product         4   19[COMRAM] unsigned long 
  2284 ;; Return value:  Size  Location     Type
  2285 ;;                  4   11[COMRAM] unsigned long 
  2286 ;; Registers used:
  2287 ;;		wreg, status,2, status,0
  2288 ;; Tracked objects:
  2289 ;;		On entry : 0/0
  2290 ;;		On exit  : 0/0
  2291 ;;		Unchanged: 0/0
  2292 ;; Data sizes:     COMRAM   BANK0   BANK1   BANK2   BANK3   BANK4   BANK5
  2293 ;;      Params:         8       0       0       0       0       0       0
  2294 ;;      Locals:         4       0       0       0       0       0       0
  2295 ;;      Temps:          0       0       0       0       0       0       0
  2296 ;;      Totals:        12       0       0       0       0       0       0
  2297 ;;Total ram usage:       12 bytes
  2298 ;; Hardware stack levels used:    1
  2299 ;; Hardware stack levels required when called:    2
  2300 ;; This function calls:
  2301 ;;		Nothing
  2302 ;; This function is called by:
  2303 ;;		_Vibration_ON
  2304 ;; This function uses a non-reentrant model
  2305 ;;
  2306                           
  2307                           	psect	text6
  2308  001DF4                     __ptext6:
  2309                           	callstack 0
  2310  001DF4                     ___lmul:
  2311                           	callstack 27
  2312  001DF4  0E00               	movlw	0
  2313  001DF6  6E14               	movwf	___lmul@product^0,c
  2314  001DF8  0E00               	movlw	0
  2315  001DFA  6E15               	movwf	(___lmul@product+1)^0,c
  2316  001DFC  0E00               	movlw	0
  2317  001DFE  6E16               	movwf	(___lmul@product+2)^0,c
  2318  001E00  0E00               	movlw	0
  2319  001E02  6E17               	movwf	(___lmul@product+3)^0,c
  2320  001E04                     l1686:
  2321  001E04  A00C               	btfss	___lmul@multiplier^0,0,c
  2322  001E06  EF07  F00F         	goto	u1321
  2323  001E0A  EF09  F00F         	goto	u1320
  2324  001E0E                     u1321:
  2325  001E0E  EF11  F00F         	goto	l1690
  2326  001E12                     u1320:
  2327  001E12  5010               	movf	___lmul@multiplicand^0,w,c
  2328  001E14  2614               	addwf	___lmul@product^0,f,c
  2329  001E16  5011               	movf	(___lmul@multiplicand+1)^0,w,c
  2330  001E18  2215               	addwfc	(___lmul@product+1)^0,f,c
  2331  001E1A  5012               	movf	(___lmul@multiplicand+2)^0,w,c
  2332  001E1C  2216               	addwfc	(___lmul@product+2)^0,f,c
  2333  001E1E  5013               	movf	(___lmul@multiplicand+3)^0,w,c
  2334  001E20  2217               	addwfc	(___lmul@product+3)^0,f,c
  2335  001E22                     l1690:
  2336  001E22  90D8               	bcf	status,0,c
  2337  001E24  3610               	rlcf	___lmul@multiplicand^0,f,c
  2338  001E26  3611               	rlcf	(___lmul@multiplicand+1)^0,f,c
  2339  001E28  3612               	rlcf	(___lmul@multiplicand+2)^0,f,c
  2340  001E2A  3613               	rlcf	(___lmul@multiplicand+3)^0,f,c
  2341  001E2C  90D8               	bcf	status,0,c
  2342  001E2E  320F               	rrcf	(___lmul@multiplier+3)^0,f,c
  2343  001E30  320E               	rrcf	(___lmul@multiplier+2)^0,f,c
  2344  001E32  320D               	rrcf	(___lmul@multiplier+1)^0,f,c
  2345  001E34  320C               	rrcf	___lmul@multiplier^0,f,c
  2346  001E36  500C               	movf	___lmul@multiplier^0,w,c
  2347  001E38  100D               	iorwf	(___lmul@multiplier+1)^0,w,c
  2348  001E3A  100E               	iorwf	(___lmul@multiplier+2)^0,w,c
  2349  001E3C  100F               	iorwf	(___lmul@multiplier+3)^0,w,c
  2350  001E3E  A4D8               	btfss	status,2,c
  2351  001E40  EF24  F00F         	goto	u1331
  2352  001E44  EF26  F00F         	goto	u1330
  2353  001E48                     u1331:
  2354  001E48  EF02  F00F         	goto	l1686
  2355  001E4C                     u1330:
  2356  001E4C  C014  F00C         	movff	___lmul@product,?___lmul
  2357  001E50  C015  F00D         	movff	___lmul@product+1,?___lmul+1
  2358  001E54  C016  F00E         	movff	___lmul@product+2,?___lmul+2
  2359  001E58  C017  F00F         	movff	___lmul@product+3,?___lmul+3
  2360  001E5C  0012               	return		;funcret
  2361  001E5E                     __end_of___lmul:
  2362                           	callstack 0
  2363                           
  2364 ;; *************** function ___fltol *****************
  2365 ;; Defined at:
  2366 ;;		line 43 in file "C:\Program Files\Microchip\xc8\v2.30\pic\sources\c99\common\fltol.c"
  2367 ;; Parameters:    Size  Location     Type
  2368 ;;  f1              4    1[COMRAM] unsigned long 
  2369 ;; Auto vars:     Size  Location     Type
  2370 ;;  exp1            1   10[COMRAM] unsigned char 
  2371 ;;  sign1           1    9[COMRAM] unsigned char 
  2372 ;; Return value:  Size  Location     Type
  2373 ;;                  4    1[COMRAM] long 
  2374 ;; Registers used:
  2375 ;;		wreg, status,2, status,0
  2376 ;; Tracked objects:
  2377 ;;		On entry : 0/0
  2378 ;;		On exit  : 0/0
  2379 ;;		Unchanged: 0/0
  2380 ;; Data sizes:     COMRAM   BANK0   BANK1   BANK2   BANK3   BANK4   BANK5
  2381 ;;      Params:         4       0       0       0       0       0       0
  2382 ;;      Locals:         2       0       0       0       0       0       0
  2383 ;;      Temps:          4       0       0       0       0       0       0
  2384 ;;      Totals:        10       0       0       0       0       0       0
  2385 ;;Total ram usage:       10 bytes
  2386 ;; Hardware stack levels used:    1
  2387 ;; Hardware stack levels required when called:    2
  2388 ;; This function calls:
  2389 ;;		Nothing
  2390 ;; This function is called by:
  2391 ;;		_Vibration_ON
  2392 ;; This function uses a non-reentrant model
  2393 ;;
  2394                           
  2395                           	psect	text7
  2396  001B02                     __ptext7:
  2397                           	callstack 0
  2398  001B02                     ___fltol:
  2399                           	callstack 27
  2400  001B02  3404               	rlcf	(___fltol@f1+2)^0,w,c
  2401  001B04  3405               	rlcf	(___fltol@f1+3)^0,w,c
  2402  001B06  6E0B               	movwf	___fltol@exp1^0,c
  2403  001B08  500B               	movf	___fltol@exp1^0,w,c
  2404  001B0A  A4D8               	btfss	status,2,c
  2405  001B0C  EF8A  F00D         	goto	u1841
  2406  001B10  EF8C  F00D         	goto	u1840
  2407  001B14                     u1841:
  2408  001B14  EF96  F00D         	goto	l1968
  2409  001B18                     u1840:
  2410  001B18                     l1964:
  2411  001B18  0E00               	movlw	0
  2412  001B1A  6E02               	movwf	?___fltol^0,c
  2413  001B1C  0E00               	movlw	0
  2414  001B1E  6E03               	movwf	(?___fltol+1)^0,c
  2415  001B20  0E00               	movlw	0
  2416  001B22  6E04               	movwf	(?___fltol+2)^0,c
  2417  001B24  0E00               	movlw	0
  2418  001B26  6E05               	movwf	(?___fltol+3)^0,c
  2419  001B28  EF03  F00E         	goto	l476
  2420  001B2C                     l1968:
  2421  001B2C  C002  F006         	movff	___fltol@f1,??___fltol
  2422  001B30  C003  F007         	movff	___fltol@f1+1,??___fltol+1
  2423  001B34  C004  F008         	movff	___fltol@f1+2,??___fltol+2
  2424  001B38  C005  F009         	movff	___fltol@f1+3,??___fltol+3
  2425  001B3C  0E20               	movlw	32
  2426  001B3E  EFA6  F00D         	goto	u1850
  2427  001B42                     u1855:
  2428  001B42  90D8               	bcf	status,0,c
  2429  001B44  3209               	rrcf	(??___fltol+3)^0,f,c
  2430  001B46  3208               	rrcf	(??___fltol+2)^0,f,c
  2431  001B48  3207               	rrcf	(??___fltol+1)^0,f,c
  2432  001B4A  3206               	rrcf	??___fltol^0,f,c
  2433  001B4C                     u1850:
  2434  001B4C  2EE8               	decfsz	wreg,f,c
  2435  001B4E  EFA1  F00D         	goto	u1855
  2436  001B52  5006               	movf	??___fltol^0,w,c
  2437  001B54  6E0A               	movwf	___fltol@sign1^0,c
  2438  001B56  8E04               	bsf	(___fltol@f1+2)^0,7,c
  2439  001B58  0EFF               	movlw	255
  2440  001B5A  1602               	andwf	___fltol@f1^0,f,c
  2441  001B5C  0EFF               	movlw	255
  2442  001B5E  1603               	andwf	(___fltol@f1+1)^0,f,c
  2443  001B60  0EFF               	movlw	255
  2444  001B62  1604               	andwf	(___fltol@f1+2)^0,f,c
  2445  001B64  0E00               	movlw	0
  2446  001B66  1605               	andwf	(___fltol@f1+3)^0,f,c
  2447  001B68  0E96               	movlw	150
  2448  001B6A  5E0B               	subwf	___fltol@exp1^0,f,c
  2449  001B6C  BE0B               	btfsc	___fltol@exp1^0,7,c
  2450  001B6E  EFBD  F00D         	goto	u1860
  2451  001B72  EFBB  F00D         	goto	u1861
  2452  001B76                     u1861:
  2453  001B76  EFD3  F00D         	goto	l1988
  2454  001B7A                     u1860:
  2455  001B7A  500B               	movf	___fltol@exp1^0,w,c
  2456  001B7C  0A80               	xorlw	128
  2457  001B7E  0F97               	addlw	151
  2458  001B80  B0D8               	btfsc	status,0,c
  2459  001B82  EFC5  F00D         	goto	u1871
  2460  001B86  EFC7  F00D         	goto	u1870
  2461  001B8A                     u1871:
  2462  001B8A  EFC9  F00D         	goto	l1984
  2463  001B8E                     u1870:
  2464  001B8E  EF8C  F00D         	goto	l1964
  2465  001B92                     l1984:
  2466  001B92  90D8               	bcf	status,0,c
  2467  001B94  3205               	rrcf	(___fltol@f1+3)^0,f,c
  2468  001B96  3204               	rrcf	(___fltol@f1+2)^0,f,c
  2469  001B98  3203               	rrcf	(___fltol@f1+1)^0,f,c
  2470  001B9A  3202               	rrcf	___fltol@f1^0,f,c
  2471  001B9C  3E0B               	incfsz	___fltol@exp1^0,f,c
  2472  001B9E  EFC9  F00D         	goto	l1984
  2473  001BA2  EFEB  F00D         	goto	l1998
  2474  001BA6                     l1988:
  2475  001BA6  0E1F               	movlw	31
  2476  001BA8  640B               	cpfsgt	___fltol@exp1^0,c
  2477  001BAA  EFD9  F00D         	goto	u1881
  2478  001BAE  EFDB  F00D         	goto	u1880
  2479  001BB2                     u1881:
  2480  001BB2  EFE3  F00D         	goto	l1996
  2481  001BB6                     u1880:
  2482  001BB6  EF8C  F00D         	goto	l1964
  2483  001BBA                     l1994:
  2484  001BBA  90D8               	bcf	status,0,c
  2485  001BBC  3602               	rlcf	___fltol@f1^0,f,c
  2486  001BBE  3603               	rlcf	(___fltol@f1+1)^0,f,c
  2487  001BC0  3604               	rlcf	(___fltol@f1+2)^0,f,c
  2488  001BC2  3605               	rlcf	(___fltol@f1+3)^0,f,c
  2489  001BC4  060B               	decf	___fltol@exp1^0,f,c
  2490  001BC6                     l1996:
  2491  001BC6  500B               	movf	___fltol@exp1^0,w,c
  2492  001BC8  A4D8               	btfss	status,2,c
  2493  001BCA  EFE9  F00D         	goto	u1891
  2494  001BCE  EFEB  F00D         	goto	u1890
  2495  001BD2                     u1891:
  2496  001BD2  EFDD  F00D         	goto	l1994
  2497  001BD6                     u1890:
  2498  001BD6                     l1998:
  2499  001BD6  500A               	movf	___fltol@sign1^0,w,c
  2500  001BD8  B4D8               	btfsc	status,2,c
  2501  001BDA  EFF1  F00D         	goto	u1901
  2502  001BDE  EFF3  F00D         	goto	u1900
  2503  001BE2                     u1901:
  2504  001BE2  EFFB  F00D         	goto	l2002
  2505  001BE6                     u1900:
  2506  001BE6  1E05               	comf	(___fltol@f1+3)^0,f,c
  2507  001BE8  1E04               	comf	(___fltol@f1+2)^0,f,c
  2508  001BEA  1E03               	comf	(___fltol@f1+1)^0,f,c
  2509  001BEC  6C02               	negf	___fltol@f1^0,c
  2510  001BEE  0E00               	movlw	0
  2511  001BF0  2203               	addwfc	(___fltol@f1+1)^0,f,c
  2512  001BF2  2204               	addwfc	(___fltol@f1+2)^0,f,c
  2513  001BF4  2205               	addwfc	(___fltol@f1+3)^0,f,c
  2514  001BF6                     l2002:
  2515  001BF6  C002  F002         	movff	___fltol@f1,?___fltol
  2516  001BFA  C003  F003         	movff	___fltol@f1+1,?___fltol+1
  2517  001BFE  C004  F004         	movff	___fltol@f1+2,?___fltol+2
  2518  001C02  C005  F005         	movff	___fltol@f1+3,?___fltol+3
  2519  001C06                     l476:
  2520  001C06  0012               	return		;funcret
  2521  001C08                     __end_of___fltol:
  2522                           	callstack 0
  2523                           
  2524 ;; *************** function ___flge *****************
  2525 ;; Defined at:
  2526 ;;		line 4 in file "C:\Program Files\Microchip\xc8\v2.30\pic\sources\c99\common\flge.c"
  2527 ;; Parameters:    Size  Location     Type
  2528 ;;  ff1             4    1[COMRAM] long 
  2529 ;;  ff2             4    5[COMRAM] long 
  2530 ;; Auto vars:     Size  Location     Type
  2531 ;;		None
  2532 ;; Return value:  Size  Location     Type
  2533 ;;		None               void
  2534 ;; Registers used:
  2535 ;;		wreg, status,2, status,0
  2536 ;; Tracked objects:
  2537 ;;		On entry : 0/0
  2538 ;;		On exit  : 0/0
  2539 ;;		Unchanged: 0/0
  2540 ;; Data sizes:     COMRAM   BANK0   BANK1   BANK2   BANK3   BANK4   BANK5
  2541 ;;      Params:         8       0       0       0       0       0       0
  2542 ;;      Locals:         0       0       0       0       0       0       0
  2543 ;;      Temps:          4       0       0       0       0       0       0
  2544 ;;      Totals:        12       0       0       0       0       0       0
  2545 ;;Total ram usage:       12 bytes
  2546 ;; Hardware stack levels used:    1
  2547 ;; Hardware stack levels required when called:    2
  2548 ;; This function calls:
  2549 ;;		Nothing
  2550 ;; This function is called by:
  2551 ;;		_main
  2552 ;;		_Vibration_ON
  2553 ;; This function uses a non-reentrant model
  2554 ;;
  2555                           
  2556                           	psect	text8
  2557  001C08                     __ptext8:
  2558                           	callstack 0
  2559  001C08                     ___flge:
  2560                           	callstack 28
  2561  001C08  0E00               	movlw	0
  2562  001C0A  1402               	andwf	___flge@ff1^0,w,c
  2563  001C0C  6E0A               	movwf	??___flge^0,c
  2564  001C0E  0E00               	movlw	0
  2565  001C10  1403               	andwf	(___flge@ff1+1)^0,w,c
  2566  001C12  6E0B               	movwf	(??___flge+1)^0,c
  2567  001C14  0E80               	movlw	128
  2568  001C16  1404               	andwf	(___flge@ff1+2)^0,w,c
  2569  001C18  6E0C               	movwf	(??___flge+2)^0,c
  2570  001C1A  0E7F               	movlw	127
  2571  001C1C  1405               	andwf	(___flge@ff1+3)^0,w,c
  2572  001C1E  6E0D               	movwf	(??___flge+3)^0,c
  2573  001C20  500A               	movf	??___flge^0,w,c
  2574  001C22  100B               	iorwf	(??___flge+1)^0,w,c
  2575  001C24  100C               	iorwf	(??___flge+2)^0,w,c
  2576  001C26  100D               	iorwf	(??___flge+3)^0,w,c
  2577  001C28  A4D8               	btfss	status,2,c
  2578  001C2A  EF19  F00E         	goto	u1791
  2579  001C2E  EF1B  F00E         	goto	u1790
  2580  001C32                     u1791:
  2581  001C32  EF23  F00E         	goto	l1944
  2582  001C36                     u1790:
  2583  001C36  0E00               	movlw	0
  2584  001C38  6E02               	movwf	___flge@ff1^0,c
  2585  001C3A  0E00               	movlw	0
  2586  001C3C  6E03               	movwf	(___flge@ff1+1)^0,c
  2587  001C3E  0E00               	movlw	0
  2588  001C40  6E04               	movwf	(___flge@ff1+2)^0,c
  2589  001C42  0E00               	movlw	0
  2590  001C44  6E05               	movwf	(___flge@ff1+3)^0,c
  2591  001C46                     l1944:
  2592  001C46  0E00               	movlw	0
  2593  001C48  1406               	andwf	___flge@ff2^0,w,c
  2594  001C4A  6E0A               	movwf	??___flge^0,c
  2595  001C4C  0E00               	movlw	0
  2596  001C4E  1407               	andwf	(___flge@ff2+1)^0,w,c
  2597  001C50  6E0B               	movwf	(??___flge+1)^0,c
  2598  001C52  0E80               	movlw	128
  2599  001C54  1408               	andwf	(___flge@ff2+2)^0,w,c
  2600  001C56  6E0C               	movwf	(??___flge+2)^0,c
  2601  001C58  0E7F               	movlw	127
  2602  001C5A  1409               	andwf	(___flge@ff2+3)^0,w,c
  2603  001C5C  6E0D               	movwf	(??___flge+3)^0,c
  2604  001C5E  500A               	movf	??___flge^0,w,c
  2605  001C60  100B               	iorwf	(??___flge+1)^0,w,c
  2606  001C62  100C               	iorwf	(??___flge+2)^0,w,c
  2607  001C64  100D               	iorwf	(??___flge+3)^0,w,c
  2608  001C66  A4D8               	btfss	status,2,c
  2609  001C68  EF38  F00E         	goto	u1801
  2610  001C6C  EF3A  F00E         	goto	u1800
  2611  001C70                     u1801:
  2612  001C70  EF42  F00E         	goto	l1948
  2613  001C74                     u1800:
  2614  001C74  0E00               	movlw	0
  2615  001C76  6E06               	movwf	___flge@ff2^0,c
  2616  001C78  0E00               	movlw	0
  2617  001C7A  6E07               	movwf	(___flge@ff2+1)^0,c
  2618  001C7C  0E00               	movlw	0
  2619  001C7E  6E08               	movwf	(___flge@ff2+2)^0,c
  2620  001C80  0E00               	movlw	0
  2621  001C82  6E09               	movwf	(___flge@ff2+3)^0,c
  2622  001C84                     l1948:
  2623  001C84  AE05               	btfss	(___flge@ff1+3)^0,7,c
  2624  001C86  EF47  F00E         	goto	u1811
  2625  001C8A  EF49  F00E         	goto	u1810
  2626  001C8E                     u1811:
  2627  001C8E  EF52  F00E         	goto	l1952
  2628  001C92                     u1810:
  2629  001C92  6C02               	negf	___flge@ff1^0,c
  2630  001C94  1E03               	comf	(___flge@ff1+1)^0,f,c
  2631  001C96  B0D8               	btfsc	status,0,c
  2632  001C98  2A03               	incf	(___flge@ff1+1)^0,f,c
  2633  001C9A  1E04               	comf	(___flge@ff1+2)^0,f,c
  2634  001C9C  B0D8               	btfsc	status,0,c
  2635  001C9E  2A04               	incf	(___flge@ff1+2)^0,f,c
  2636  001CA0  0E80               	movlw	128
  2637  001CA2  5605               	subfwb	(___flge@ff1+3)^0,f,c
  2638  001CA4                     l1952:
  2639  001CA4  AE09               	btfss	(___flge@ff2+3)^0,7,c
  2640  001CA6  EF57  F00E         	goto	u1821
  2641  001CAA  EF59  F00E         	goto	u1820
  2642  001CAE                     u1821:
  2643  001CAE  EF62  F00E         	goto	l444
  2644  001CB2                     u1820:
  2645  001CB2  6C06               	negf	___flge@ff2^0,c
  2646  001CB4  1E07               	comf	(___flge@ff2+1)^0,f,c
  2647  001CB6  B0D8               	btfsc	status,0,c
  2648  001CB8  2A07               	incf	(___flge@ff2+1)^0,f,c
  2649  001CBA  1E08               	comf	(___flge@ff2+2)^0,f,c
  2650  001CBC  B0D8               	btfsc	status,0,c
  2651  001CBE  2A08               	incf	(___flge@ff2+2)^0,f,c
  2652  001CC0  0E80               	movlw	128
  2653  001CC2  5609               	subfwb	(___flge@ff2+3)^0,f,c
  2654  001CC4                     l444:
  2655  001CC4  0E00               	movlw	0
  2656  001CC6  1A02               	xorwf	___flge@ff1^0,f,c
  2657  001CC8  0E00               	movlw	0
  2658  001CCA  1A03               	xorwf	(___flge@ff1+1)^0,f,c
  2659  001CCC  0E00               	movlw	0
  2660  001CCE  1A04               	xorwf	(___flge@ff1+2)^0,f,c
  2661  001CD0  0E80               	movlw	128
  2662  001CD2  1A05               	xorwf	(___flge@ff1+3)^0,f,c
  2663  001CD4  0E00               	movlw	0
  2664  001CD6  1A06               	xorwf	___flge@ff2^0,f,c
  2665  001CD8  0E00               	movlw	0
  2666  001CDA  1A07               	xorwf	(___flge@ff2+1)^0,f,c
  2667  001CDC  0E00               	movlw	0
  2668  001CDE  1A08               	xorwf	(___flge@ff2+2)^0,f,c
  2669  001CE0  0E80               	movlw	128
  2670  001CE2  1A09               	xorwf	(___flge@ff2+3)^0,f,c
  2671  001CE4  5006               	movf	___flge@ff2^0,w,c
  2672  001CE6  5C02               	subwf	___flge@ff1^0,w,c
  2673  001CE8  5007               	movf	(___flge@ff2+1)^0,w,c
  2674  001CEA  5803               	subwfb	(___flge@ff1+1)^0,w,c
  2675  001CEC  5008               	movf	(___flge@ff2+2)^0,w,c
  2676  001CEE  5804               	subwfb	(___flge@ff1+2)^0,w,c
  2677  001CF0  5009               	movf	(___flge@ff2+3)^0,w,c
  2678  001CF2  5805               	subwfb	(___flge@ff1+3)^0,w,c
  2679  001CF4  B0D8               	btfsc	status,0,c
  2680  001CF6  EF7F  F00E         	goto	u1831
  2681  001CFA  EF81  F00E         	goto	u1830
  2682  001CFE                     u1831:
  2683  001CFE  EF84  F00E         	goto	l1958
  2684  001D02                     u1830:
  2685  001D02  90D8               	bcf	status,0,c
  2686  001D04  EF85  F00E         	goto	l449
  2687  001D08                     l1958:
  2688  001D08  80D8               	bsf	status,0,c
  2689  001D0A                     l449:
  2690  001D0A  0012               	return		;funcret
  2691  001D0C                     __end_of___flge:
  2692                           	callstack 0
  2693                           
  2694 ;; *************** function ___aldiv *****************
  2695 ;; Defined at:
  2696 ;;		line 7 in file "C:\Program Files\Microchip\xc8\v2.30\pic\sources\c99\common\aldiv.c"
  2697 ;; Parameters:    Size  Location     Type
  2698 ;;  dividend        4    1[COMRAM] long 
  2699 ;;  divisor         4    5[COMRAM] long 
  2700 ;; Auto vars:     Size  Location     Type
  2701 ;;  quotient        4   11[COMRAM] long 
  2702 ;;  sign            1   10[COMRAM] unsigned char 
  2703 ;;  counter         1    9[COMRAM] unsigned char 
  2704 ;; Return value:  Size  Location     Type
  2705 ;;                  4    1[COMRAM] long 
  2706 ;; Registers used:
  2707 ;;		wreg, status,2, status,0
  2708 ;; Tracked objects:
  2709 ;;		On entry : 0/0
  2710 ;;		On exit  : 0/0
  2711 ;;		Unchanged: 0/0
  2712 ;; Data sizes:     COMRAM   BANK0   BANK1   BANK2   BANK3   BANK4   BANK5
  2713 ;;      Params:         8       0       0       0       0       0       0
  2714 ;;      Locals:         6       0       0       0       0       0       0
  2715 ;;      Temps:          0       0       0       0       0       0       0
  2716 ;;      Totals:        14       0       0       0       0       0       0
  2717 ;;Total ram usage:       14 bytes
  2718 ;; Hardware stack levels used:    1
  2719 ;; Hardware stack levels required when called:    2
  2720 ;; This function calls:
  2721 ;;		Nothing
  2722 ;; This function is called by:
  2723 ;;		_Vibration_ON
  2724 ;; This function uses a non-reentrant model
  2725 ;;
  2726                           
  2727                           	psect	text9
  2728  0019F6                     __ptext9:
  2729                           	callstack 0
  2730  0019F6                     ___aldiv:
  2731                           	callstack 27
  2732  0019F6  0E00               	movlw	0
  2733  0019F8  6E0B               	movwf	___aldiv@sign^0,c
  2734  0019FA  BE09               	btfsc	(___aldiv@divisor+3)^0,7,c
  2735  0019FC  EF04  F00D         	goto	u1340
  2736  001A00  EF02  F00D         	goto	u1341
  2737  001A04                     u1341:
  2738  001A04  EF0E  F00D         	goto	l1702
  2739  001A08                     u1340:
  2740  001A08  1E09               	comf	(___aldiv@divisor+3)^0,f,c
  2741  001A0A  1E08               	comf	(___aldiv@divisor+2)^0,f,c
  2742  001A0C  1E07               	comf	(___aldiv@divisor+1)^0,f,c
  2743  001A0E  6C06               	negf	___aldiv@divisor^0,c
  2744  001A10  0E00               	movlw	0
  2745  001A12  2207               	addwfc	(___aldiv@divisor+1)^0,f,c
  2746  001A14  2208               	addwfc	(___aldiv@divisor+2)^0,f,c
  2747  001A16  2209               	addwfc	(___aldiv@divisor+3)^0,f,c
  2748  001A18  0E01               	movlw	1
  2749  001A1A  6E0B               	movwf	___aldiv@sign^0,c
  2750  001A1C                     l1702:
  2751  001A1C  BE05               	btfsc	(___aldiv@dividend+3)^0,7,c
  2752  001A1E  EF15  F00D         	goto	u1350
  2753  001A22  EF13  F00D         	goto	u1351
  2754  001A26                     u1351:
  2755  001A26  EF1F  F00D         	goto	l1708
  2756  001A2A                     u1350:
  2757  001A2A  1E05               	comf	(___aldiv@dividend+3)^0,f,c
  2758  001A2C  1E04               	comf	(___aldiv@dividend+2)^0,f,c
  2759  001A2E  1E03               	comf	(___aldiv@dividend+1)^0,f,c
  2760  001A30  6C02               	negf	___aldiv@dividend^0,c
  2761  001A32  0E00               	movlw	0
  2762  001A34  2203               	addwfc	(___aldiv@dividend+1)^0,f,c
  2763  001A36  2204               	addwfc	(___aldiv@dividend+2)^0,f,c
  2764  001A38  2205               	addwfc	(___aldiv@dividend+3)^0,f,c
  2765  001A3A  0E01               	movlw	1
  2766  001A3C  1A0B               	xorwf	___aldiv@sign^0,f,c
  2767  001A3E                     l1708:
  2768  001A3E  0E00               	movlw	0
  2769  001A40  6E0C               	movwf	___aldiv@quotient^0,c
  2770  001A42  0E00               	movlw	0
  2771  001A44  6E0D               	movwf	(___aldiv@quotient+1)^0,c
  2772  001A46  0E00               	movlw	0
  2773  001A48  6E0E               	movwf	(___aldiv@quotient+2)^0,c
  2774  001A4A  0E00               	movlw	0
  2775  001A4C  6E0F               	movwf	(___aldiv@quotient+3)^0,c
  2776  001A4E  5006               	movf	___aldiv@divisor^0,w,c
  2777  001A50  1007               	iorwf	(___aldiv@divisor+1)^0,w,c
  2778  001A52  1008               	iorwf	(___aldiv@divisor+2)^0,w,c
  2779  001A54  1009               	iorwf	(___aldiv@divisor+3)^0,w,c
  2780  001A56  B4D8               	btfsc	status,2,c
  2781  001A58  EF30  F00D         	goto	u1361
  2782  001A5C  EF32  F00D         	goto	u1360
  2783  001A60                     u1361:
  2784  001A60  EF68  F00D         	goto	l1730
  2785  001A64                     u1360:
  2786  001A64  0E01               	movlw	1
  2787  001A66  6E0A               	movwf	___aldiv@counter^0,c
  2788  001A68  EF3C  F00D         	goto	l1716
  2789  001A6C                     l1714:
  2790  001A6C  90D8               	bcf	status,0,c
  2791  001A6E  3606               	rlcf	___aldiv@divisor^0,f,c
  2792  001A70  3607               	rlcf	(___aldiv@divisor+1)^0,f,c
  2793  001A72  3608               	rlcf	(___aldiv@divisor+2)^0,f,c
  2794  001A74  3609               	rlcf	(___aldiv@divisor+3)^0,f,c
  2795  001A76  2A0A               	incf	___aldiv@counter^0,f,c
  2796  001A78                     l1716:
  2797  001A78  AE09               	btfss	(___aldiv@divisor+3)^0,7,c
  2798  001A7A  EF41  F00D         	goto	u1371
  2799  001A7E  EF43  F00D         	goto	u1370
  2800  001A82                     u1371:
  2801  001A82  EF36  F00D         	goto	l1714
  2802  001A86                     u1370:
  2803  001A86                     l1718:
  2804  001A86  90D8               	bcf	status,0,c
  2805  001A88  360C               	rlcf	___aldiv@quotient^0,f,c
  2806  001A8A  360D               	rlcf	(___aldiv@quotient+1)^0,f,c
  2807  001A8C  360E               	rlcf	(___aldiv@quotient+2)^0,f,c
  2808  001A8E  360F               	rlcf	(___aldiv@quotient+3)^0,f,c
  2809  001A90  5006               	movf	___aldiv@divisor^0,w,c
  2810  001A92  5C02               	subwf	___aldiv@dividend^0,w,c
  2811  001A94  5007               	movf	(___aldiv@divisor+1)^0,w,c
  2812  001A96  5803               	subwfb	(___aldiv@dividend+1)^0,w,c
  2813  001A98  5008               	movf	(___aldiv@divisor+2)^0,w,c
  2814  001A9A  5804               	subwfb	(___aldiv@dividend+2)^0,w,c
  2815  001A9C  5009               	movf	(___aldiv@divisor+3)^0,w,c
  2816  001A9E  5805               	subwfb	(___aldiv@dividend+3)^0,w,c
  2817  001AA0  A0D8               	btfss	status,0,c
  2818  001AA2  EF55  F00D         	goto	u1381
  2819  001AA6  EF57  F00D         	goto	u1380
  2820  001AAA                     u1381:
  2821  001AAA  EF60  F00D         	goto	l1726
  2822  001AAE                     u1380:
  2823  001AAE  5006               	movf	___aldiv@divisor^0,w,c
  2824  001AB0  5E02               	subwf	___aldiv@dividend^0,f,c
  2825  001AB2  5007               	movf	(___aldiv@divisor+1)^0,w,c
  2826  001AB4  5A03               	subwfb	(___aldiv@dividend+1)^0,f,c
  2827  001AB6  5008               	movf	(___aldiv@divisor+2)^0,w,c
  2828  001AB8  5A04               	subwfb	(___aldiv@dividend+2)^0,f,c
  2829  001ABA  5009               	movf	(___aldiv@divisor+3)^0,w,c
  2830  001ABC  5A05               	subwfb	(___aldiv@dividend+3)^0,f,c
  2831  001ABE  800C               	bsf	___aldiv@quotient^0,0,c
  2832  001AC0                     l1726:
  2833  001AC0  90D8               	bcf	status,0,c
  2834  001AC2  3209               	rrcf	(___aldiv@divisor+3)^0,f,c
  2835  001AC4  3208               	rrcf	(___aldiv@divisor+2)^0,f,c
  2836  001AC6  3207               	rrcf	(___aldiv@divisor+1)^0,f,c
  2837  001AC8  3206               	rrcf	___aldiv@divisor^0,f,c
  2838  001ACA  2E0A               	decfsz	___aldiv@counter^0,f,c
  2839  001ACC  EF43  F00D         	goto	l1718
  2840  001AD0                     l1730:
  2841  001AD0  500B               	movf	___aldiv@sign^0,w,c
  2842  001AD2  B4D8               	btfsc	status,2,c
  2843  001AD4  EF6E  F00D         	goto	u1391
  2844  001AD8  EF70  F00D         	goto	u1390
  2845  001ADC                     u1391:
  2846  001ADC  EF78  F00D         	goto	l1734
  2847  001AE0                     u1390:
  2848  001AE0  1E0F               	comf	(___aldiv@quotient+3)^0,f,c
  2849  001AE2  1E0E               	comf	(___aldiv@quotient+2)^0,f,c
  2850  001AE4  1E0D               	comf	(___aldiv@quotient+1)^0,f,c
  2851  001AE6  6C0C               	negf	___aldiv@quotient^0,c
  2852  001AE8  0E00               	movlw	0
  2853  001AEA  220D               	addwfc	(___aldiv@quotient+1)^0,f,c
  2854  001AEC  220E               	addwfc	(___aldiv@quotient+2)^0,f,c
  2855  001AEE  220F               	addwfc	(___aldiv@quotient+3)^0,f,c
  2856  001AF0                     l1734:
  2857  001AF0  C00C  F002         	movff	___aldiv@quotient,?___aldiv
  2858  001AF4  C00D  F003         	movff	___aldiv@quotient+1,?___aldiv+1
  2859  001AF8  C00E  F004         	movff	___aldiv@quotient+2,?___aldiv+2
  2860  001AFC  C00F  F005         	movff	___aldiv@quotient+3,?___aldiv+3
  2861  001B00  0012               	return		;funcret
  2862  001B02                     __end_of___aldiv:
  2863                           	callstack 0
  2864                           
  2865 ;; *************** function _Init_PWM *****************
  2866 ;; Defined at:
  2867 ;;		line 3 in file "PWM.c"
  2868 ;; Parameters:    Size  Location     Type
  2869 ;;		None
  2870 ;; Auto vars:     Size  Location     Type
  2871 ;;		None
  2872 ;; Return value:  Size  Location     Type
  2873 ;;                  1    wreg      void 
  2874 ;; Registers used:
  2875 ;;		wreg, status,2
  2876 ;; Tracked objects:
  2877 ;;		On entry : 0/0
  2878 ;;		On exit  : 0/0
  2879 ;;		Unchanged: 0/0
  2880 ;; Data sizes:     COMRAM   BANK0   BANK1   BANK2   BANK3   BANK4   BANK5
  2881 ;;      Params:         0       0       0       0       0       0       0
  2882 ;;      Locals:         0       0       0       0       0       0       0
  2883 ;;      Temps:          0       0       0       0       0       0       0
  2884 ;;      Totals:         0       0       0       0       0       0       0
  2885 ;;Total ram usage:        0 bytes
  2886 ;; Hardware stack levels used:    1
  2887 ;; Hardware stack levels required when called:    2
  2888 ;; This function calls:
  2889 ;;		Nothing
  2890 ;; This function is called by:
  2891 ;;		_main
  2892 ;; This function uses a non-reentrant model
  2893 ;;
  2894                           
  2895                           	psect	text10
  2896  001F62                     __ptext10:
  2897                           	callstack 0
  2898  001F62                     _Init_PWM:
  2899                           	callstack 28
  2900  001F62                     
  2901                           ;PWM.c: 5:     T2CONbits.T2CKPS1 = 1;
  2902  001F62  82CA               	bsf	202,1,c	;volatile
  2903                           
  2904                           ;PWM.c: 6:     T2CONbits.TMR2ON = 1;
  2905  001F64  84CA               	bsf	202,2,c	;volatile
  2906  001F66                     
  2907                           ;PWM.c: 7:     PR2 = 194;
  2908  001F66  0EC2               	movlw	194
  2909  001F68  6ECB               	movwf	203,c	;volatile
  2910                           
  2911                           ;PWM.c: 9:     CCP1CONbits.CCP1M = 0x0c;
  2912  001F6A  50BD               	movf	189,w,c	;volatile
  2913  001F6C  0BF0               	andlw	-16
  2914  001F6E  090C               	iorlw	12
  2915  001F70  6EBD               	movwf	189,c	;volatile
  2916  001F72                     
  2917                           ;PWM.c: 11:     CCP1CONbits.P1M1 = 0;
  2918  001F72  9EBD               	bcf	189,7,c	;volatile
  2919  001F74                     
  2920                           ;PWM.c: 12:     CCP1CONbits.P1M0 = 1;
  2921  001F74  8CBD               	bsf	189,6,c	;volatile
  2922                           
  2923                           ;PWM.c: 14:     CCPR1L = 0x61;
  2924  001F76  0E61               	movlw	97
  2925  001F78  6EBE               	movwf	190,c	;volatile
  2926  001F7A                     
  2927                           ;PWM.c: 15:     CCP1CONbits.DC1B1 = 1;
  2928  001F7A  8ABD               	bsf	189,5,c	;volatile
  2929  001F7C                     
  2930                           ;PWM.c: 16:     CCP1CONbits.DC1B0 = 0;
  2931  001F7C  98BD               	bcf	189,4,c	;volatile
  2932  001F7E  0012               	return		;funcret
  2933  001F80                     __end_of_Init_PWM:
  2934                           	callstack 0
  2935                           
  2936 ;; *************** function _Init_EUSART *****************
  2937 ;; Defined at:
  2938 ;;		line 8 in file "EUSART.c"
  2939 ;; Parameters:    Size  Location     Type
  2940 ;;		None
  2941 ;; Auto vars:     Size  Location     Type
  2942 ;;		None
  2943 ;; Return value:  Size  Location     Type
  2944 ;;                  1    wreg      void 
  2945 ;; Registers used:
  2946 ;;		wreg, status,2
  2947 ;; Tracked objects:
  2948 ;;		On entry : 0/0
  2949 ;;		On exit  : 0/0
  2950 ;;		Unchanged: 0/0
  2951 ;; Data sizes:     COMRAM   BANK0   BANK1   BANK2   BANK3   BANK4   BANK5
  2952 ;;      Params:         0       0       0       0       0       0       0
  2953 ;;      Locals:         0       0       0       0       0       0       0
  2954 ;;      Temps:          0       0       0       0       0       0       0
  2955 ;;      Totals:         0       0       0       0       0       0       0
  2956 ;;Total ram usage:        0 bytes
  2957 ;; Hardware stack levels used:    1
  2958 ;; Hardware stack levels required when called:    2
  2959 ;; This function calls:
  2960 ;;		Nothing
  2961 ;; This function is called by:
  2962 ;;		_main
  2963 ;; This function uses a non-reentrant model
  2964 ;;
  2965                           
  2966                           	psect	text11
  2967  001EDA                     __ptext11:
  2968                           	callstack 0
  2969  001EDA                     _Init_EUSART:
  2970                           	callstack 28
  2971  001EDA                     
  2972                           ;EUSART.c: 10:   OSCCONbits.IRCF0=1;
  2973  001EDA  88D3               	bsf	211,4,c	;volatile
  2974                           
  2975                           ;EUSART.c: 11:   OSCCONbits.IRCF1=1;
  2976  001EDC  8AD3               	bsf	211,5,c	;volatile
  2977                           
  2978                           ;EUSART.c: 12:   OSCCONbits.IRCF2=1;
  2979  001EDE  8CD3               	bsf	211,6,c	;volatile
  2980                           
  2981                           ;EUSART.c: 14:   TRISCbits.RC7=1;
  2982  001EE0  8E94               	bsf	148,7,c	;volatile
  2983                           
  2984                           ;EUSART.c: 15:   TRISCbits.RC6=1;
  2985  001EE2  8C94               	bsf	148,6,c	;volatile
  2986                           
  2987                           ;EUSART.c: 17:   TXSTAbits.TXEN=1;
  2988  001EE4  8AAC               	bsf	172,5,c	;volatile
  2989                           
  2990                           ;EUSART.c: 18:   TXSTAbits.SYNC=0;
  2991  001EE6  98AC               	bcf	172,4,c	;volatile
  2992                           
  2993                           ;EUSART.c: 19:   RCSTAbits.SPEN=1;
  2994  001EE8  8EAB               	bsf	171,7,c	;volatile
  2995                           
  2996                           ;EUSART.c: 20:   TXSTAbits.TX9=0;
  2997  001EEA  9CAC               	bcf	172,6,c	;volatile
  2998                           
  2999                           ;EUSART.c: 22:   BAUDCONbits.BRG16=1;
  3000  001EEC  86B8               	bsf	184,3,c	;volatile
  3001  001EEE                     
  3002                           ;EUSART.c: 24:   SPBRG= 0x67;
  3003  001EEE  0E67               	movlw	103
  3004  001EF0  6EAF               	movwf	175,c	;volatile
  3005  001EF2                     
  3006                           ;EUSART.c: 26:   RCSTAbits.CREN=1;
  3007  001EF2  88AB               	bsf	171,4,c	;volatile
  3008  001EF4                     
  3009                           ;EUSART.c: 27:   RCSTAbits.RX9=0;
  3010  001EF4  9CAB               	bcf	171,6,c	;volatile
  3011  001EF6                     
  3012                           ;EUSART.c: 29:   PEIE=1;
  3013  001EF6  8CF2               	bsf	4082,6,c	;volatile
  3014  001EF8                     
  3015                           ;EUSART.c: 31:   PIE1bits.RCIE=1;
  3016  001EF8  8A9D               	bsf	157,5,c	;volatile
  3017  001EFA                     
  3018                           ;EUSART.c: 32:   PIE1bits.TXIE=1;
  3019  001EFA  889D               	bsf	157,4,c	;volatile
  3020  001EFC  0012               	return		;funcret
  3021  001EFE                     __end_of_Init_EUSART:
  3022                           	callstack 0
  3023                           
  3024 ;; *************** function _Init_ADC *****************
  3025 ;; Defined at:
  3026 ;;		line 9 in file "ADC.c"
  3027 ;; Parameters:    Size  Location     Type
  3028 ;;		None
  3029 ;; Auto vars:     Size  Location     Type
  3030 ;;		None
  3031 ;; Return value:  Size  Location     Type
  3032 ;;                  1    wreg      void 
  3033 ;; Registers used:
  3034 ;;		None
  3035 ;; Tracked objects:
  3036 ;;		On entry : 0/0
  3037 ;;		On exit  : 0/0
  3038 ;;		Unchanged: 0/0
  3039 ;; Data sizes:     COMRAM   BANK0   BANK1   BANK2   BANK3   BANK4   BANK5
  3040 ;;      Params:         0       0       0       0       0       0       0
  3041 ;;      Locals:         0       0       0       0       0       0       0
  3042 ;;      Temps:          0       0       0       0       0       0       0
  3043 ;;      Totals:         0       0       0       0       0       0       0
  3044 ;;Total ram usage:        0 bytes
  3045 ;; Hardware stack levels used:    1
  3046 ;; Hardware stack levels required when called:    2
  3047 ;; This function calls:
  3048 ;;		Nothing
  3049 ;; This function is called by:
  3050 ;;		_main
  3051 ;; This function uses a non-reentrant model
  3052 ;;
  3053                           
  3054                           	psect	text12
  3055  001F22                     __ptext12:
  3056                           	callstack 0
  3057  001F22                     _Init_ADC:
  3058                           	callstack 28
  3059  001F22                     
  3060                           ;ADC.c: 11:     TRISAbits.RA0 = 1;
  3061  001F22  8092               	bsf	146,0,c	;volatile
  3062                           
  3063                           ;ADC.c: 13:     ANSELbits.ANS0 = 1;
  3064  001F24  807E               	bsf	126,0,c	;volatile
  3065                           
  3066                           ;ADC.c: 14:     ADCON2bits.ADFM = 0;
  3067  001F26  9EC0               	bcf	192,7,c	;volatile
  3068                           
  3069                           ;ADC.c: 16:     ADCON2bits.ACQT2 = 1;
  3070  001F28  8AC0               	bsf	192,5,c	;volatile
  3071                           
  3072                           ;ADC.c: 17:     ADCON2bits.ACQT1 = 0;
  3073  001F2A  98C0               	bcf	192,4,c	;volatile
  3074                           
  3075                           ;ADC.c: 18:     ADCON2bits.ACQT0 = 1;
  3076  001F2C  86C0               	bsf	192,3,c	;volatile
  3077                           
  3078                           ;ADC.c: 20:     ADCON2bits.ADCS2 = 0;
  3079  001F2E  94C0               	bcf	192,2,c	;volatile
  3080                           
  3081                           ;ADC.c: 21:     ADCON2bits.ADCS1 = 1;
  3082  001F30  82C0               	bsf	192,1,c	;volatile
  3083                           
  3084                           ;ADC.c: 22:     ADCON2bits.ADCS0 = 1;
  3085  001F32  80C0               	bsf	192,0,c	;volatile
  3086                           
  3087                           ;ADC.c: 24:     ADCON1bits.VCFG1 = 0;
  3088  001F34  9AC1               	bcf	193,5,c	;volatile
  3089                           
  3090                           ;ADC.c: 25:     ADCON1bits.VCFG0 = 0;
  3091  001F36  98C1               	bcf	193,4,c	;volatile
  3092                           
  3093                           ;ADC.c: 27:     ADCON0bits.CHS3=0;
  3094  001F38  9AC2               	bcf	194,5,c	;volatile
  3095                           
  3096                           ;ADC.c: 28:     ADCON0bits.CHS2=0;
  3097  001F3A  98C2               	bcf	194,4,c	;volatile
  3098                           
  3099                           ;ADC.c: 29:     ADCON0bits.CHS1=0;
  3100  001F3C  96C2               	bcf	194,3,c	;volatile
  3101                           
  3102                           ;ADC.c: 30:     ADCON0bits.CHS0=0;
  3103  001F3E  94C2               	bcf	194,2,c	;volatile
  3104                           
  3105                           ;ADC.c: 32:     ADCON0bits.ADON = 1;
  3106  001F40  80C2               	bsf	194,0,c	;volatile
  3107  001F42  0012               	return		;funcret
  3108  001F44                     __end_of_Init_ADC:
  3109                           	callstack 0
  3110                           
  3111 ;; *************** function _InitApp *****************
  3112 ;; Defined at:
  3113 ;;		line 24 in file "user.c"
  3114 ;; Parameters:    Size  Location     Type
  3115 ;;		None
  3116 ;; Auto vars:     Size  Location     Type
  3117 ;;		None
  3118 ;; Return value:  Size  Location     Type
  3119 ;;                  1    wreg      void 
  3120 ;; Registers used:
  3121 ;;		None
  3122 ;; Tracked objects:
  3123 ;;		On entry : 0/0
  3124 ;;		On exit  : 0/0
  3125 ;;		Unchanged: 0/0
  3126 ;; Data sizes:     COMRAM   BANK0   BANK1   BANK2   BANK3   BANK4   BANK5
  3127 ;;      Params:         0       0       0       0       0       0       0
  3128 ;;      Locals:         0       0       0       0       0       0       0
  3129 ;;      Temps:          0       0       0       0       0       0       0
  3130 ;;      Totals:         0       0       0       0       0       0       0
  3131 ;;Total ram usage:        0 bytes
  3132 ;; Hardware stack levels used:    1
  3133 ;; Hardware stack levels required when called:    2
  3134 ;; This function calls:
  3135 ;;		Nothing
  3136 ;; This function is called by:
  3137 ;;		_main
  3138 ;; This function uses a non-reentrant model
  3139 ;;
  3140                           
  3141                           	psect	text13
  3142  001F9C                     __ptext13:
  3143                           	callstack 0
  3144  001F9C                     _InitApp:
  3145                           	callstack 28
  3146  001F9C                     
  3147                           ;user.c: 26:     TRISDbits.RD0 = 0;
  3148  001F9C  9095               	bcf	149,0,c	;volatile
  3149                           
  3150                           ;user.c: 27:     TRISDbits.RD1 = 0;
  3151  001F9E  9295               	bcf	149,1,c	;volatile
  3152                           
  3153                           ;user.c: 28:     TRISDbits.RD7 = 0;
  3154  001FA0  9E95               	bcf	149,7,c	;volatile
  3155                           
  3156                           ;user.c: 29:     TRISAbits.RA0 = 1;
  3157  001FA2  8092               	bsf	146,0,c	;volatile
  3158                           
  3159                           ;user.c: 30:     TRISBbits.RB0 = 1;
  3160  001FA4  8093               	bsf	147,0,c	;volatile
  3161  001FA6  0012               	return		;funcret
  3162  001FA8                     __end_of_InitApp:
  3163                           	callstack 0
  3164                           
  3165 ;; *************** function _ConfigureOscillator *****************
  3166 ;; Defined at:
  3167 ;;		line 24 in file "system.c"
  3168 ;; Parameters:    Size  Location     Type
  3169 ;;		None
  3170 ;; Auto vars:     Size  Location     Type
  3171 ;;		None
  3172 ;; Return value:  Size  Location     Type
  3173 ;;                  1    wreg      void 
  3174 ;; Registers used:
  3175 ;;		None
  3176 ;; Tracked objects:
  3177 ;;		On entry : 0/0
  3178 ;;		On exit  : 0/0
  3179 ;;		Unchanged: 0/0
  3180 ;; Data sizes:     COMRAM   BANK0   BANK1   BANK2   BANK3   BANK4   BANK5
  3181 ;;      Params:         0       0       0       0       0       0       0
  3182 ;;      Locals:         0       0       0       0       0       0       0
  3183 ;;      Temps:          0       0       0       0       0       0       0
  3184 ;;      Totals:         0       0       0       0       0       0       0
  3185 ;;Total ram usage:        0 bytes
  3186 ;; Hardware stack levels used:    1
  3187 ;; Hardware stack levels required when called:    2
  3188 ;; This function calls:
  3189 ;;		Nothing
  3190 ;; This function is called by:
  3191 ;;		_main
  3192 ;; This function uses a non-reentrant model
  3193 ;;
  3194                           
  3195                           	psect	text14
  3196  001FAC                     __ptext14:
  3197                           	callstack 0
  3198  001FAC                     _ConfigureOscillator:
  3199                           	callstack 28
  3200  001FAC  0012               	return		;funcret
  3201  001FAE                     __end_of_ConfigureOscillator:
  3202                           	callstack 0
  3203                           
  3204 ;; *************** function _BT_load_string *****************
  3205 ;; Defined at:
  3206 ;;		line 56 in file "EUSART.c"
  3207 ;; Parameters:    Size  Location     Type
  3208 ;;  string          2    2[COMRAM] PTR unsigned char 
  3209 ;;		 -> STR_2(2), STR_1(2), 
  3210 ;; Auto vars:     Size  Location     Type
  3211 ;;		None
  3212 ;; Return value:  Size  Location     Type
  3213 ;;                  1    wreg      void 
  3214 ;; Registers used:
  3215 ;;		wreg, status,2, status,0, tblptrl, tblptrh, tblptru, cstack
  3216 ;; Tracked objects:
  3217 ;;		On entry : 0/0
  3218 ;;		On exit  : 0/0
  3219 ;;		Unchanged: 0/0
  3220 ;; Data sizes:     COMRAM   BANK0   BANK1   BANK2   BANK3   BANK4   BANK5
  3221 ;;      Params:         2       0       0       0       0       0       0
  3222 ;;      Locals:         0       0       0       0       0       0       0
  3223 ;;      Temps:          0       0       0       0       0       0       0
  3224 ;;      Totals:         2       0       0       0       0       0       0
  3225 ;;Total ram usage:        2 bytes
  3226 ;; Hardware stack levels used:    1
  3227 ;; Hardware stack levels required when called:    3
  3228 ;; This function calls:
  3229 ;;		_BT_load_char
  3230 ;; This function is called by:
  3231 ;;		_main
  3232 ;; This function uses a non-reentrant model
  3233 ;;
  3234                           
  3235                           	psect	text15
  3236  001EA4                     __ptext15:
  3237                           	callstack 0
  3238  001EA4                     _BT_load_string:
  3239                           	callstack 27
  3240  001EA4                     
  3241                           ;EUSART.c: 56: void BT_load_string(char* string);EUSART.c: 57: {;EUSART.c: 58:     while
      +                          (*string)
  3242  001EA4  EF5E  F00F         	goto	l2096
  3243  001EA8                     l2092:
  3244                           
  3245                           ;EUSART.c: 59:     BT_load_char(*string++);
  3246  001EA8  C003  FFF6         	movff	BT_load_string@string,tblptrl
  3247  001EAC  C004  FFF7         	movff	BT_load_string@string+1,tblptrh
  3248  001EB0                     	if	0	;tblptru may be non-zero
  3249  001EB0                     	endif
  3250  001EB0                     	if	0	;tblptru may be non-zero
  3251  001EB0                     	endif
  3252  001EB0  0008               	tblrd		*
  3253  001EB2  50F5               	movf	tablat,w,c
  3254  001EB4  EC7F  F00F         	call	_BT_load_char
  3255  001EB8  4A03               	infsnz	BT_load_string@string^0,f,c
  3256  001EBA  2A04               	incf	(BT_load_string@string+1)^0,f,c
  3257  001EBC                     l2096:
  3258                           
  3259                           ;EUSART.c: 58:     while(*string)
  3260  001EBC  C003  FFF6         	movff	BT_load_string@string,tblptrl
  3261  001EC0  C004  FFF7         	movff	BT_load_string@string+1,tblptrh
  3262  001EC4                     	if	0	;tblptru may be non-zero
  3263  001EC4                     	endif
  3264  001EC4                     	if	0	;tblptru may be non-zero
  3265  001EC4                     	endif
  3266  001EC4  0008               	tblrd		*
  3267  001EC6  50F5               	movf	tablat,w,c
  3268  001EC8  0900               	iorlw	0
  3269  001ECA  A4D8               	btfss	status,2,c
  3270  001ECC  EF6A  F00F         	goto	u2101
  3271  001ED0  EF6C  F00F         	goto	u2100
  3272  001ED4                     u2101:
  3273  001ED4  EF54  F00F         	goto	l2092
  3274  001ED8                     u2100:
  3275  001ED8  0012               	return		;funcret
  3276  001EDA                     __end_of_BT_load_string:
  3277                           	callstack 0
  3278                           
  3279 ;; *************** function _BT_load_char *****************
  3280 ;; Defined at:
  3281 ;;		line 39 in file "EUSART.c"
  3282 ;; Parameters:    Size  Location     Type
  3283 ;;  bt              1    wreg     unsigned char 
  3284 ;; Auto vars:     Size  Location     Type
  3285 ;;  bt              1    1[COMRAM] unsigned char 
  3286 ;; Return value:  Size  Location     Type
  3287 ;;                  1    wreg      void 
  3288 ;; Registers used:
  3289 ;;		wreg
  3290 ;; Tracked objects:
  3291 ;;		On entry : 0/0
  3292 ;;		On exit  : 0/0
  3293 ;;		Unchanged: 0/0
  3294 ;; Data sizes:     COMRAM   BANK0   BANK1   BANK2   BANK3   BANK4   BANK5
  3295 ;;      Params:         0       0       0       0       0       0       0
  3296 ;;      Locals:         1       0       0       0       0       0       0
  3297 ;;      Temps:          0       0       0       0       0       0       0
  3298 ;;      Totals:         1       0       0       0       0       0       0
  3299 ;;Total ram usage:        1 bytes
  3300 ;; Hardware stack levels used:    1
  3301 ;; Hardware stack levels required when called:    2
  3302 ;; This function calls:
  3303 ;;		Nothing
  3304 ;; This function is called by:
  3305 ;;		_BT_load_string
  3306 ;; This function uses a non-reentrant model
  3307 ;;
  3308                           
  3309                           	psect	text16
  3310  001EFE                     __ptext16:
  3311                           	callstack 0
  3312  001EFE                     _BT_load_char:
  3313                           	callstack 27
  3314                           
  3315                           ;incstack = 0
  3316                           ;BT_load_char@bt stored from wreg
  3317  001EFE  6E02               	movwf	BT_load_char@bt^0,c
  3318  001F00                     
  3319                           ;EUSART.c: 39: void BT_load_char(char bt);EUSART.c: 40: {;EUSART.c: 41:    TXREG = bt;
  3320  001F00  C002  FFAD         	movff	BT_load_char@bt,4013	;volatile
  3321  001F04                     l161:
  3322  001F04  A89E               	btfss	3998,4,c	;volatile
  3323  001F06  EF87  F00F         	goto	u11
  3324  001F0A  EF89  F00F         	goto	u10
  3325  001F0E                     u11:
  3326  001F0E  EF82  F00F         	goto	l161
  3327  001F12                     u10:
  3328  001F12                     l164:
  3329  001F12  A2AC               	btfss	4012,1,c	;volatile
  3330  001F14  EF8E  F00F         	goto	u21
  3331  001F18  EF90  F00F         	goto	u20
  3332  001F1C                     u21:
  3333  001F1C  EF89  F00F         	goto	l164
  3334  001F20                     u20:
  3335  001F20  0012               	return		;funcret
  3336  001F22                     __end_of_BT_load_char:
  3337                           	callstack 0
  3338                           
  3339 ;; *************** function _ADCRead_Pos *****************
  3340 ;; Defined at:
  3341 ;;		line 41 in file "ADC.c"
  3342 ;; Parameters:    Size  Location     Type
  3343 ;;		None
  3344 ;; Auto vars:     Size  Location     Type
  3345 ;;  temp            4   48[COMRAM] void 
  3346 ;;  i               2   52[COMRAM] int 
  3347 ;; Return value:  Size  Location     Type
  3348 ;;                  4   42[COMRAM] int 
  3349 ;; Registers used:
  3350 ;;		wreg, status,2, status,0, cstack
  3351 ;; Tracked objects:
  3352 ;;		On entry : 0/0
  3353 ;;		On exit  : 0/0
  3354 ;;		Unchanged: 0/0
  3355 ;; Data sizes:     COMRAM   BANK0   BANK1   BANK2   BANK3   BANK4   BANK5
  3356 ;;      Params:         4       0       0       0       0       0       0
  3357 ;;      Locals:         6       0       0       0       0       0       0
  3358 ;;      Temps:          2       0       0       0       0       0       0
  3359 ;;      Totals:        12       0       0       0       0       0       0
  3360 ;;Total ram usage:       12 bytes
  3361 ;; Hardware stack levels used:    1
  3362 ;; Hardware stack levels required when called:    3
  3363 ;; This function calls:
  3364 ;;		___fladd
  3365 ;;		___xxtofl
  3366 ;; This function is called by:
  3367 ;;		_main
  3368 ;; This function uses a non-reentrant model
  3369 ;;
  3370                           
  3371                           	psect	text17
  3372  001D0C                     __ptext17:
  3373                           	callstack 0
  3374  001D0C                     _ADCRead_Pos:
  3375                           	callstack 27
  3376  001D0C                     
  3377                           ;ADC.c: 42:   _delay((unsigned long)((2)*(16000000/4000.0)));
  3378  001D0C  0E0B               	movlw	11
  3379  001D0E  6E2F               	movwf	??_ADCRead_Pos^0,c
  3380  001D10  0E62               	movlw	98
  3381  001D12                     u2697:
  3382  001D12  2EE8               	decfsz	wreg,f,c
  3383  001D14  D7FE               	bra	u2697
  3384  001D16  2E2F               	decfsz	??_ADCRead_Pos^0,f,c
  3385  001D18  D7FC               	bra	u2697
  3386  001D1A  F000 F000          	nop2	
  3387  001D1E                     
  3388                           ;ADC.c: 43:   GO = 1;
  3389  001D1E  82C2               	bsf	4034,1,c	;volatile
  3390  001D20                     
  3391                           ;ADC.c: 45:   for(int i = 0; i < 8; i++){
  3392  001D20  0E00               	movlw	0
  3393  001D22  6E36               	movwf	(ADCRead_Pos@i+1)^0,c
  3394  001D24  0E00               	movlw	0
  3395  001D26  6E35               	movwf	ADCRead_Pos@i^0,c
  3396  001D28                     l2074:
  3397                           
  3398                           ;ADC.c: 46:     if (i == 7) {
  3399  001D28  0E07               	movlw	7
  3400  001D2A  1835               	xorwf	ADCRead_Pos@i^0,w,c
  3401  001D2C  1036               	iorwf	(ADCRead_Pos@i+1)^0,w,c
  3402  001D2E  A4D8               	btfss	status,2,c
  3403  001D30  EF9C  F00E         	goto	u2081
  3404  001D34  EF9E  F00E         	goto	u2080
  3405  001D38                     u2081:
  3406  001D38  EFE1  F00E         	goto	l2082
  3407  001D3C                     u2080:
  3408  001D3C                     
  3409                           ;ADC.c: 47:         double temp;;ADC.c: 49:         temp = ADRESL;
  3410  001D3C  50C3               	movf	195,w,c	;volatile
  3411  001D3E  6E02               	movwf	___xxtofl@val^0,c
  3412  001D40  6A03               	clrf	(___xxtofl@val+1)^0,c
  3413  001D42  6A04               	clrf	(___xxtofl@val+2)^0,c
  3414  001D44  6A05               	clrf	(___xxtofl@val+3)^0,c
  3415  001D46  0E00               	movlw	0
  3416  001D48  EC72  F00B         	call	___xxtofl
  3417  001D4C  C002  F031         	movff	?___xxtofl,ADCRead_Pos@temp
  3418  001D50  C003  F032         	movff	?___xxtofl+1,ADCRead_Pos@temp+1
  3419  001D54  C004  F033         	movff	?___xxtofl+2,ADCRead_Pos@temp+2
  3420  001D58  C005  F034         	movff	?___xxtofl+3,ADCRead_Pos@temp+3
  3421                           
  3422                           ;ADC.c: 50:         temp = temp + (ADRESH << 8);
  3423  001D5C  50C4               	movf	196,w,c	;volatile
  3424  001D5E  6E30               	movwf	(??_ADCRead_Pos+1)^0,c
  3425  001D60  6A2F               	clrf	??_ADCRead_Pos^0,c
  3426  001D62  C02F  F002         	movff	??_ADCRead_Pos,___xxtofl@val
  3427  001D66  C030  F003         	movff	??_ADCRead_Pos+1,___xxtofl@val+1
  3428  001D6A  0E00               	movlw	0
  3429  001D6C  BE03               	btfsc	(___xxtofl@val+1)^0,7,c
  3430  001D6E  0EFF               	movlw	-1
  3431  001D70  6E04               	movwf	(___xxtofl@val+2)^0,c
  3432  001D72  6E05               	movwf	(___xxtofl@val+3)^0,c
  3433  001D74  0E01               	movlw	1
  3434  001D76  EC72  F00B         	call	___xxtofl
  3435  001D7A  C002  F01B         	movff	?___xxtofl,___fladd@b
  3436  001D7E  C003  F01C         	movff	?___xxtofl+1,___fladd@b+1
  3437  001D82  C004  F01D         	movff	?___xxtofl+2,___fladd@b+2
  3438  001D86  C005  F01E         	movff	?___xxtofl+3,___fladd@b+3
  3439  001D8A  C031  F01F         	movff	ADCRead_Pos@temp,___fladd@a
  3440  001D8E  C032  F020         	movff	ADCRead_Pos@temp+1,___fladd@a+1
  3441  001D92  C033  F021         	movff	ADCRead_Pos@temp+2,___fladd@a+2
  3442  001D96  C034  F022         	movff	ADCRead_Pos@temp+3,___fladd@a+3
  3443  001D9A  EC03  F003         	call	___fladd	;wreg free
  3444  001D9E  C01B  F031         	movff	?___fladd,ADCRead_Pos@temp
  3445  001DA2  C01C  F032         	movff	?___fladd+1,ADCRead_Pos@temp+1
  3446  001DA6  C01D  F033         	movff	?___fladd+2,ADCRead_Pos@temp+2
  3447  001DAA  C01E  F034         	movff	?___fladd+3,ADCRead_Pos@temp+3
  3448  001DAE                     
  3449                           ;ADC.c: 51:         return temp;
  3450  001DAE  C031  F02B         	movff	ADCRead_Pos@temp,?_ADCRead_Pos
  3451  001DB2  C032  F02C         	movff	ADCRead_Pos@temp+1,?_ADCRead_Pos+1
  3452  001DB6  C033  F02D         	movff	ADCRead_Pos@temp+2,?_ADCRead_Pos+2
  3453  001DBA  C034  F02E         	movff	ADCRead_Pos@temp+3,?_ADCRead_Pos+3
  3454  001DBE  EFF9  F00E         	goto	l112
  3455  001DC2                     l2082:
  3456                           
  3457                           ;ADC.c: 54:   }
  3458  001DC2  4A35               	infsnz	ADCRead_Pos@i^0,f,c
  3459  001DC4  2A36               	incf	(ADCRead_Pos@i+1)^0,f,c
  3460  001DC6  BE36               	btfsc	(ADCRead_Pos@i+1)^0,7,c
  3461  001DC8  EFEF  F00E         	goto	u2091
  3462  001DCC  5036               	movf	(ADCRead_Pos@i+1)^0,w,c
  3463  001DCE  E109               	bnz	u2090
  3464  001DD0  0E08               	movlw	8
  3465  001DD2  5C35               	subwf	ADCRead_Pos@i^0,w,c
  3466  001DD4  A0D8               	btfss	status,0,c
  3467  001DD6  EFEF  F00E         	goto	u2091
  3468  001DDA  EFF1  F00E         	goto	u2090
  3469  001DDE                     u2091:
  3470  001DDE  EF94  F00E         	goto	l2074
  3471  001DE2                     u2090:
  3472  001DE2                     
  3473                           ;ADC.c: 55:   return -1;
  3474  001DE2  0E00               	movlw	0
  3475  001DE4  6E2B               	movwf	?_ADCRead_Pos^0,c
  3476  001DE6  0E00               	movlw	0
  3477  001DE8  6E2C               	movwf	(?_ADCRead_Pos+1)^0,c
  3478  001DEA  0E80               	movlw	128
  3479  001DEC  6E2D               	movwf	(?_ADCRead_Pos+2)^0,c
  3480  001DEE  0EBF               	movlw	191
  3481  001DF0  6E2E               	movwf	(?_ADCRead_Pos+3)^0,c
  3482  001DF2                     l112:
  3483  001DF2  0012               	return		;funcret
  3484  001DF4                     __end_of_ADCRead_Pos:
  3485                           	callstack 0
  3486                           
  3487 ;; *************** function ___xxtofl *****************
  3488 ;; Defined at:
  3489 ;;		line 10 in file "C:\Program Files\Microchip\xc8\v2.30\pic\sources\c99\common\xxtofl.c"
  3490 ;; Parameters:    Size  Location     Type
  3491 ;;  sign            1    wreg     unsigned char 
  3492 ;;  val             4    1[COMRAM] long 
  3493 ;; Auto vars:     Size  Location     Type
  3494 ;;  sign            1    9[COMRAM] unsigned char 
  3495 ;;  arg             4   11[COMRAM] unsigned long 
  3496 ;;  exp             1   10[COMRAM] unsigned char 
  3497 ;; Return value:  Size  Location     Type
  3498 ;;                  4    1[COMRAM] unsigned char 
  3499 ;; Registers used:
  3500 ;;		wreg, status,2, status,0
  3501 ;; Tracked objects:
  3502 ;;		On entry : 0/0
  3503 ;;		On exit  : 0/0
  3504 ;;		Unchanged: 0/0
  3505 ;; Data sizes:     COMRAM   BANK0   BANK1   BANK2   BANK3   BANK4   BANK5
  3506 ;;      Params:         4       0       0       0       0       0       0
  3507 ;;      Locals:         6       0       0       0       0       0       0
  3508 ;;      Temps:          4       0       0       0       0       0       0
  3509 ;;      Totals:        14       0       0       0       0       0       0
  3510 ;;Total ram usage:       14 bytes
  3511 ;; Hardware stack levels used:    1
  3512 ;; Hardware stack levels required when called:    2
  3513 ;; This function calls:
  3514 ;;		Nothing
  3515 ;; This function is called by:
  3516 ;;		_ADCRead_Pos
  3517 ;; This function uses a non-reentrant model
  3518 ;;
  3519                           
  3520                           	psect	text18
  3521  0016E4                     __ptext18:
  3522                           	callstack 0
  3523  0016E4                     ___xxtofl:
  3524                           	callstack 27
  3525                           
  3526                           ;incstack = 0
  3527                           ;___xxtofl@sign stored from wreg
  3528  0016E4  6E0A               	movwf	___xxtofl@sign^0,c
  3529  0016E6  500A               	movf	___xxtofl@sign^0,w,c
  3530  0016E8  B4D8               	btfsc	status,2,c
  3531  0016EA  EF79  F00B         	goto	u1911
  3532  0016EE  EF7B  F00B         	goto	u1910
  3533  0016F2                     u1911:
  3534  0016F2  EF9D  F00B         	goto	l834
  3535  0016F6                     u1910:
  3536  0016F6  BE05               	btfsc	(___xxtofl@val+3)^0,7,c
  3537  0016F8  EF82  F00B         	goto	u1920
  3538  0016FC  EF80  F00B         	goto	u1921
  3539  001700                     u1921:
  3540  001700  EF9D  F00B         	goto	l834
  3541  001704                     u1920:
  3542  001704  C002  F006         	movff	___xxtofl@val,??___xxtofl
  3543  001708  C003  F007         	movff	___xxtofl@val+1,??___xxtofl+1
  3544  00170C  C004  F008         	movff	___xxtofl@val+2,??___xxtofl+2
  3545  001710  C005  F009         	movff	___xxtofl@val+3,??___xxtofl+3
  3546  001714  1E06               	comf	??___xxtofl^0,f,c
  3547  001716  1E07               	comf	(??___xxtofl+1)^0,f,c
  3548  001718  1E08               	comf	(??___xxtofl+2)^0,f,c
  3549  00171A  1E09               	comf	(??___xxtofl+3)^0,f,c
  3550  00171C  2A06               	incf	??___xxtofl^0,f,c
  3551  00171E  0E00               	movlw	0
  3552  001720  2207               	addwfc	(??___xxtofl+1)^0,f,c
  3553  001722  2208               	addwfc	(??___xxtofl+2)^0,f,c
  3554  001724  2209               	addwfc	(??___xxtofl+3)^0,f,c
  3555  001726  C006  F00C         	movff	??___xxtofl,___xxtofl@arg
  3556  00172A  C007  F00D         	movff	??___xxtofl+1,___xxtofl@arg+1
  3557  00172E  C008  F00E         	movff	??___xxtofl+2,___xxtofl@arg+2
  3558  001732  C009  F00F         	movff	??___xxtofl+3,___xxtofl@arg+3
  3559  001736  EFA5  F00B         	goto	l2012
  3560  00173A                     l834:
  3561  00173A  C002  F00C         	movff	___xxtofl@val,___xxtofl@arg
  3562  00173E  C003  F00D         	movff	___xxtofl@val+1,___xxtofl@arg+1
  3563  001742  C004  F00E         	movff	___xxtofl@val+2,___xxtofl@arg+2
  3564  001746  C005  F00F         	movff	___xxtofl@val+3,___xxtofl@arg+3
  3565  00174A                     l2012:
  3566  00174A  5002               	movf	___xxtofl@val^0,w,c
  3567  00174C  1003               	iorwf	(___xxtofl@val+1)^0,w,c
  3568  00174E  1004               	iorwf	(___xxtofl@val+2)^0,w,c
  3569  001750  1005               	iorwf	(___xxtofl@val+3)^0,w,c
  3570  001752  A4D8               	btfss	status,2,c
  3571  001754  EFAE  F00B         	goto	u1931
  3572  001758  EFB0  F00B         	goto	u1930
  3573  00175C                     u1931:
  3574  00175C  EFBA  F00B         	goto	l2018
  3575  001760                     u1930:
  3576  001760  0E00               	movlw	0
  3577  001762  6E02               	movwf	?___xxtofl^0,c
  3578  001764  0E00               	movlw	0
  3579  001766  6E03               	movwf	(?___xxtofl+1)^0,c
  3580  001768  0E00               	movlw	0
  3581  00176A  6E04               	movwf	(?___xxtofl+2)^0,c
  3582  00176C  0E00               	movlw	0
  3583  00176E  6E05               	movwf	(?___xxtofl+3)^0,c
  3584  001770  EF4B  F00C         	goto	l837
  3585  001774                     l2018:
  3586  001774  0E96               	movlw	150
  3587  001776  6E0B               	movwf	___xxtofl@exp^0,c
  3588  001778  EFC4  F00B         	goto	l2022
  3589  00177C                     l2020:
  3590  00177C  2A0B               	incf	___xxtofl@exp^0,f,c
  3591  00177E  90D8               	bcf	status,0,c
  3592  001780  320F               	rrcf	(___xxtofl@arg+3)^0,f,c
  3593  001782  320E               	rrcf	(___xxtofl@arg+2)^0,f,c
  3594  001784  320D               	rrcf	(___xxtofl@arg+1)^0,f,c
  3595  001786  320C               	rrcf	___xxtofl@arg^0,f,c
  3596  001788                     l2022:
  3597  001788  0E00               	movlw	0
  3598  00178A  140C               	andwf	___xxtofl@arg^0,w,c
  3599  00178C  6E06               	movwf	??___xxtofl^0,c
  3600  00178E  0E00               	movlw	0
  3601  001790  140D               	andwf	(___xxtofl@arg+1)^0,w,c
  3602  001792  6E07               	movwf	(??___xxtofl+1)^0,c
  3603  001794  0E00               	movlw	0
  3604  001796  140E               	andwf	(___xxtofl@arg+2)^0,w,c
  3605  001798  6E08               	movwf	(??___xxtofl+2)^0,c
  3606  00179A  0EFE               	movlw	254
  3607  00179C  140F               	andwf	(___xxtofl@arg+3)^0,w,c
  3608  00179E  6E09               	movwf	(??___xxtofl+3)^0,c
  3609  0017A0  5006               	movf	??___xxtofl^0,w,c
  3610  0017A2  1007               	iorwf	(??___xxtofl+1)^0,w,c
  3611  0017A4  1008               	iorwf	(??___xxtofl+2)^0,w,c
  3612  0017A6  1009               	iorwf	(??___xxtofl+3)^0,w,c
  3613  0017A8  A4D8               	btfss	status,2,c
  3614  0017AA  EFD9  F00B         	goto	u1941
  3615  0017AE  EFDB  F00B         	goto	u1940
  3616  0017B2                     u1941:
  3617  0017B2  EFBE  F00B         	goto	l2020
  3618  0017B6                     u1940:
  3619  0017B6  EFE9  F00B         	goto	l841
  3620  0017BA                     l2024:
  3621  0017BA  2A0B               	incf	___xxtofl@exp^0,f,c
  3622  0017BC  0E01               	movlw	1
  3623  0017BE  260C               	addwf	___xxtofl@arg^0,f,c
  3624  0017C0  0E00               	movlw	0
  3625  0017C2  220D               	addwfc	(___xxtofl@arg+1)^0,f,c
  3626  0017C4  220E               	addwfc	(___xxtofl@arg+2)^0,f,c
  3627  0017C6  220F               	addwfc	(___xxtofl@arg+3)^0,f,c
  3628  0017C8  90D8               	bcf	status,0,c
  3629  0017CA  320F               	rrcf	(___xxtofl@arg+3)^0,f,c
  3630  0017CC  320E               	rrcf	(___xxtofl@arg+2)^0,f,c
  3631  0017CE  320D               	rrcf	(___xxtofl@arg+1)^0,f,c
  3632  0017D0  320C               	rrcf	___xxtofl@arg^0,f,c
  3633  0017D2                     l841:
  3634  0017D2  0E00               	movlw	0
  3635  0017D4  140C               	andwf	___xxtofl@arg^0,w,c
  3636  0017D6  6E06               	movwf	??___xxtofl^0,c
  3637  0017D8  0E00               	movlw	0
  3638  0017DA  140D               	andwf	(___xxtofl@arg+1)^0,w,c
  3639  0017DC  6E07               	movwf	(??___xxtofl+1)^0,c
  3640  0017DE  0E00               	movlw	0
  3641  0017E0  140E               	andwf	(___xxtofl@arg+2)^0,w,c
  3642  0017E2  6E08               	movwf	(??___xxtofl+2)^0,c
  3643  0017E4  0EFF               	movlw	255
  3644  0017E6  140F               	andwf	(___xxtofl@arg+3)^0,w,c
  3645  0017E8  6E09               	movwf	(??___xxtofl+3)^0,c
  3646  0017EA  5006               	movf	??___xxtofl^0,w,c
  3647  0017EC  1007               	iorwf	(??___xxtofl+1)^0,w,c
  3648  0017EE  1008               	iorwf	(??___xxtofl+2)^0,w,c
  3649  0017F0  1009               	iorwf	(??___xxtofl+3)^0,w,c
  3650  0017F2  A4D8               	btfss	status,2,c
  3651  0017F4  EFFE  F00B         	goto	u1951
  3652  0017F8  EF00  F00C         	goto	u1950
  3653  0017FC                     u1951:
  3654  0017FC  EFDD  F00B         	goto	l2024
  3655  001800                     u1950:
  3656  001800  EF08  F00C         	goto	l2032
  3657  001804                     l2030:
  3658  001804  060B               	decf	___xxtofl@exp^0,f,c
  3659  001806  90D8               	bcf	status,0,c
  3660  001808  360C               	rlcf	___xxtofl@arg^0,f,c
  3661  00180A  360D               	rlcf	(___xxtofl@arg+1)^0,f,c
  3662  00180C  360E               	rlcf	(___xxtofl@arg+2)^0,f,c
  3663  00180E  360F               	rlcf	(___xxtofl@arg+3)^0,f,c
  3664  001810                     l2032:
  3665  001810  BE0E               	btfsc	(___xxtofl@arg+2)^0,7,c
  3666  001812  EF0D  F00C         	goto	u1961
  3667  001816  EF0F  F00C         	goto	u1960
  3668  00181A                     u1961:
  3669  00181A  EF17  F00C         	goto	l848
  3670  00181E                     u1960:
  3671  00181E  0E02               	movlw	2
  3672  001820  600B               	cpfslt	___xxtofl@exp^0,c
  3673  001822  EF15  F00C         	goto	u1971
  3674  001826  EF17  F00C         	goto	u1970
  3675  00182A                     u1971:
  3676  00182A  EF02  F00C         	goto	l2030
  3677  00182E                     u1970:
  3678  00182E                     l848:
  3679  00182E  B00B               	btfsc	___xxtofl@exp^0,0,c
  3680  001830  EF1C  F00C         	goto	u1981
  3681  001834  EF1E  F00C         	goto	u1980
  3682  001838                     u1981:
  3683  001838  EF1F  F00C         	goto	l2038
  3684  00183C                     u1980:
  3685  00183C  9E0E               	bcf	(___xxtofl@arg+2)^0,7,c
  3686  00183E                     l2038:
  3687  00183E  90D8               	bcf	status,0,c
  3688  001840  320B               	rrcf	___xxtofl@exp^0,f,c
  3689  001842  C00B  F006         	movff	___xxtofl@exp,??___xxtofl
  3690  001846  6A07               	clrf	(??___xxtofl+1)^0,c
  3691  001848  6A08               	clrf	(??___xxtofl+2)^0,c
  3692  00184A  6A09               	clrf	(??___xxtofl+3)^0,c
  3693  00184C  C006  F009         	movff	??___xxtofl,??___xxtofl+3
  3694  001850  6A08               	clrf	(??___xxtofl+2)^0,c
  3695  001852  6A07               	clrf	(??___xxtofl+1)^0,c
  3696  001854  6A06               	clrf	??___xxtofl^0,c
  3697  001856  5006               	movf	??___xxtofl^0,w,c
  3698  001858  120C               	iorwf	___xxtofl@arg^0,f,c
  3699  00185A  5007               	movf	(??___xxtofl+1)^0,w,c
  3700  00185C  120D               	iorwf	(___xxtofl@arg+1)^0,f,c
  3701  00185E  5008               	movf	(??___xxtofl+2)^0,w,c
  3702  001860  120E               	iorwf	(___xxtofl@arg+2)^0,f,c
  3703  001862  5009               	movf	(??___xxtofl+3)^0,w,c
  3704  001864  120F               	iorwf	(___xxtofl@arg+3)^0,f,c
  3705  001866  500A               	movf	___xxtofl@sign^0,w,c
  3706  001868  B4D8               	btfsc	status,2,c
  3707  00186A  EF39  F00C         	goto	u1991
  3708  00186E  EF3B  F00C         	goto	u1990
  3709  001872                     u1991:
  3710  001872  EF43  F00C         	goto	l2048
  3711  001876                     u1990:
  3712  001876  BE05               	btfsc	(___xxtofl@val+3)^0,7,c
  3713  001878  EF42  F00C         	goto	u2000
  3714  00187C  EF40  F00C         	goto	u2001
  3715  001880                     u2001:
  3716  001880  EF43  F00C         	goto	l2048
  3717  001884                     u2000:
  3718  001884  8E0F               	bsf	(___xxtofl@arg+3)^0,7,c
  3719  001886                     l2048:
  3720  001886  C00C  F002         	movff	___xxtofl@arg,?___xxtofl
  3721  00188A  C00D  F003         	movff	___xxtofl@arg+1,?___xxtofl+1
  3722  00188E  C00E  F004         	movff	___xxtofl@arg+2,?___xxtofl+2
  3723  001892  C00F  F005         	movff	___xxtofl@arg+3,?___xxtofl+3
  3724  001896                     l837:
  3725  001896  0012               	return		;funcret
  3726  001898                     __end_of___xxtofl:
  3727                           	callstack 0
  3728                           
  3729 ;; *************** function ___fladd *****************
  3730 ;; Defined at:
  3731 ;;		line 10 in file "C:\Program Files\Microchip\xc8\v2.30\pic\sources\c99\common\sprcadd.c"
  3732 ;; Parameters:    Size  Location     Type
  3733 ;;  b               4   26[COMRAM] unsigned char 
  3734 ;;  a               4   30[COMRAM] unsigned char 
  3735 ;; Auto vars:     Size  Location     Type
  3736 ;;  grs             1   41[COMRAM] unsigned char 
  3737 ;;  bexp            1   40[COMRAM] unsigned char 
  3738 ;;  aexp            1   39[COMRAM] unsigned char 
  3739 ;;  signs           1   38[COMRAM] unsigned char 
  3740 ;; Return value:  Size  Location     Type
  3741 ;;                  4   26[COMRAM] unsigned char 
  3742 ;; Registers used:
  3743 ;;		wreg, status,2, status,0
  3744 ;; Tracked objects:
  3745 ;;		On entry : 0/0
  3746 ;;		On exit  : 0/0
  3747 ;;		Unchanged: 0/0
  3748 ;; Data sizes:     COMRAM   BANK0   BANK1   BANK2   BANK3   BANK4   BANK5
  3749 ;;      Params:         8       0       0       0       0       0       0
  3750 ;;      Locals:         4       0       0       0       0       0       0
  3751 ;;      Temps:          4       0       0       0       0       0       0
  3752 ;;      Totals:        16       0       0       0       0       0       0
  3753 ;;Total ram usage:       16 bytes
  3754 ;; Hardware stack levels used:    1
  3755 ;; Hardware stack levels required when called:    2
  3756 ;; This function calls:
  3757 ;;		Nothing
  3758 ;; This function is called by:
  3759 ;;		_main
  3760 ;;		_ADCRead_Pos
  3761 ;;		___flsub
  3762 ;; This function uses a non-reentrant model
  3763 ;;
  3764                           
  3765                           	psect	text19
  3766  000606                     __ptext19:
  3767                           	callstack 0
  3768  000606                     ___fladd:
  3769                           	callstack 27
  3770  000606  501E               	movf	(___fladd@b+3)^0,w,c
  3771  000608  0B80               	andlw	128
  3772  00060A  6E27               	movwf	___fladd@signs^0,c
  3773  00060C  501E               	movf	(___fladd@b+3)^0,w,c
  3774  00060E  241E               	addwf	(___fladd@b+3)^0,w,c
  3775  000610  6E29               	movwf	___fladd@bexp^0,c
  3776  000612  AE1D               	btfss	(___fladd@b+2)^0,7,c
  3777  000614  EF0E  F003         	goto	u1401
  3778  000618  EF10  F003         	goto	u1400
  3779  00061C                     u1401:
  3780  00061C  EF11  F003         	goto	l1744
  3781  000620                     u1400:
  3782  000620  8029               	bsf	___fladd@bexp^0,0,c
  3783  000622                     l1744:
  3784  000622  5029               	movf	___fladd@bexp^0,w,c
  3785  000624  B4D8               	btfsc	status,2,c
  3786  000626  EF17  F003         	goto	u1411
  3787  00062A  EF19  F003         	goto	u1410
  3788  00062E                     u1411:
  3789  00062E  EF2E  F003         	goto	l1754
  3790  000632                     u1410:
  3791  000632  2829               	incf	___fladd@bexp^0,w,c
  3792  000634  A4D8               	btfss	status,2,c
  3793  000636  EF1F  F003         	goto	u1421
  3794  00063A  EF21  F003         	goto	u1420
  3795  00063E                     u1421:
  3796  00063E  EF29  F003         	goto	l1750
  3797  000642                     u1420:
  3798  000642  0E00               	movlw	0
  3799  000644  6E1B               	movwf	___fladd@b^0,c
  3800  000646  0E00               	movlw	0
  3801  000648  6E1C               	movwf	(___fladd@b+1)^0,c
  3802  00064A  0E00               	movlw	0
  3803  00064C  6E1D               	movwf	(___fladd@b+2)^0,c
  3804  00064E  0E00               	movlw	0
  3805  000650  6E1E               	movwf	(___fladd@b+3)^0,c
  3806  000652                     l1750:
  3807  000652  8E1D               	bsf	(___fladd@b+2)^0,7,c
  3808  000654  0E00               	movlw	0
  3809  000656  6E1E               	movwf	(___fladd@b+3)^0,c
  3810  000658  EF36  F003         	goto	l1756
  3811  00065C                     l1754:
  3812  00065C  0E00               	movlw	0
  3813  00065E  6E1B               	movwf	___fladd@b^0,c
  3814  000660  0E00               	movlw	0
  3815  000662  6E1C               	movwf	(___fladd@b+1)^0,c
  3816  000664  0E00               	movlw	0
  3817  000666  6E1D               	movwf	(___fladd@b+2)^0,c
  3818  000668  0E00               	movlw	0
  3819  00066A  6E1E               	movwf	(___fladd@b+3)^0,c
  3820  00066C                     l1756:
  3821  00066C  5022               	movf	(___fladd@a+3)^0,w,c
  3822  00066E  0B80               	andlw	128
  3823  000670  6E28               	movwf	___fladd@aexp^0,c
  3824  000672  5027               	movf	___fladd@signs^0,w,c
  3825  000674  1828               	xorwf	___fladd@aexp^0,w,c
  3826  000676  B4D8               	btfsc	status,2,c
  3827  000678  EF40  F003         	goto	u1431
  3828  00067C  EF42  F003         	goto	u1430
  3829  000680                     u1431:
  3830  000680  EF43  F003         	goto	l1762
  3831  000684                     u1430:
  3832  000684  8C27               	bsf	___fladd@signs^0,6,c
  3833  000686                     l1762:
  3834  000686  5022               	movf	(___fladd@a+3)^0,w,c
  3835  000688  2422               	addwf	(___fladd@a+3)^0,w,c
  3836  00068A  6E28               	movwf	___fladd@aexp^0,c
  3837  00068C  AE21               	btfss	(___fladd@a+2)^0,7,c
  3838  00068E  EF4B  F003         	goto	u1441
  3839  000692  EF4D  F003         	goto	u1440
  3840  000696                     u1441:
  3841  000696  EF4E  F003         	goto	l1768
  3842  00069A                     u1440:
  3843  00069A  8028               	bsf	___fladd@aexp^0,0,c
  3844  00069C                     l1768:
  3845  00069C  5028               	movf	___fladd@aexp^0,w,c
  3846  00069E  B4D8               	btfsc	status,2,c
  3847  0006A0  EF54  F003         	goto	u1451
  3848  0006A4  EF56  F003         	goto	u1450
  3849  0006A8                     u1451:
  3850  0006A8  EF6B  F003         	goto	l1778
  3851  0006AC                     u1450:
  3852  0006AC  2828               	incf	___fladd@aexp^0,w,c
  3853  0006AE  A4D8               	btfss	status,2,c
  3854  0006B0  EF5C  F003         	goto	u1461
  3855  0006B4  EF5E  F003         	goto	u1460
  3856  0006B8                     u1461:
  3857  0006B8  EF66  F003         	goto	l1774
  3858  0006BC                     u1460:
  3859  0006BC  0E00               	movlw	0
  3860  0006BE  6E1F               	movwf	___fladd@a^0,c
  3861  0006C0  0E00               	movlw	0
  3862  0006C2  6E20               	movwf	(___fladd@a+1)^0,c
  3863  0006C4  0E00               	movlw	0
  3864  0006C6  6E21               	movwf	(___fladd@a+2)^0,c
  3865  0006C8  0E00               	movlw	0
  3866  0006CA  6E22               	movwf	(___fladd@a+3)^0,c
  3867  0006CC                     l1774:
  3868  0006CC  8E21               	bsf	(___fladd@a+2)^0,7,c
  3869  0006CE  0E00               	movlw	0
  3870  0006D0  6E22               	movwf	(___fladd@a+3)^0,c
  3871  0006D2  EF73  F003         	goto	l1780
  3872  0006D6                     l1778:
  3873  0006D6  0E00               	movlw	0
  3874  0006D8  6E1F               	movwf	___fladd@a^0,c
  3875  0006DA  0E00               	movlw	0
  3876  0006DC  6E20               	movwf	(___fladd@a+1)^0,c
  3877  0006DE  0E00               	movlw	0
  3878  0006E0  6E21               	movwf	(___fladd@a+2)^0,c
  3879  0006E2  0E00               	movlw	0
  3880  0006E4  6E22               	movwf	(___fladd@a+3)^0,c
  3881  0006E6                     l1780:
  3882  0006E6  5029               	movf	___fladd@bexp^0,w,c
  3883  0006E8  5C28               	subwf	___fladd@aexp^0,w,c
  3884  0006EA  B0D8               	btfsc	status,0,c
  3885  0006EC  EF7A  F003         	goto	u1471
  3886  0006F0  EF7C  F003         	goto	u1470
  3887  0006F4                     u1471:
  3888  0006F4  EFA3  F003         	goto	l1816
  3889  0006F8                     u1470:
  3890  0006F8  AC27               	btfss	___fladd@signs^0,6,c
  3891  0006FA  EF81  F003         	goto	u1481
  3892  0006FE  EF83  F003         	goto	u1480
  3893  000702                     u1481:
  3894  000702  EF85  F003         	goto	l1786
  3895  000706                     u1480:
  3896  000706  0E80               	movlw	128
  3897  000708  1A27               	xorwf	___fladd@signs^0,f,c
  3898  00070A                     l1786:
  3899  00070A  C029  F02A         	movff	___fladd@bexp,___fladd@grs
  3900  00070E  C028  F029         	movff	___fladd@aexp,___fladd@bexp
  3901  000712  C02A  F028         	movff	___fladd@grs,___fladd@aexp
  3902  000716  C01B  F02A         	movff	___fladd@b,___fladd@grs
  3903  00071A  C01F  F01B         	movff	___fladd@a,___fladd@b
  3904  00071E  C02A  F01F         	movff	___fladd@grs,___fladd@a
  3905  000722  C01C  F02A         	movff	___fladd@b+1,___fladd@grs
  3906  000726  C020  F01C         	movff	___fladd@a+1,___fladd@b+1
  3907  00072A  C02A  F020         	movff	___fladd@grs,___fladd@a+1
  3908  00072E  C01D  F02A         	movff	___fladd@b+2,___fladd@grs
  3909  000732  C021  F01D         	movff	___fladd@a+2,___fladd@b+2
  3910  000736  C02A  F021         	movff	___fladd@grs,___fladd@a+2
  3911  00073A  C01E  F02A         	movff	___fladd@b+3,___fladd@grs
  3912  00073E  C022  F01E         	movff	___fladd@a+3,___fladd@b+3
  3913  000742  C02A  F022         	movff	___fladd@grs,___fladd@a+3
  3914  000746                     l1816:
  3915  000746  0E00               	movlw	0
  3916  000748  6E2A               	movwf	___fladd@grs^0,c
  3917  00074A  5029               	movf	___fladd@bexp^0,w,c
  3918  00074C  C028  F023         	movff	___fladd@aexp,??___fladd
  3919  000750  6A24               	clrf	(??___fladd+1)^0,c
  3920  000752  5E23               	subwf	??___fladd^0,f,c
  3921  000754  0E00               	movlw	0
  3922  000756  5A24               	subwfb	(??___fladd+1)^0,f,c
  3923  000758  BE24               	btfsc	(??___fladd+1)^0,7,c
  3924  00075A  EFB8  F003         	goto	u1491
  3925  00075E  5024               	movf	(??___fladd+1)^0,w,c
  3926  000760  E109               	bnz	u1490
  3927  000762  0E1A               	movlw	26
  3928  000764  5C23               	subwf	??___fladd^0,w,c
  3929  000766  A0D8               	btfss	status,0,c
  3930  000768  EFB8  F003         	goto	u1491
  3931  00076C  EFBA  F003         	goto	u1490
  3932  000770                     u1491:
  3933  000770  EFF1  F003         	goto	l708
  3934  000774                     u1490:
  3935  000774  501B               	movf	___fladd@b^0,w,c
  3936  000776  101C               	iorwf	(___fladd@b+1)^0,w,c
  3937  000778  101D               	iorwf	(___fladd@b+2)^0,w,c
  3938  00077A  101E               	iorwf	(___fladd@b+3)^0,w,c
  3939  00077C  A4D8               	btfss	status,2,c
  3940  00077E  EFC3  F003         	goto	u1501
  3941  000782  EFC6  F003         	goto	u1500
  3942  000786                     u1501:
  3943  000786  0E01               	movlw	1
  3944  000788  EFC7  F003         	goto	u1510
  3945  00078C                     u1500:
  3946  00078C  0E00               	movlw	0
  3947  00078E                     u1510:
  3948  00078E  6E2A               	movwf	___fladd@grs^0,c
  3949  000790  0E00               	movlw	0
  3950  000792  6E1B               	movwf	___fladd@b^0,c
  3951  000794  0E00               	movlw	0
  3952  000796  6E1C               	movwf	(___fladd@b+1)^0,c
  3953  000798  0E00               	movlw	0
  3954  00079A  6E1D               	movwf	(___fladd@b+2)^0,c
  3955  00079C  0E00               	movlw	0
  3956  00079E  6E1E               	movwf	(___fladd@b+3)^0,c
  3957  0007A0  C028  F029         	movff	___fladd@aexp,___fladd@bexp
  3958  0007A4  EFFA  F003         	goto	l707
  3959  0007A8                     l709:
  3960  0007A8  A02A               	btfss	___fladd@grs^0,0,c
  3961  0007AA  EFD9  F003         	goto	u1521
  3962  0007AE  EFDB  F003         	goto	u1520
  3963  0007B2                     u1521:
  3964  0007B2  EFE1  F003         	goto	l1828
  3965  0007B6                     u1520:
  3966  0007B6  90D8               	bcf	status,0,c
  3967  0007B8  302A               	rrcf	___fladd@grs^0,w,c
  3968  0007BA  0901               	iorlw	1
  3969  0007BC  6E2A               	movwf	___fladd@grs^0,c
  3970  0007BE  EFE3  F003         	goto	l1830
  3971  0007C2                     l1828:
  3972  0007C2  90D8               	bcf	status,0,c
  3973  0007C4  322A               	rrcf	___fladd@grs^0,f,c
  3974  0007C6                     l1830:
  3975  0007C6  A01B               	btfss	___fladd@b^0,0,c
  3976  0007C8  EFE8  F003         	goto	u1531
  3977  0007CC  EFEA  F003         	goto	u1530
  3978  0007D0                     u1531:
  3979  0007D0  EFEB  F003         	goto	l1834
  3980  0007D4                     u1530:
  3981  0007D4  8E2A               	bsf	___fladd@grs^0,7,c
  3982  0007D6                     l1834:
  3983  0007D6  341E               	rlcf	(___fladd@b+3)^0,w,c
  3984  0007D8  321E               	rrcf	(___fladd@b+3)^0,f,c
  3985  0007DA  321D               	rrcf	(___fladd@b+2)^0,f,c
  3986  0007DC  321C               	rrcf	(___fladd@b+1)^0,f,c
  3987  0007DE  321B               	rrcf	___fladd@b^0,f,c
  3988  0007E0  2A29               	incf	___fladd@bexp^0,f,c
  3989  0007E2                     l708:
  3990  0007E2  5028               	movf	___fladd@aexp^0,w,c
  3991  0007E4  5C29               	subwf	___fladd@bexp^0,w,c
  3992  0007E6  A0D8               	btfss	status,0,c
  3993  0007E8  EFF8  F003         	goto	u1541
  3994  0007EC  EFFA  F003         	goto	u1540
  3995  0007F0                     u1541:
  3996  0007F0  EFD4  F003         	goto	l709
  3997  0007F4                     u1540:
  3998  0007F4                     l707:
  3999  0007F4  BC27               	btfsc	___fladd@signs^0,6,c
  4000  0007F6  EFFF  F003         	goto	u1551
  4001  0007FA  EF01  F004         	goto	u1550
  4002  0007FE                     u1551:
  4003  0007FE  EF41  F004         	goto	l1862
  4004  000802                     u1550:
  4005  000802  5029               	movf	___fladd@bexp^0,w,c
  4006  000804  A4D8               	btfss	status,2,c
  4007  000806  EF07  F004         	goto	u1561
  4008  00080A  EF09  F004         	goto	u1560
  4009  00080E                     u1561:
  4010  00080E  EF13  F004         	goto	l1844
  4011  000812                     u1560:
  4012  000812  0E00               	movlw	0
  4013  000814  6E1B               	movwf	?___fladd^0,c
  4014  000816  0E00               	movlw	0
  4015  000818  6E1C               	movwf	(?___fladd+1)^0,c
  4016  00081A  0E00               	movlw	0
  4017  00081C  6E1D               	movwf	(?___fladd+2)^0,c
  4018  00081E  0E00               	movlw	0
  4019  000820  6E1E               	movwf	(?___fladd+3)^0,c
  4020  000822  EF62  F005         	goto	l716
  4021  000826                     l1844:
  4022  000826  501F               	movf	___fladd@a^0,w,c
  4023  000828  261B               	addwf	___fladd@b^0,f,c
  4024  00082A  5020               	movf	(___fladd@a+1)^0,w,c
  4025  00082C  221C               	addwfc	(___fladd@b+1)^0,f,c
  4026  00082E  5021               	movf	(___fladd@a+2)^0,w,c
  4027  000830  221D               	addwfc	(___fladd@b+2)^0,f,c
  4028  000832  5022               	movf	(___fladd@a+3)^0,w,c
  4029  000834  221E               	addwfc	(___fladd@b+3)^0,f,c
  4030  000836  A01E               	btfss	(___fladd@b+3)^0,0,c
  4031  000838  EF20  F004         	goto	u1571
  4032  00083C  EF22  F004         	goto	u1570
  4033  000840                     u1571:
  4034  000840  EFCE  F004         	goto	l1898
  4035  000844                     u1570:
  4036  000844  A02A               	btfss	___fladd@grs^0,0,c
  4037  000846  EF27  F004         	goto	u1581
  4038  00084A  EF29  F004         	goto	u1580
  4039  00084E                     u1581:
  4040  00084E  EF2F  F004         	goto	l1852
  4041  000852                     u1580:
  4042  000852  90D8               	bcf	status,0,c
  4043  000854  302A               	rrcf	___fladd@grs^0,w,c
  4044  000856  0901               	iorlw	1
  4045  000858  6E2A               	movwf	___fladd@grs^0,c
  4046  00085A  EF31  F004         	goto	l1854
  4047  00085E                     l1852:
  4048  00085E  90D8               	bcf	status,0,c
  4049  000860  322A               	rrcf	___fladd@grs^0,f,c
  4050  000862                     l1854:
  4051  000862  A01B               	btfss	___fladd@b^0,0,c
  4052  000864  EF36  F004         	goto	u1591
  4053  000868  EF38  F004         	goto	u1590
  4054  00086C                     u1591:
  4055  00086C  EF39  F004         	goto	l1858
  4056  000870                     u1590:
  4057  000870  8E2A               	bsf	___fladd@grs^0,7,c
  4058  000872                     l1858:
  4059  000872  341E               	rlcf	(___fladd@b+3)^0,w,c
  4060  000874  321E               	rrcf	(___fladd@b+3)^0,f,c
  4061  000876  321D               	rrcf	(___fladd@b+2)^0,f,c
  4062  000878  321C               	rrcf	(___fladd@b+1)^0,f,c
  4063  00087A  321B               	rrcf	___fladd@b^0,f,c
  4064  00087C  2A29               	incf	___fladd@bexp^0,f,c
  4065  00087E  EFCE  F004         	goto	l1898
  4066  000882                     l1862:
  4067  000882  501F               	movf	___fladd@a^0,w,c
  4068  000884  5C1B               	subwf	___fladd@b^0,w,c
  4069  000886  5020               	movf	(___fladd@a+1)^0,w,c
  4070  000888  581C               	subwfb	(___fladd@b+1)^0,w,c
  4071  00088A  5021               	movf	(___fladd@a+2)^0,w,c
  4072  00088C  581D               	subwfb	(___fladd@b+2)^0,w,c
  4073  00088E  501E               	movf	(___fladd@b+3)^0,w,c
  4074  000890  0A80               	xorlw	128
  4075  000892  6E23               	movwf	??___fladd^0,c
  4076  000894  5022               	movf	(___fladd@a+3)^0,w,c
  4077  000896  0A80               	xorlw	128
  4078  000898  5823               	subwfb	??___fladd^0,w,c
  4079  00089A  B0D8               	btfsc	status,0,c
  4080  00089C  EF52  F004         	goto	u1601
  4081  0008A0  EF54  F004         	goto	u1600
  4082  0008A4                     u1601:
  4083  0008A4  EF7F  F004         	goto	l1872
  4084  0008A8                     u1600:
  4085  0008A8  501B               	movf	___fladd@b^0,w,c
  4086  0008AA  5C1F               	subwf	___fladd@a^0,w,c
  4087  0008AC  6E23               	movwf	??___fladd^0,c
  4088  0008AE  501C               	movf	(___fladd@b+1)^0,w,c
  4089  0008B0  5820               	subwfb	(___fladd@a+1)^0,w,c
  4090  0008B2  6E24               	movwf	(??___fladd+1)^0,c
  4091  0008B4  501D               	movf	(___fladd@b+2)^0,w,c
  4092  0008B6  5821               	subwfb	(___fladd@a+2)^0,w,c
  4093  0008B8  6E25               	movwf	(??___fladd+2)^0,c
  4094  0008BA  501E               	movf	(___fladd@b+3)^0,w,c
  4095  0008BC  5822               	subwfb	(___fladd@a+3)^0,w,c
  4096  0008BE  6E26               	movwf	(??___fladd+3)^0,c
  4097  0008C0  0EFF               	movlw	255
  4098  0008C2  2423               	addwf	??___fladd^0,w,c
  4099  0008C4  6E1B               	movwf	___fladd@b^0,c
  4100  0008C6  0EFF               	movlw	255
  4101  0008C8  2024               	addwfc	(??___fladd+1)^0,w,c
  4102  0008CA  6E1C               	movwf	(___fladd@b+1)^0,c
  4103  0008CC  0EFF               	movlw	255
  4104  0008CE  2025               	addwfc	(??___fladd+2)^0,w,c
  4105  0008D0  6E1D               	movwf	(___fladd@b+2)^0,c
  4106  0008D2  0EFF               	movlw	255
  4107  0008D4  2026               	addwfc	(??___fladd+3)^0,w,c
  4108  0008D6  6E1E               	movwf	(___fladd@b+3)^0,c
  4109  0008D8  0E80               	movlw	128
  4110  0008DA  1A27               	xorwf	___fladd@signs^0,f,c
  4111  0008DC  6C2A               	negf	___fladd@grs^0,c
  4112  0008DE  502A               	movf	___fladd@grs^0,w,c
  4113  0008E0  A4D8               	btfss	status,2,c
  4114  0008E2  EF75  F004         	goto	u1611
  4115  0008E6  EF77  F004         	goto	u1610
  4116  0008EA                     u1611:
  4117  0008EA  EF87  F004         	goto	l724
  4118  0008EE                     u1610:
  4119  0008EE  0E01               	movlw	1
  4120  0008F0  261B               	addwf	___fladd@b^0,f,c
  4121  0008F2  0E00               	movlw	0
  4122  0008F4  221C               	addwfc	(___fladd@b+1)^0,f,c
  4123  0008F6  221D               	addwfc	(___fladd@b+2)^0,f,c
  4124  0008F8  221E               	addwfc	(___fladd@b+3)^0,f,c
  4125  0008FA  EF87  F004         	goto	l724
  4126  0008FE                     l1872:
  4127  0008FE  501F               	movf	___fladd@a^0,w,c
  4128  000900  5E1B               	subwf	___fladd@b^0,f,c
  4129  000902  5020               	movf	(___fladd@a+1)^0,w,c
  4130  000904  5A1C               	subwfb	(___fladd@b+1)^0,f,c
  4131  000906  5021               	movf	(___fladd@a+2)^0,w,c
  4132  000908  5A1D               	subwfb	(___fladd@b+2)^0,f,c
  4133  00090A  5022               	movf	(___fladd@a+3)^0,w,c
  4134  00090C  5A1E               	subwfb	(___fladd@b+3)^0,f,c
  4135  00090E                     l724:
  4136  00090E  501B               	movf	___fladd@b^0,w,c
  4137  000910  101C               	iorwf	(___fladd@b+1)^0,w,c
  4138  000912  101D               	iorwf	(___fladd@b+2)^0,w,c
  4139  000914  101E               	iorwf	(___fladd@b+3)^0,w,c
  4140  000916  A4D8               	btfss	status,2,c
  4141  000918  EF90  F004         	goto	u1621
  4142  00091C  EF92  F004         	goto	u1620
  4143  000920                     u1621:
  4144  000920  EFC7  F004         	goto	l1896
  4145  000924                     u1620:
  4146  000924  502A               	movf	___fladd@grs^0,w,c
  4147  000926  A4D8               	btfss	status,2,c
  4148  000928  EF98  F004         	goto	u1631
  4149  00092C  EF9A  F004         	goto	u1630
  4150  000930                     u1631:
  4151  000930  EFC7  F004         	goto	l1896
  4152  000934                     u1630:
  4153  000934  0E00               	movlw	0
  4154  000936  6E1B               	movwf	?___fladd^0,c
  4155  000938  0E00               	movlw	0
  4156  00093A  6E1C               	movwf	(?___fladd+1)^0,c
  4157  00093C  0E00               	movlw	0
  4158  00093E  6E1D               	movwf	(?___fladd+2)^0,c
  4159  000940  0E00               	movlw	0
  4160  000942  6E1E               	movwf	(?___fladd+3)^0,c
  4161  000944  EF62  F005         	goto	l716
  4162  000948                     l1880:
  4163  000948  90D8               	bcf	status,0,c
  4164  00094A  361B               	rlcf	___fladd@b^0,f,c
  4165  00094C  361C               	rlcf	(___fladd@b+1)^0,f,c
  4166  00094E  361D               	rlcf	(___fladd@b+2)^0,f,c
  4167  000950  361E               	rlcf	(___fladd@b+3)^0,f,c
  4168  000952  AE2A               	btfss	___fladd@grs^0,7,c
  4169  000954  EFAE  F004         	goto	u1641
  4170  000958  EFB0  F004         	goto	u1640
  4171  00095C                     u1641:
  4172  00095C  EFB1  F004         	goto	l1886
  4173  000960                     u1640:
  4174  000960  801B               	bsf	___fladd@b^0,0,c
  4175  000962                     l1886:
  4176  000962  A02A               	btfss	___fladd@grs^0,0,c
  4177  000964  EFB6  F004         	goto	u1651
  4178  000968  EFB8  F004         	goto	u1650
  4179  00096C                     u1651:
  4180  00096C  EFBC  F004         	goto	l1890
  4181  000970                     u1650:
  4182  000970  80D8               	bsf	status,0,c
  4183  000972  362A               	rlcf	___fladd@grs^0,f,c
  4184  000974  EFBE  F004         	goto	l1892
  4185  000978                     l1890:
  4186  000978  90D8               	bcf	status,0,c
  4187  00097A  362A               	rlcf	___fladd@grs^0,f,c
  4188  00097C                     l1892:
  4189  00097C  5029               	movf	___fladd@bexp^0,w,c
  4190  00097E  B4D8               	btfsc	status,2,c
  4191  000980  EFC4  F004         	goto	u1661
  4192  000984  EFC6  F004         	goto	u1660
  4193  000988                     u1661:
  4194  000988  EFC7  F004         	goto	l1896
  4195  00098C                     u1660:
  4196  00098C  0629               	decf	___fladd@bexp^0,f,c
  4197  00098E                     l1896:
  4198  00098E  AE1D               	btfss	(___fladd@b+2)^0,7,c
  4199  000990  EFCC  F004         	goto	u1671
  4200  000994  EFCE  F004         	goto	u1670
  4201  000998                     u1671:
  4202  000998  EFA4  F004         	goto	l1880
  4203  00099C                     u1670:
  4204  00099C                     l1898:
  4205  00099C  0E00               	movlw	0
  4206  00099E  6E28               	movwf	___fladd@aexp^0,c
  4207  0009A0  AE2A               	btfss	___fladd@grs^0,7,c
  4208  0009A2  EFD5  F004         	goto	u1681
  4209  0009A6  EFD7  F004         	goto	u1680
  4210  0009AA                     u1681:
  4211  0009AA  EFEF  F004         	goto	l733
  4212  0009AE                     u1680:
  4213  0009AE  C02A  F023         	movff	___fladd@grs,??___fladd
  4214  0009B2  0E7F               	movlw	127
  4215  0009B4  1623               	andwf	??___fladd^0,f,c
  4216  0009B6  B4D8               	btfsc	status,2,c
  4217  0009B8  EFE0  F004         	goto	u1691
  4218  0009BC  EFE2  F004         	goto	u1690
  4219  0009C0                     u1691:
  4220  0009C0  EFE6  F004         	goto	l734
  4221  0009C4                     u1690:
  4222  0009C4                     l1904:
  4223  0009C4  0E01               	movlw	1
  4224  0009C6  6E28               	movwf	___fladd@aexp^0,c
  4225  0009C8  EFEF  F004         	goto	l733
  4226  0009CC                     l734:
  4227  0009CC  A01B               	btfss	___fladd@b^0,0,c
  4228  0009CE  EFEB  F004         	goto	u1701
  4229  0009D2  EFED  F004         	goto	u1700
  4230  0009D6                     u1701:
  4231  0009D6  EFEF  F004         	goto	l733
  4232  0009DA                     u1700:
  4233  0009DA  EFE2  F004         	goto	l1904
  4234  0009DE                     l733:
  4235  0009DE  5028               	movf	___fladd@aexp^0,w,c
  4236  0009E0  B4D8               	btfsc	status,2,c
  4237  0009E2  EFF5  F004         	goto	u1711
  4238  0009E6  EFF7  F004         	goto	u1710
  4239  0009EA                     u1711:
  4240  0009EA  EF22  F005         	goto	l1916
  4241  0009EE                     u1710:
  4242  0009EE  0E01               	movlw	1
  4243  0009F0  261B               	addwf	___fladd@b^0,f,c
  4244  0009F2  0E00               	movlw	0
  4245  0009F4  221C               	addwfc	(___fladd@b+1)^0,f,c
  4246  0009F6  221D               	addwfc	(___fladd@b+2)^0,f,c
  4247  0009F8  221E               	addwfc	(___fladd@b+3)^0,f,c
  4248  0009FA  A01E               	btfss	(___fladd@b+3)^0,0,c
  4249  0009FC  EF02  F005         	goto	u1721
  4250  000A00  EF04  F005         	goto	u1720
  4251  000A04                     u1721:
  4252  000A04  EF22  F005         	goto	l1916
  4253  000A08                     u1720:
  4254  000A08  C01B  F023         	movff	___fladd@b,??___fladd
  4255  000A0C  C01C  F024         	movff	___fladd@b+1,??___fladd+1
  4256  000A10  C01D  F025         	movff	___fladd@b+2,??___fladd+2
  4257  000A14  C01E  F026         	movff	___fladd@b+3,??___fladd+3
  4258  000A18  3426               	rlcf	(??___fladd+3)^0,w,c
  4259  000A1A  3226               	rrcf	(??___fladd+3)^0,f,c
  4260  000A1C  3225               	rrcf	(??___fladd+2)^0,f,c
  4261  000A1E  3224               	rrcf	(??___fladd+1)^0,f,c
  4262  000A20  3223               	rrcf	??___fladd^0,f,c
  4263  000A22  C023  F01B         	movff	??___fladd,___fladd@b
  4264  000A26  C024  F01C         	movff	??___fladd+1,___fladd@b+1
  4265  000A2A  C025  F01D         	movff	??___fladd+2,___fladd@b+2
  4266  000A2E  C026  F01E         	movff	??___fladd+3,___fladd@b+3
  4267  000A32  2829               	incf	___fladd@bexp^0,w,c
  4268  000A34  B4D8               	btfsc	status,2,c
  4269  000A36  EF1F  F005         	goto	u1731
  4270  000A3A  EF21  F005         	goto	u1730
  4271  000A3E                     u1731:
  4272  000A3E  EF22  F005         	goto	l1916
  4273  000A42                     u1730:
  4274  000A42  2A29               	incf	___fladd@bexp^0,f,c
  4275  000A44                     l1916:
  4276  000A44  2829               	incf	___fladd@bexp^0,w,c
  4277  000A46  B4D8               	btfsc	status,2,c
  4278  000A48  EF28  F005         	goto	u1741
  4279  000A4C  EF2A  F005         	goto	u1740
  4280  000A50                     u1741:
  4281  000A50  EF32  F005         	goto	l1920
  4282  000A54                     u1740:
  4283  000A54  5029               	movf	___fladd@bexp^0,w,c
  4284  000A56  A4D8               	btfss	status,2,c
  4285  000A58  EF30  F005         	goto	u1751
  4286  000A5C  EF32  F005         	goto	u1750
  4287  000A60                     u1751:
  4288  000A60  EF44  F005         	goto	l1924
  4289  000A64                     u1750:
  4290  000A64                     l1920:
  4291  000A64  0E00               	movlw	0
  4292  000A66  6E1B               	movwf	___fladd@b^0,c
  4293  000A68  0E00               	movlw	0
  4294  000A6A  6E1C               	movwf	(___fladd@b+1)^0,c
  4295  000A6C  0E00               	movlw	0
  4296  000A6E  6E1D               	movwf	(___fladd@b+2)^0,c
  4297  000A70  0E00               	movlw	0
  4298  000A72  6E1E               	movwf	(___fladd@b+3)^0,c
  4299  000A74  5029               	movf	___fladd@bexp^0,w,c
  4300  000A76  A4D8               	btfss	status,2,c
  4301  000A78  EF40  F005         	goto	u1761
  4302  000A7C  EF42  F005         	goto	u1760
  4303  000A80                     u1761:
  4304  000A80  EF44  F005         	goto	l1924
  4305  000A84                     u1760:
  4306  000A84  0E00               	movlw	0
  4307  000A86  6E27               	movwf	___fladd@signs^0,c
  4308  000A88                     l1924:
  4309  000A88  A029               	btfss	___fladd@bexp^0,0,c
  4310  000A8A  EF49  F005         	goto	u1771
  4311  000A8E  EF4B  F005         	goto	u1770
  4312  000A92                     u1771:
  4313  000A92  EF4E  F005         	goto	l1928
  4314  000A96                     u1770:
  4315  000A96  8E1D               	bsf	(___fladd@b+2)^0,7,c
  4316  000A98  EF4F  F005         	goto	l1930
  4317  000A9C                     l1928:
  4318  000A9C  9E1D               	bcf	(___fladd@b+2)^0,7,c
  4319  000A9E                     l1930:
  4320  000A9E  90D8               	bcf	status,0,c
  4321  000AA0  3029               	rrcf	___fladd@bexp^0,w,c
  4322  000AA2  6E1E               	movwf	(___fladd@b+3)^0,c
  4323  000AA4  AE27               	btfss	___fladd@signs^0,7,c
  4324  000AA6  EF57  F005         	goto	u1781
  4325  000AAA  EF59  F005         	goto	u1780
  4326  000AAE                     u1781:
  4327  000AAE  EF5A  F005         	goto	l1936
  4328  000AB2                     u1780:
  4329  000AB2  8E1E               	bsf	(___fladd@b+3)^0,7,c
  4330  000AB4                     l1936:
  4331  000AB4  C01B  F01B         	movff	___fladd@b,?___fladd
  4332  000AB8  C01C  F01C         	movff	___fladd@b+1,?___fladd+1
  4333  000ABC  C01D  F01D         	movff	___fladd@b+2,?___fladd+2
  4334  000AC0  C01E  F01E         	movff	___fladd@b+3,?___fladd+3
  4335  000AC4                     l716:
  4336  000AC4  0012               	return		;funcret
  4337  000AC6                     __end_of___fladd:
  4338                           	callstack 0
  4339                           
  4340 ;; *************** function _low_isr *****************
  4341 ;; Defined at:
  4342 ;;		line 80 in file "interrupts.c"
  4343 ;; Parameters:    Size  Location     Type
  4344 ;;		None
  4345 ;; Auto vars:     Size  Location     Type
  4346 ;;		None
  4347 ;; Return value:  Size  Location     Type
  4348 ;;                  1    wreg      void 
  4349 ;; Registers used:
  4350 ;;		None
  4351 ;; Tracked objects:
  4352 ;;		On entry : 0/0
  4353 ;;		On exit  : 0/0
  4354 ;;		Unchanged: 0/0
  4355 ;; Data sizes:     COMRAM   BANK0   BANK1   BANK2   BANK3   BANK4   BANK5
  4356 ;;      Params:         0       0       0       0       0       0       0
  4357 ;;      Locals:         0       0       0       0       0       0       0
  4358 ;;      Temps:          1       0       0       0       0       0       0
  4359 ;;      Totals:         1       0       0       0       0       0       0
  4360 ;;Total ram usage:        1 bytes
  4361 ;; Hardware stack levels used:    1
  4362 ;; Hardware stack levels required when called:    1
  4363 ;; This function calls:
  4364 ;;		Nothing
  4365 ;; This function is called by:
  4366 ;;		Interrupt level 1
  4367 ;; This function uses a non-reentrant model
  4368 ;;
  4369                           
  4370                           	psect	intcodelo
  4371  000018                     __pintcodelo:
  4372                           	callstack 0
  4373  000018                     _low_isr:
  4374                           	callstack 27
  4375                           
  4376                           ;incstack = 0
  4377  000018  804D               	bsf	int$flags,0,c	;set compiler interrupt flag (level 1)
  4378  00001A  CFE0 F001          	movff	bsr,??_low_isr
  4379  00001E  C001  FFE0         	movff	??_low_isr,bsr
  4380  000022  904D               	bcf	int$flags,0,c	;clear compiler interrupt flag (level 1)
  4381  000024  0010               	retfie	
  4382  000026                     __end_of_low_isr:
  4383                           	callstack 0
  4384                           
  4385 ;; *************** function _high_isr *****************
  4386 ;; Defined at:
  4387 ;;		line 34 in file "interrupts.c"
  4388 ;; Parameters:    Size  Location     Type
  4389 ;;		None
  4390 ;; Auto vars:     Size  Location     Type
  4391 ;;		None
  4392 ;; Return value:  Size  Location     Type
  4393 ;;                  1    wreg      void 
  4394 ;; Registers used:
  4395 ;;		None
  4396 ;; Tracked objects:
  4397 ;;		On entry : 0/0
  4398 ;;		On exit  : 0/0
  4399 ;;		Unchanged: 0/0
  4400 ;; Data sizes:     COMRAM   BANK0   BANK1   BANK2   BANK3   BANK4   BANK5
  4401 ;;      Params:         0       0       0       0       0       0       0
  4402 ;;      Locals:         0       0       0       0       0       0       0
  4403 ;;      Temps:          0       0       0       0       0       0       0
  4404 ;;      Totals:         0       0       0       0       0       0       0
  4405 ;;Total ram usage:        0 bytes
  4406 ;; Hardware stack levels used:    1
  4407 ;; This function calls:
  4408 ;;		Nothing
  4409 ;; This function is called by:
  4410 ;;		Interrupt level 2
  4411 ;; This function uses a non-reentrant model
  4412 ;;
  4413                           
  4414                           	psect	intcode
  4415  000008                     __pintcode:
  4416                           	callstack 0
  4417  000008                     _high_isr:
  4418                           	callstack 27
  4419                           
  4420                           ;incstack = 0
  4421  000008  824D               	bsf	int$flags,1,c	;set compiler interrupt flag (level 2)
  4422  00000A  EFD4  F00F         	goto	int_func
  4423                           
  4424                           	psect	intcode_body
  4425  001FA8                     __pintcode_body:
  4426                           	callstack 27
  4427  001FA8                     int_func:
  4428                           	callstack 27
  4429  001FA8  924D               	bcf	int$flags,1,c	;clear compiler interrupt flag (level 2)
  4430  001FAA  0011               	retfie		f
  4431  001FAC                     __end_of_high_isr:
  4432                           	callstack 0
  4433                           
  4434                           	psect	rparam
  4435  0000                     
  4436                           	psect	temp
  4437  00004D                     btemp:
  4438                           	callstack 0
  4439  00004D                     	ds	1
  4440  0000                     int$flags	set	btemp
  4441  0000                     wtemp8	set	btemp+1
  4442  0000                     ttemp5	set	btemp+1
  4443  0000                     ttemp6	set	btemp+4
  4444  0000                     ttemp7	set	btemp+8
  4445                           
  4446                           	psect	idloc
  4447                           
  4448                           ;Config register IDLOC0 @ 0x200000
  4449                           ;	unspecified, using default values
  4450  200000                     	org	2097152
  4451  200000  FF                 	db	255
  4452                           
  4453                           ;Config register IDLOC1 @ 0x200001
  4454                           ;	unspecified, using default values
  4455  200001                     	org	2097153
  4456  200001  FF                 	db	255
  4457                           
  4458                           ;Config register IDLOC2 @ 0x200002
  4459                           ;	unspecified, using default values
  4460  200002                     	org	2097154
  4461  200002  FF                 	db	255
  4462                           
  4463                           ;Config register IDLOC3 @ 0x200003
  4464                           ;	unspecified, using default values
  4465  200003                     	org	2097155
  4466  200003  FF                 	db	255
  4467                           
  4468                           ;Config register IDLOC4 @ 0x200004
  4469                           ;	unspecified, using default values
  4470  200004                     	org	2097156
  4471  200004  FF                 	db	255
  4472                           
  4473                           ;Config register IDLOC5 @ 0x200005
  4474                           ;	unspecified, using default values
  4475  200005                     	org	2097157
  4476  200005  FF                 	db	255
  4477                           
  4478                           ;Config register IDLOC6 @ 0x200006
  4479                           ;	unspecified, using default values
  4480  200006                     	org	2097158
  4481  200006  FF                 	db	255
  4482                           
  4483                           ;Config register IDLOC7 @ 0x200007
  4484                           ;	unspecified, using default values
  4485  200007                     	org	2097159
  4486  200007  FF                 	db	255
  4487                           
  4488                           	psect	config
  4489                           
  4490                           ; Padding undefined space
  4491  300000                     	org	3145728
  4492  300000  FF                 	db	255
  4493                           
  4494                           ;Config register CONFIG1H @ 0x300001
  4495                           ;	Oscillator Selection bits
  4496                           ;	FOSC = INTIO67, Internal oscillator block, port function on RA6 and RA7
  4497                           ;	Fail-Safe Clock Monitor Enable bit
  4498                           ;	FCMEN = OFF, Fail-Safe Clock Monitor disabled
  4499                           ;	Internal/External Oscillator Switchover bit
  4500                           ;	IESO = OFF, Oscillator Switchover mode disabled
  4501  300001                     	org	3145729
  4502  300001  08                 	db	8
  4503                           
  4504                           ;Config register CONFIG2L @ 0x300002
  4505                           ;	Power-up Timer Enable bit
  4506                           ;	PWRT = OFF, PWRT disabled
  4507                           ;	Brown-out Reset Enable bits
  4508                           ;	BOREN = SBORDIS, Brown-out Reset enabled in hardware only (SBOREN is disabled)
  4509                           ;	Brown Out Reset Voltage bits
  4510                           ;	BORV = 18, VBOR set to 1.8 V nominal
  4511  300002                     	org	3145730
  4512  300002  1F                 	db	31
  4513                           
  4514                           ;Config register CONFIG2H @ 0x300003
  4515                           ;	Watchdog Timer Enable bit
  4516                           ;	WDTEN = OFF, WDT is controlled by SWDTEN bit of the WDTCON register
  4517                           ;	Watchdog Timer Postscale Select bits
  4518                           ;	WDTPS = 32768, 1:32768
  4519  300003                     	org	3145731
  4520  300003  1E                 	db	30
  4521                           
  4522                           ; Padding undefined space
  4523  300004                     	org	3145732
  4524  300004  FF                 	db	255
  4525                           
  4526                           ;Config register CONFIG3H @ 0x300005
  4527                           ;	CCP2 MUX bit
  4528                           ;	CCP2MX = PORTC, CCP2 input/output is multiplexed with RC1
  4529                           ;	PORTB A/D Enable bit
  4530                           ;	PBADEN = ON, PORTB<4:0> pins are configured as analog input channels on Reset
  4531                           ;	Low-Power Timer1 Oscillator Enable bit
  4532                           ;	LPT1OSC = OFF, Timer1 configured for higher power operation
  4533                           ;	HFINTOSC Fast Start-up
  4534                           ;	HFOFST = ON, HFINTOSC starts clocking the CPU without waiting for the oscillator to st
      +                          ablize.
  4535                           ;	MCLR Pin Enable bit
  4536                           ;	MCLRE = ON, MCLR pin enabled; RE3 input pin disabled
  4537  300005                     	org	3145733
  4538  300005  8B                 	db	139
  4539                           
  4540                           ;Config register CONFIG4L @ 0x300006
  4541                           ;	Stack Full/Underflow Reset Enable bit
  4542                           ;	STVREN = ON, Stack full/underflow will cause Reset
  4543                           ;	Single-Supply ICSP Enable bit
  4544                           ;	LVP = OFF, Single-Supply ICSP disabled
  4545                           ;	Extended Instruction Set Enable bit
  4546                           ;	XINST = OFF, Instruction set extension and Indexed Addressing mode disabled (Legacy mo
      +                          de)
  4547                           ;	Background Debugger Enable bit
  4548                           ;	DEBUG = 0x1, unprogrammed default
  4549  300006                     	org	3145734
  4550  300006  81                 	db	129
  4551                           
  4552                           ; Padding undefined space
  4553  300007                     	org	3145735
  4554  300007  FF                 	db	255
  4555                           
  4556                           ;Config register CONFIG5L @ 0x300008
  4557                           ;	Code Protection Block 0
  4558                           ;	CP0 = OFF, Block 0 (000800-001FFFh) not code-protected
  4559                           ;	Code Protection Block 1
  4560                           ;	CP1 = OFF, Block 1 (002000-003FFFh) not code-protected
  4561                           ;	Code Protection Block 2
  4562                           ;	CP2 = OFF, Block 2 (004000-005FFFh) not code-protected
  4563                           ;	Code Protection Block 3
  4564                           ;	CP3 = OFF, Block 3 (006000-007FFFh) not code-protected
  4565  300008                     	org	3145736
  4566  300008  0F                 	db	15
  4567                           
  4568                           ;Config register CONFIG5H @ 0x300009
  4569                           ;	Boot Block Code Protection bit
  4570                           ;	CPB = OFF, Boot block (000000-0007FFh) not code-protected
  4571                           ;	Data EEPROM Code Protection bit
  4572                           ;	CPD = OFF, Data EEPROM not code-protected
  4573  300009                     	org	3145737
  4574  300009  C0                 	db	192
  4575                           
  4576                           ;Config register CONFIG6L @ 0x30000A
  4577                           ;	Write Protection Block 0
  4578                           ;	WRT0 = OFF, Block 0 (000800-001FFFh) not write-protected
  4579                           ;	Write Protection Block 1
  4580                           ;	WRT1 = OFF, Block 1 (002000-003FFFh) not write-protected
  4581                           ;	Write Protection Block 2
  4582                           ;	WRT2 = OFF, Block 2 (004000-005FFFh) not write-protected
  4583                           ;	Write Protection Block 3
  4584                           ;	WRT3 = OFF, Block 3 (006000-007FFFh) not write-protected
  4585  30000A                     	org	3145738
  4586  30000A  0F                 	db	15
  4587                           
  4588                           ;Config register CONFIG6H @ 0x30000B
  4589                           ;	Configuration Register Write Protection bit
  4590                           ;	WRTC = OFF, Configuration registers (300000-3000FFh) not write-protected
  4591                           ;	Boot Block Write Protection bit
  4592                           ;	WRTB = OFF, Boot Block (000000-0007FFh) not write-protected
  4593                           ;	Data EEPROM Write Protection bit
  4594                           ;	WRTD = OFF, Data EEPROM not write-protected
  4595  30000B                     	org	3145739
  4596  30000B  E0                 	db	224
  4597                           
  4598                           ;Config register CONFIG7L @ 0x30000C
  4599                           ;	Table Read Protection Block 0
  4600                           ;	EBTR0 = OFF, Block 0 (000800-001FFFh) not protected from table reads executed in other
      +                           blocks
  4601                           ;	Table Read Protection Block 1
  4602                           ;	EBTR1 = OFF, Block 1 (002000-003FFFh) not protected from table reads executed in other
      +                           blocks
  4603                           ;	Table Read Protection Block 2
  4604                           ;	EBTR2 = OFF, Block 2 (004000-005FFFh) not protected from table reads executed in other
      +                           blocks
  4605                           ;	Table Read Protection Block 3
  4606                           ;	EBTR3 = OFF, Block 3 (006000-007FFFh) not protected from table reads executed in other
      +                           blocks
  4607  30000C                     	org	3145740
  4608  30000C  0F                 	db	15
  4609                           
  4610                           ;Config register CONFIG7H @ 0x30000D
  4611                           ;	Boot Block Table Read Protection bit
  4612                           ;	EBTRB = OFF, Boot Block (000000-0007FFh) not protected from table reads executed in ot
      +                          her blocks
  4613  30000D                     	org	3145741
  4614  30000D  40                 	db	64
  4615                           tosu	equ	0xFFF
  4616                           tosh	equ	0xFFE
  4617                           tosl	equ	0xFFD
  4618                           stkptr	equ	0xFFC
  4619                           pclatu	equ	0xFFB
  4620                           pclath	equ	0xFFA
  4621                           pcl	equ	0xFF9
  4622                           tblptru	equ	0xFF8
  4623                           tblptrh	equ	0xFF7
  4624                           tblptrl	equ	0xFF6
  4625                           tablat	equ	0xFF5
  4626                           prodh	equ	0xFF4
  4627                           prodl	equ	0xFF3
  4628                           indf0	equ	0xFEF
  4629                           postinc0	equ	0xFEE
  4630                           postdec0	equ	0xFED
  4631                           preinc0	equ	0xFEC
  4632                           plusw0	equ	0xFEB
  4633                           fsr0h	equ	0xFEA
  4634                           fsr0l	equ	0xFE9
  4635                           wreg	equ	0xFE8
  4636                           indf1	equ	0xFE7
  4637                           postinc1	equ	0xFE6
  4638                           postdec1	equ	0xFE5
  4639                           preinc1	equ	0xFE4
  4640                           plusw1	equ	0xFE3
  4641                           fsr1h	equ	0xFE2
  4642                           fsr1l	equ	0xFE1
  4643                           bsr	equ	0xFE0
  4644                           indf2	equ	0xFDF
  4645                           postinc2	equ	0xFDE
  4646                           postdec2	equ	0xFDD
  4647                           preinc2	equ	0xFDC
  4648                           plusw2	equ	0xFDB
  4649                           fsr2h	equ	0xFDA
  4650                           fsr2l	equ	0xFD9
  4651                           status	equ	0xFD8

Data Sizes:
    Strings     4
    Constant    0
    Data        0
    BSS         12
    Persistent  8
    Stack       0

Auto Spaces:
    Space          Size  Autos    Used
    COMRAM           94     56      76
    BANK0           160      0       0
    BANK1           256      0       0
    BANK2           256      0       0
    BANK3           256      0       0
    BANK4           256      0       0
    BANK5           256      0       0

Pointer List with Targets:

    BT_load_string@string	PTR unsigned char  size(2) Largest target is 2
		 -> STR_2(CODE[2]), STR_1(CODE[2]), 


Critical Paths under _main in COMRAM

    _main->_ADCRead_Pos
    ___flsub->___fladd
    _Vibration_ON->___fldiv
    ___lmul->___fltol
    _BT_load_string->_BT_load_char
    _ADCRead_Pos->___fladd
    ___fladd->___flmul

Critical Paths under _low_isr in COMRAM

    None.

Critical Paths under _high_isr in COMRAM

    None.

Critical Paths under _main in BANK0

    None.

Critical Paths under _low_isr in BANK0

    None.

Critical Paths under _high_isr in BANK0

    None.

Critical Paths under _main in BANK1

    None.

Critical Paths under _low_isr in BANK1

    None.

Critical Paths under _high_isr in BANK1

    None.

Critical Paths under _main in BANK2

    None.

Critical Paths under _low_isr in BANK2

    None.

Critical Paths under _high_isr in BANK2

    None.

Critical Paths under _main in BANK3

    None.

Critical Paths under _low_isr in BANK3

    None.

Critical Paths under _high_isr in BANK3

    None.

Critical Paths under _main in BANK4

    None.

Critical Paths under _low_isr in BANK4

    None.

Critical Paths under _high_isr in BANK4

    None.

Critical Paths under _main in BANK5

    None.

Critical Paths under _low_isr in BANK5

    None.

Critical Paths under _high_isr in BANK5

    None.

Call Graph Tables:

 ---------------------------------------------------------------------------------
 (Depth) Function   	        Calls       Base Space   Used Autos Params    Refs
 ---------------------------------------------------------------------------------
 (0) _main                                                 2     2      0   16424
                                             54 COMRAM     2     2      0
                        _ADCRead_Pos
                     _BT_load_string
                _ConfigureOscillator
                            _InitApp
                           _Init_ADC
                        _Init_EUSART
                           _Init_PWM
                       _Vibration_ON
                            ___fladd
                            ___fldiv
                             ___flge
                            ___flmul
                            ___flsub
                       _broadcast_BT
 ---------------------------------------------------------------------------------
 (1) _broadcast_BT                                         2     2      0       0
                                              1 COMRAM     2     2      0
 ---------------------------------------------------------------------------------
 (1) ___flsub                                              8     0      8    3193
                                             42 COMRAM     8     0      8
                            ___fladd
                            ___flmul (ARG)
 ---------------------------------------------------------------------------------
 (1) ___flmul                                             25    17      8    2200
                                              1 COMRAM    25    17      8
 ---------------------------------------------------------------------------------
 (1) ___fldiv                                             25    17      8    1399
                                              1 COMRAM    25    17      8
 ---------------------------------------------------------------------------------
 (1) _Vibration_ON                                        13     9      4    2454
                                             26 COMRAM    13     9      4
                            ___aldiv
                            ___fldiv (ARG)
                             ___flge
                            ___fltol
                             ___lmul
 ---------------------------------------------------------------------------------
 (2) ___lmul                                              12     4      8     370
                                             11 COMRAM    12     4      8
                            ___fltol (ARG)
 ---------------------------------------------------------------------------------
 (2) ___fltol                                             10     6      4     305
                                              1 COMRAM    10     6      4
 ---------------------------------------------------------------------------------
 (1) ___flge                                              12     4      8     942
                                              1 COMRAM    12     4      8
 ---------------------------------------------------------------------------------
 (2) ___aldiv                                             14     6      8     452
                                              1 COMRAM    14     6      8
 ---------------------------------------------------------------------------------
 (1) _Init_PWM                                             0     0      0       0
 ---------------------------------------------------------------------------------
 (1) _Init_EUSART                                          0     0      0       0
 ---------------------------------------------------------------------------------
 (1) _Init_ADC                                             0     0      0       0
 ---------------------------------------------------------------------------------
 (1) _InitApp                                              0     0      0       0
 ---------------------------------------------------------------------------------
 (1) _ConfigureOscillator                                  0     0      0       0
 ---------------------------------------------------------------------------------
 (1) _BT_load_string                                       2     0      2     212
                                              2 COMRAM     2     0      2
                       _BT_load_char
 ---------------------------------------------------------------------------------
 (2) _BT_load_char                                         1     1      0      15
                                              1 COMRAM     1     1      0
 ---------------------------------------------------------------------------------
 (1) _ADCRead_Pos                                         12     8      4    3306
                                             42 COMRAM    12     8      4
                            ___fladd
                           ___xxtofl
 ---------------------------------------------------------------------------------
 (2) ___xxtofl                                            14    10      4     474
                                              1 COMRAM    14    10      4
 ---------------------------------------------------------------------------------
 (2) ___fladd                                             16     8      8    2718
                                             26 COMRAM    16     8      8
                            ___flmul (ARG)
                           ___xxtofl (ARG)
 ---------------------------------------------------------------------------------
 Estimated maximum stack depth 2
 ---------------------------------------------------------------------------------
 (Depth) Function   	        Calls       Base Space   Used Autos Params    Refs
 ---------------------------------------------------------------------------------
 (3) _low_isr                                              1     1      0       0
                                              0 COMRAM     1     1      0
 ---------------------------------------------------------------------------------
 Estimated maximum stack depth 3
 ---------------------------------------------------------------------------------
 (Depth) Function   	        Calls       Base Space   Used Autos Params    Refs
 ---------------------------------------------------------------------------------
 (4) _high_isr                                             0     0      0       0
 ---------------------------------------------------------------------------------
 Estimated maximum stack depth 4
 ---------------------------------------------------------------------------------

 Call Graph Graphs:

 _main (ROOT)
   _ADCRead_Pos
     ___fladd
       ___flmul (ARG)
       ___xxtofl (ARG)
     ___xxtofl
   _BT_load_string
     _BT_load_char
   _ConfigureOscillator
   _InitApp
   _Init_ADC
   _Init_EUSART
   _Init_PWM
   _Vibration_ON
     ___aldiv
     ___fldiv (ARG)
     ___flge (ARG)
     ___fltol (ARG)
     ___lmul (ARG)
       ___fltol (ARG)
   ___fladd
     ___flmul (ARG)
     ___xxtofl (ARG)
   ___fldiv
   ___flge
   ___flmul
   ___flsub
     ___fladd
       ___flmul (ARG)
       ___xxtofl (ARG)
     ___flmul (ARG)
   _broadcast_BT

 _low_isr (ROOT)

 _high_isr (ROOT)

 Address spaces:
Name               Size   Autos  Total    Cost      Usage
BIGRAM             5FF      0       0      17        0.0%
EEDATA             100      0       0       0        0.0%
BITBANK5           100      0       0      16        0.0%
BANK5              100      0       0      14        0.0%
BITBANK4           100      0       0      12        0.0%
BANK4              100      0       0      13        0.0%
BITBANK3           100      0       0      10        0.0%
BANK3              100      0       0      11        0.0%
BITBANK2           100      0       0       8        0.0%
BANK2              100      0       0       9        0.0%
BITBANK1           100      0       0       6        0.0%
BANK1              100      0       0       7        0.0%
BITBANK0            A0      0       0       4        0.0%
BANK0               A0      0       0       5        0.0%
BITCOMRAM           5E      0       0       0        0.0%
COMRAM              5E     38      4C       1       80.9%
BITSFR               0      0       0     200        0.0%
SFR                  0      0       0     200        0.0%
STACK                0      0       0       2        0.0%
NULL                 0      0       0       0        0.0%
ABS                  0      0      4C      15        0.0%
DATA                 0      0      4C       3        0.0%
CODE                 0      0       0       0        0.0%


Microchip Technology PIC18 Macro Assembler V2.30 build 20200825195618 
Symbol Table                                                                                   Fri Apr 23 14:46:28 2021

                 ___fldiv@aexp 001A                   ___fldiv@bexp 0019                   ___fldiv@sign 0012  
                           l76 1FAC                             l85 1FA6                             _GO 007E11  
                           u10 1F12                             u11 1F0E                             u20 1F20  
                           u21 1F1C                             bsr 000FE0                            l112 1DF2  
                          l106 1F42                            l131 19F4                            l127 1F7E  
                          l161 1F04                            l170 1F9A                            l164 1F12  
                          l158 1EFC                            l190 1E4C                            l167 1F20  
                          l191 1E5C                            l176 1ED8                            l258 1B00  
                          l444 1CC4                            l800 11DA                            l449 1D0A  
                          l810 130A                            l802 1252                            l707 07F4  
                          l803 1240                            l724 090E                            l716 0AC4  
                          l708 07E2                            l476 1C06                            l733 09DE  
                          l709 07A8                            l734 09CC                            l841 17D2  
                          l761 16E2                            l834 173A                            l763 1542  
                          l852 1F00                            l772 1588                            l837 1896  
                          l749 1EA2                            l774 1600                            l766 1506  
                          l775 15EE                            l848 182E                            l793 0FE4  
                          l797 1348                            _PR2 000FCB                            i2l9 1FA8  
                          wreg 000FE8                   ___flmul@aexp 0013                   ___flmul@bexp 0014  
         __size_of_ADCRead_Pos 00E8                   ___flmul@sign 000E                   ___flmul@temp 0019  
                 ___flmul@prod 0015                   ___fltol@exp1 000B                           l2000 1BE6  
                         l2010 1704                           l2002 1BF6                           l2020 177C  
                         l2012 174A                           l2100 1356                           l1300 1F84  
                         l2030 1804                           l2022 1788                           l2014 1760  
                         l2006 16E6                           l1222 1F9C                           l1230 1F72  
                         l2110 1396                           l2102 1364                           l2040 1842  
                         l2032 1810                           l2024 17BA                           l2008 16F6  
                         l1224 1F22                           l1240 1EEE                           l1232 1F74  
                         l2200 15E6                           l2120 13BC                           l2112 1398  
                         l2104 1366                           l2042 1866                           l2034 181E  
                         l2026 17BC                           l2018 1774                           l1250 1EFA  
                         l1242 1EF2                           l1234 1F7A                           l1226 1F62  
                         l2210 1654                           l2130 13FC                           l2122 13CA  
                         l2106 1376                           l2114 13A0                           l2044 1876  
                         l2036 183C                           l2028 17C8                           l1244 1EF4  
                         l1236 1F7C                           l1228 1F66                           l2060 194E  
                         l2052 1898                           l2220 16BE                           l2204 1610  
                         l2212 1658                           l2140 143C                           l2132 13FE  
                         l2124 13CC                           l2116 13B0                           l2108 1386  
                         l2300 10C6                           l2046 1884                           l2038 183E  
                         l1246 1EF6                           l1238 1EDA                           l2062 19E2  
                         l2222 16C2                           l2214 1672                           l2206 161C  
                         l2150 146C                           l2142 1444                           l2126 13DC  
                         l2134 1406                           l2118 13B6                           l2310 1134  
                         l2302 10E0                           l2048 1886                           l2064 1D0C  
                         l1248 1EF8                           l2056 18CE                           l2224 16D0  
                         l2216 1688                           l2208 162A                           l2160 14AA  
                         l2152 146C                           l2144 1448                           l2136 1416  
                         l2128 13EC                           l2320 11CA                           l2312 115E  
                         l2304 10F0                           l2240 0F3A                           l2400 0B56  
                         l2082 1DC2                           l2074 1D28                           l2066 1D1E  
                         l2090 1EA4                           l2058 1906                           l2226 16D6  
                         l2218 16A2                           l2170 14F6                           l2162 14BA  
                         l2138 142C                           l2330 120A                           l2322 11D8  
                         l2314 1194                           l2306 110C                           l2250 0F72  
                         l2242 0F3C                           l2410 0B76                           l2402 0B58  
                         l2084 1DC6                           l2076 1D3C                           l2068 1D20  
                         l2092 1EA8                           l1700 1A18                           l2228 16D8  
                         l2180 1540                           l2172 1504                           l2164 14CA  
                         l2156 1480                           l2148 145C                           l2340 127C  
                         l2332 1238                           l2324 11EA                           l2316 11A2  
                         l2308 1118                           l2260 0F9E                           l2252 0F82  
                         l2244 0F4C                           l2236 0F20                           l2420 0C42  
                         l2412 0B8E                           l2404 0B5A                           l2086 1DE2  
                         l2078 1DAE                           l2094 1EB8                           l1710 1A4E  
                         l1702 1A1C                           l2190 1586                           l2182 1552  
                         l2174 1510                           l2166 14D2                           l2158 149A  
                         l2350 12F2                           l2342 12A6                           l2326 11F8  
                         l2318 11C0                           l2270 0FF4                           l2262 0FAE  
                         l2254 0F88                           l2246 0F5C                           l2238 0F2C  
                         l2430 0CD0                           l2422 0C56                           l2414 0B90  
                         l2406 0B72                           l1800 0726                           l2096 1EBC  
                         l1720 1A90                           l1712 1A64                           l1704 1A2A  
                         l2184 1568                           l2192 1598                           l2176 152E  
                         l2168 14E2                           l2352 130E                           l2360 1334  
                         l2336 1262                           l2344 12AA                           l2328 11FC  
                         l2280 102E                           l2272 1004                           l2264 0FBE  
                         l2256 0F8E                           l2248 0F6C                           l2440 0D12  
                         l2432 0CD8                           l2424 0C88                           l2416 0B92  
                         l2408 0B74                           l1810 073A                           l1802 072A  
                         l1722 1AAE                           l1714 1A6C                           l1730 1AD0  
                         l1706 1A3A                           l2194 15A6                           l2186 156E  
                         l2178 1530                           l2098 134A                           l2362 1338  
                         l2354 131E                           l2346 12C4                           l2338 126E  
                         l2290 1080                           l2282 1044                           l2266 0FCE  
                         l2258 0F9C                           l1298 1F80                           l2450 0D9A  
                         l2434 0CEA                           l2426 0CBA                           l2442 0D1A  
                         l2418 0BEA                           l1900 09A0                           l1820 0774  
                         l1812 073E                           l1804 072E                           l1740 0612  
                         l1732 1AE0                           l1724 1ABE                           l1716 1A78  
                         l1708 1A3E                           l2196 15AA                           l2188 1578  
                         l2356 132C                           l2348 12D8                           l2292 108E  
                         l2284 1050                           l2276 1018                           l2268 0FD4  
                         l2460 0E10                           l2452 0DD2                           l2444 0D4C  
                         l2436 0CF6                           l2428 0CBC                           l2380 0AEA  
                         l2372 0AC6                           l1910 09FA                           l1902 09AE  
                         l1830 07C6                           l1822 0790                           l1814 0742  
                         l1806 0732                           l1750 0652                           l1742 0620  
                         l1734 1AF0                           l1726 1AC0                           l1718 1A86  
                         l2198 15B8                           l2358 132E                           l2294 109A  
                         l2286 1068                           l2278 1024                           l2366 1E5E  
                         l2470 0E3A                           l2462 0E14                           l2454 0DDA  
                         l2446 0D7E                           l2438 0D0E                           l2390 0B12  
                         l2382 0AFA                           l2374 0AD2                           l1920 0A64  
                         l1912 0A08                           l1904 09C4                           l1840 0812  
                         l1832 07D4                           l1824 07A0                           l1808 0736  
                         l1816 0746                           l1760 0684                           l1752 0654  
                         l1744 0622                           l1728 1ACA                           l2296 10AA  
                         l2288 1074                           l2368 1E6E                           l2472 0E52  
                         l2456 0DEC                           l2448 0D98                           l2464 0E18  
                         l2392 0B26                           l2384 0B02                           l2376 0AD6  
                         l1930 0A9E                           l1922 0A84                           l1914 0A42  
                         l1850 0852                           l1834 07D6                           l1826 07B6  
                         l1818 074A                           l1770 06AC                           l1762 0686  
                         l1746 0632                           l1754 065C                           l1738 0606  
                         l1690 1E22                           l2298 10B6                           l2474 0E66  
                         l2466 0E26                           l2458 0DF8                           l2394 0B3A  
                         l2386 0B0A                           l2378 0ADA                           l1932 0AA4  
                         l1924 0A88                           l1908 09EE                           l1916 0A44  
                         l1860 087C                           l1852 085E                           l1844 0826  
                         l1836 07E0                           l1828 07C2                           l1780 06E6  
                         l1772 06BC                           l1764 068C                           l1756 066C  
                         l1748 0642                           l1940 1C08                           l1692 1E2C  
                         l1684 1DF4                           l2476 0E68                           l2468 0E38  
                         l2396 0B3C                           l2388 0B0E                           l1934 0AB2  
                         l1926 0A96                           l1918 0A54                           l1870 08EE  
                         l1854 0862                           l1846 0836                           l1838 0802  
                         l1862 0882                           l1790 0712                           l1782 06F8  
                         l1774 06CC                           l1766 069A                           l1758 0672  
                         l1694 19F6                           l1950 1C92                           l1942 1C36  
                         l1686 1E04                           l2478 0EC0                           l2398 0B3E  
                         l1936 0AB4                           l1928 0A9C                           l1880 0948  
                         l1864 08A8                           l1872 08FE                           l1856 0870  
                         l1848 0844                           l1792 0716                           l1784 0706  
                         l1776 06CE                           l1768 069C                           l1696 19FA  
                         l1952 1CA4                           l1944 1C46                           l1688 1E12  
                         l1890 0978                           l1882 0952                           l1874 0924  
                         l1866 08DC                           l1858 0872                           l1794 071A  
                         l1786 070A                           l1778 06D6                           l1698 1A08  
                         l1954 1CB2                           l1946 1C74                           l1970 1B56  
                         l1962 1B02                           l1892 097C                           l1884 0960  
                         l1876 0934                           l1868 08DE                           l1796 071E  
                         l1788 070E                           l1956 1D02                           l1948 1C84  
                         l1972 1B58                           l1964 1B18                           l1894 098C  
                         l1886 0962                           l1798 0722                           l1958 1D08  
                         l1974 1B68                           l1888 0970                           l1896 098E  
                         l1984 1B92                           l1976 1B6C                           l1968 1B2C  
                         l1898 099C                           l1994 1BBA                           l1986 1B9C  
                         l1978 1B7A                           l1996 1BC6                           l1988 1BA6  
                         l1998 1BD6                           STR_1 0603                           STR_2 0601  
                         u2000 1884                           u2001 1880                           u2010 18CA  
                         u2011 18C6                           u2100 1ED8                           u2101 1ED4  
                         u2110 1364                           u2111 1360                           u1400 0620  
                         u1320 1E12                           u2040 19E0                           u2200 1504  
                         u2120 1376                           u1401 061C                           u1321 1E0E  
                         u2041 19DA                           u2025 18E6                           u2201 1500  
                         u2121 1372                           u1410 0632                           u1330 1E4C  
                         u2210 152E                           u2130 1386                           u1411 062E  
                         u1331 1E48                           u2035 1996                           u2211 152A  
                         u2131 1382                           u1500 078C                           u1420 0642  
                         u1340 1A08                           u2060 19F2                           u2036 19A0  
                         u2300 162A                           u2220 1552                           u2140 13CA  
                         u1501 0786                           u1421 063E                           u1341 1A04  
                         u2061 19EC                           u2037 19B0                           u2301 1626  
                         u2221 154E                           u2141 13C6                           u1510 078E  
                         u1430 0684                           u1350 1A2A                           u2310 1672  
                         u2230 1568                           u2150 13DC                           u1431 0680  
                         u1351 1A26                           u2055 19E2                           u2311 166E  
                         u2231 1564                           u2151 13D8                           u1600 08A8  
                         u1520 07B6                           u1440 069A                           u2080 1D3C  
                         u1360 1A64                           u2320 16A2                           u2240 1586  
                         u2160 13EC                           u2400 0FF4                           u1601 08A4  
                         u1521 07B2                           u1441 0696                           u2081 1D38  
                         u1361 1A60                           u2321 169E                           u2241 1582  
                         u2161 13E8                           u2401 0FF0                           u1610 08EE  
                         u1530 07D4                           u1450 06AC                           u2090 1DE2  
                         u1370 1A86                           u2330 16D0                           u2250 15A6  
                         u2170 142C                           u2410 1004                           u1611 08EA  
                         u1531 07D0                           u1451 06A8                           u2091 1DDE  
                         u1371 1A82                           u2075 19F4                           u2331 16CC  
                         u2251 15A2                           u2171 1428                           u2411 1000  
                         u1700 09DA                           u1620 0924                           u1540 07F4  
                         u1460 06BC                           u1380 1AAE                           u2260 15B8  
                         u2180 146C                           u2500 12C4                           u2420 117E  
                         u2340 0F3A                           u1701 09D6                           u1621 0920  
                         u1541 07F0                           u1461 06B8                           u1381 1AAA  
                         u2261 15B4                           u2181 1468                           u2501 12C0  
                         u2341 0F36                           u1710 09EE                           u1630 0934  
                         u1550 0802                           u1470 06F8                           u1390 1AE0  
                         u2270 15E6                           u2190 14E2                           u2510 12F2  
                         u2430 11D8                           u2350 0F4C                           u1711 09EA  
                         u1631 0930                           u1551 07FE                           u1471 06F4  
                         u1391 1ADC                           u2271 15E2                           u2191 14DE  
                         u2511 12EE                           u2431 11D4                           u2351 0F48  
                         u1720 0A08                           u1640 0960                           u1560 0812  
                         u1480 0706                           u1800 1C74                           u2280 15FC  
                         u2520 132C                           u2440 11F8                           u2360 0F5C  
                         u2600 0E38                           u1721 0A04                           u1641 095C  
                         u1561 080E                           u1481 0702                           u1801 1C70  
                         u2281 15F8                           u2521 1328                           u2441 11F4  
                         u2425 1174                           u2361 0F58                           u2601 0E34  
                         u1730 0A42                           u1650 0970                           u1570 0844  
                         u1490 0774                           u1810 1C92                           u2290 1610  
                         u2450 120A                           u2370 0F9C                           u2530 0C88  
                         u1731 0A3E                           u1651 096C                           u1571 0840  
                         u1491 0770                           u1811 1C8E                           u2291 160C  
                         u2451 1206                           u2371 0F98                           u2531 0C84  
                         u1740 0A54                           u1660 098C                           u1580 0852  
                         u1820 1CB2                           u1900 1BE6                           u2460 1238  
                         u2380 0FAE                           u2540 0CBA                           u1741 0A50  
                         u1661 0988                           u1581 084E                           u1821 1CAE  
                         u1901 1BE2                           u2461 1234                           u2381 0FAA  
                         u2541 0CB6                           u1750 0A64                           u1670 099C  
                         u1590 0870                           u1910 16F6                           u1830 1D02  
                         u2470 124E                           u2390 0FBE                           u2550 0CEA  
                         u1751 0A60                           u1671 0998                           u1591 086C  
                         u1911 16F2                           u1831 1CFE                           u2471 124A  
                         u2391 0FBA                           u2551 0CE6                           u1760 0A84  
                         u1680 09AE                           u1920 1704                           u1840 1B18  
                         u2480 1262                           u2560 0D4C                           u1761 0A80  
                         u1681 09AA                           u1921 1700                           u1841 1B14  
                         u2481 125E                           u2561 0D48                           u2617 0B48  
                         u1770 0A96                           u1690 09C4                           u1930 1760  
                         u1850 1B4C                           u2490 127C                           u2570 0D7E  
                         u1771 0A92                           u1691 09C0                           u1931 175C  
                         u2491 1278                           u2571 0D7A                           u2627 0B64  
                         u1780 0AB2                           u1940 17B6                           u1860 1B7A  
                         u2580 0DEC                           u1781 0AAE                           u1941 17B2  
                         u1861 1B76                           u2581 0DE8                           u2637 0B80  
                         u1950 1800                           u1790 1C36                           u1870 1B8E  
                         u2590 0E26                           u1951 17FC                           u1791 1C32  
                         u1871 1B8A                           u1855 1B42                           u2591 0E22  
                         u2647 0D00                           u1960 181E                           u1880 1BB6  
                         u1961 181A                           u1881 1BB2                           u2657 0D88  
                         u1970 182E                           u1890 1BD6                           u1971 182A  
                         u1891 1BD2                           u2667 0E02                           _PEIE 007F96  
                         u1980 183C                           u1981 1838                           u2677 0E44  
                         i1l14 001E                           u1990 1876                           u1991 1872  
                         u2687 1F8E                           u2697 1D12                           _RCIF 007CF5  
                         _TRMT 007D61                           _TXIF 007CF4                 ??_broadcast_BT 0002  
                ??_Init_EUSART 0002                           _main 0AC6                           btemp 004D  
                         prodh 000FF4                           prodl 000FF3                           start 0026  
              ___fldiv@new_exp 0013                   ___param_bank 000000                __end_of_InitApp 1FA8  
                        _DC1B0 007DEC                          _DC1B1 007DED                  ___fltol@sign1 000A  
              __end_of___aldiv 1B02                __end_of___fladd 0AC6                          ?_main 0001  
              __end_of___fldiv 16E4                __end_of___flmul 134A                __end_of___flsub 1EA4  
              __end_of___fltol 1C08                          _RCREG 000FAE                          _SPBRG 000FAF  
                        _PORTA 000F80                          _PORTD 000F83                          _TXREG 000FAD  
          _ConfigureOscillator 1FAC            ___lmul@multiplicand 0010                __end_of_low_isr 0026  
                        tablat 000FF5                          ttemp5 004E                          ttemp6 0051  
                        ttemp7 0055                          status 000FD8                          wtemp8 004E  
         ?_ConfigureOscillator 0001                __initialization 1F44            __end_of_Init_EUSART 1EFE  
                 __end_of_main 0F20               __end_of_Init_ADC 1F44               __end_of_Init_PWM 1F80  
                       ??_main 0037  _send_good_posture_msg_counter 0041                  __activetblptr 000001  
                       _ADRESH 000FC4                         _ADRESL 000FC3                         _CCPR1L 000FBE  
               _BT_load_string 1EA4               __end_of___xxtofl 1898                      ??_InitApp 0002  
        ??_ConfigureOscillator 0002               __end_of_high_isr 1FAC                         ___flge 1C08  
                       ___lmul 1DF4                      ??___aldiv 000A                      ??___fladd 0023  
                    ??___fldiv 000A                      ??___flmul 000A                      ??___flsub 0033  
                    ??___fltol 0006                         clear_0 1F4A           __end_of_broadcast_BT 1F9C  
                 __mediumconst 0000                      ??_low_isr 0001                         tblptrh 000FF7  
                       tblptrl 000FF6                         tblptru 000FF8         __end_of_BT_load_string 1EDA  
                   ___flge@ff1 0002                     ___flge@ff2 0006                   ___xxtofl@arg 000C  
                 ___xxtofl@exp 000B                   ___xxtofl@val 0002                     __accesstop 0060  
      __end_of__initialization 1F50                    _Init_EUSART 1EDA                  ___rparam_used 000001  
                   ___fltol@f1 0002                 __pcstackCOMRAM 0001             Vibration_ON@output 0024  
              ?_BT_load_string 0003                      ?_Init_ADC 0001                      ?_Init_PWM 0001  
                   __pnvCOMRAM 0045                  ?_BT_load_char 0001                        ?___flge 0002  
                      ?___lmul 000C                 ___lmul@product 0014                  ??_ADCRead_Pos 002F  
                    ?___xxtofl 0002                   ADCRead_Pos@i 0035                      ?_high_isr 0001  
                   ??_Init_ADC 0002                     ??_Init_PWM 0002                 ??_BT_load_char 0002  
                      _InitApp 1F9C                        __Hparam 0000                        __Lparam 0000  
                ?_Vibration_ON 001B                        ___aldiv 19F6          __size_of_broadcast_BT 001C  
              __size_of___flge 0104                        ___fladd 0606                        ___fldiv 134A  
              __size_of___lmul 006A                        ___flmul 0F20                        ___flsub 1E5E  
                      ___fltol 1B02                   __psmallconst 0600                        __pcinit 1F44  
                    _ANSELbits 000F7E                        __ramtop 0600                        __ptext0 0AC6  
                      __ptext1 1F80                        __ptext2 1E5E                        __ptext3 0F20  
                      __ptext4 134A                        __ptext5 1898                        __ptext6 1DF4  
                      __ptext7 1B02                        __ptext8 1C08                        __ptext9 19F6  
                    _T2CONbits 000FCA                        _max_pos 003D                     ??___xxtofl 0006  
                      _min_pos 0039               ___aldiv@dividend 0002                        _low_isr 0018  
          __end_of_ADCRead_Pos 1DF4                     ??_high_isr 0001                 __pintcode_body 1FA8  
         end_of_initialization 1F50                        int_func 1FA8                   _broadcast_BT 1F80  
               ??_Vibration_ON 001F                      _RCSTAbits 000FAB               ___aldiv@quotient 000C  
                      postinc0 000FEE                      _PORTDbits 000F83                    ___fladd@grs 002A  
                ___xxtofl@sign 000A                      _TRISAbits 000F92                      _TRISBbits 000F93  
                    _TRISCbits 000F94                      _TRISDbits 000F95                    ___fldiv@grs 0015  
                  ___fldiv@rem 000E    __end_of_ConfigureOscillator 1FAE                    ___flmul@grs 000F  
                 ?_Init_EUSART 0001                    _CCP1CONbits 000FBD                      _TXSTAbits 000FAC  
               __end_of___flge 1D0C                 __end_of___lmul 1E5E                    _BAUDCONbits 000FB8  
         __end_of_BT_load_char 1F22                    _ADCRead_Pos 1D0C               ??_BT_load_string 0005  
          start_initialization 1F44              __size_of_Init_ADC 0022              __size_of_Init_PWM 001E  
                     ??___flge 000A                       ??___lmul 0014                      ___fladd@a 001F  
                    ___fladd@b 001B                      ___fldiv@a 0006                      ___fldiv@b 0002  
                    ___flmul@a 0006                      ___flmul@b 0002                    __pbssCOMRAM 0039  
                    ___flsub@a 002F                      ___flsub@b 002B           __end_of_Vibration_ON 19F6  
            __size_of___xxtofl 01B4   _send_bad_posture_msg_counter 0043              __size_of_high_isr 1FA4  
                     ?_InitApp 0001                      __pintcode 0008                       ?___aldiv 0002  
                     ?___fladd 001B                       ?___fldiv 0002                       ?___flmul 0002  
                     ?___flsub 002B                       ?___fltol 0002                    __pintcodelo 0018  
                  __smallconst 0600                       ?_low_isr 0001                ___aldiv@divisor 0006  
              ___aldiv@counter 000A                       _PIE1bits 000F9D           __size_of_Init_EUSART 0024  
        __size_of_BT_load_char 0024                     _ADCON0bits 000FC2                     _ADCON1bits 000FC1  
                   _ADCON2bits 000FC0              ___lmul@multiplier 000C                       _Init_ADC 1F22  
                     _Init_PWM 1F62                   _BT_load_char 1EFE               __size_of_InitApp 000C  
                     __Hrparam 0000                       __Lrparam 0000                   __Lsmallconst 0600  
             __size_of___aldiv 010C               __size_of___fladd 04C0               __size_of___fldiv 039A  
             __size_of___flmul 042A               __size_of___flsub 0046               __size_of___fltol 0106  
       Vibration_ON@percentage 001B          __size_of_Vibration_ON 015E                   ?_ADCRead_Pos 002B  
                     ___xxtofl 16E4               __size_of_low_isr 000E                       __ptext10 1F62  
                     __ptext11 1EDA                       __ptext12 1F22                       __ptext13 1F9C  
                     __ptext14 1FAC                       __ptext15 1EA4                       __ptext16 1EFE  
                     __ptext17 1D0C                       __ptext18 16E4                       __ptext19 0606  
                     _high_isr 0008                  __size_of_main 045A                       _real_pos 0045  
 __size_of_ConfigureOscillator 0002                   _Vibration_ON 1898                       int$flags 004D  
               BT_load_char@bt 0002           BT_load_string@string 0003                    _neutral_pos 0049  
                     intlevel1 0000                       intlevel2 0000                     _OSCCONbits 000FD3  
              ADCRead_Pos@temp 0031                   ___aldiv@sign 000B                  ___fladd@signs 0027  
      __size_of_BT_load_string 0036                   ___fladd@aexp 0028                   ___fladd@bexp 0029  
                ?_broadcast_BT 0001  
