

Microchip MPLAB XC8 Assembler V2.30 build 20200825195618 
                                                                                               Fri Feb 19 15:37:05 2021

Microchip MPLAB XC8 C Compiler v2.30 (Free license) build 20200825195618 Og1 
     1                           	processor	18F45K20
     2                           	fnconf	rparam,??,?,0
     3                           	pagewidth 120
     4                           	opt	flic
     5                           	psect	nvCOMRAM,global,class=COMRAM,space=1,delta=1,lowdata,noexec
     6                           	psect	cinit,global,reloc=2,class=CODE,delta=1
     7                           	psect	bssCOMRAM,global,class=COMRAM,space=1,delta=1,lowdata,noexec
     8                           	psect	cstackCOMRAM,global,class=COMRAM,space=1,delta=1,lowdata,noexec
     9                           	psect	text0,global,reloc=2,class=CODE,delta=1
    10                           	psect	text1,global,reloc=2,class=CODE,delta=1,group=1
    11                           	psect	text2,global,reloc=2,class=CODE,delta=1,group=1
    12                           	psect	text3,global,reloc=2,class=CODE,delta=1,group=1
    13                           	psect	text4,global,reloc=2,class=CODE,delta=1,group=1
    14                           	psect	text5,global,reloc=2,class=CODE,delta=1,group=1
    15                           	psect	text6,global,reloc=2,class=CODE,delta=1
    16                           	psect	text7,global,reloc=2,class=CODE,delta=1
    17                           	psect	text8,global,reloc=2,class=CODE,delta=1
    18                           	psect	text9,global,reloc=2,class=CODE,delta=1
    19                           	psect	intcodelo,global,reloc=2,class=CODE,delta=1
    20                           	psect	intcode,global,reloc=2,class=CODE,delta=1
    21                           	psect	intcode_body,global,reloc=2,class=CODE,delta=1
    22                           	psect	intsave_regs,global,class=BIGRAM,space=1,delta=1,noexec
    23                           	psect	rparam,global,class=COMRAM,space=1,delta=1,noexec
    24                           	psect	temp,global,ovrld,common,class=COMRAM,space=1,delta=1
    25                           	psect	idloc,global,abs,ovrld,class=IDLOC,space=5,delta=1,noexec
    26                           	psect	config,global,abs,ovrld,class=CONFIG,space=4,delta=1,noexec
    27  0000                     
    28                           ; Version 2.20
    29                           ; Generated 05/05/2020 GMT
    30                           ; 
    31                           ; Copyright © 2020, Microchip Technology Inc. and its subsidiaries ("Microchip")
    32                           ; All rights reserved.
    33                           ; 
    34                           ; This software is developed by Microchip Technology Inc. and its subsidiaries ("Microch
      +                          ip").
    35                           ; 
    36                           ; Redistribution and use in source and binary forms, with or without modification, are
    37                           ; permitted provided that the following conditions are met:
    38                           ; 
    39                           ;     1. Redistributions of source code must retain the above copyright notice, this lis
      +                          t of
    40                           ;        conditions and the following disclaimer.
    41                           ; 
    42                           ;     2. Redistributions in binary form must reproduce the above copyright notice, this 
      +                          list
    43                           ;        of conditions and the following disclaimer in the documentation and/or other
    44                           ;        materials provided with the distribution.
    45                           ; 
    46                           ;     3. Microchip's name may not be used to endorse or promote products derived from th
      +                          is
    47                           ;        software without specific prior written permission.
    48                           ; 
    49                           ; THIS SOFTWARE IS PROVIDED BY MICROCHIP "AS IS" AND ANY EXPRESS OR IMPLIED WARRANTIES,
    50                           ; INCLUDING, BUT NOT LIMITED TO, THE IMPLIED WARRANTIES OF MERCHANTABILITY AND FITNESS F
      +                          OR
    51                           ; PURPOSE ARE DISCLAIMED.  IN NO EVENT SHALL MICROCHIP BE LIABLE FOR ANY DIRECT, INDIREC
      +                          T,
    52                           ; INCIDENTAL, SPECIAL, EXEMPLARY, OR CONSEQUENTIAL DAMAGES (INCLUDING BUT NOT LIMITED TO
    53                           ; PROCUREMENT OF SUBSTITUTE GOODS OR SERVICES; LOSS OF USE, DATA OR PROFITS; OR BUSINESS
    54                           ; INTERRUPTION) HOWSOEVER CAUSED AND ON ANY THEORY OF LIABILITY, WHETHER IN CONTRACT, ST
      +                          RICT
    55                           ; LIABILITY, OR TORT (INCLUDING NEGLIGENCE OR OTHERWISE) ARISING IN ANY WAY OUT OF THE U
      +                          SE OF
    56                           ; THIS SOFTWARE, EVEN IF ADVISED OF THE POSSIBILITY OF SUCH DAMAGE.
    57                           ; 
    58                           ; 
    59                           ; Code-generator required, PIC18F45K20 Definitions
    60                           ; 
    61                           ; SFR Addresses
    62  0000                     
    63                           	psect	nvCOMRAM
    64  000054                     __pnvCOMRAM:
    65                           	callstack 0
    66  000054                     _neutral_pos:
    67                           	callstack 0
    68  000054                     	ds	2
    69  0000                     _TRISD	set	3989
    70  0000                     _ADRESH	set	4036
    71  0000                     _ADRESL	set	4035
    72  0000                     _PORTD	set	3971
    73  0000                     _ADIF	set	31990
    74  0000                     _ADON	set	32272
    75  0000                     _CHS0	set	32274
    76  0000                     _CHS1	set	32275
    77  0000                     _CHS2	set	32276
    78  0000                     _CHS3	set	32277
    79  0000                     _VCFG0	set	32268
    80  0000                     _VCFG1	set	32269
    81  0000                     _ADCS0	set	32256
    82  0000                     _ADCS1	set	32257
    83  0000                     _ADCS2	set	32258
    84  0000                     _ACQT0	set	32259
    85  0000                     _ACQT1	set	32260
    86  0000                     _ACQT2	set	32261
    87  0000                     _ADFM	set	32263
    88  0000                     _ANS0	set	31728
    89  0000                     _TRISA0	set	31888
    90  0000                     _GO	set	32273
    91                           
    92                           ; #config settings
    93                           
    94                           	psect	cinit
    95  000E36                     __pcinit:
    96                           	callstack 0
    97  000E36                     start_initialization:
    98                           	callstack 0
    99  000E36                     __initialization:
   100                           	callstack 0
   101                           
   102                           ; Clear objects allocated to COMRAM (8 bytes)
   103  000E36  EE00  F04C         	lfsr	0,__pbssCOMRAM
   104  000E3A  0E08               	movlw	8
   105  000E3C                     clear_0:
   106  000E3C  6AEE               	clrf	postinc0,c
   107  000E3E  06E8               	decf	wreg,f,c
   108  000E40  E1FD               	bnz	clear_0
   109  000E42                     end_of_initialization:
   110                           	callstack 0
   111  000E42                     __end_of__initialization:
   112                           	callstack 0
   113  000E42  9056               	bcf	int$flags,0,c	;clear compiler interrupt flag (level 1)
   114  000E44  9256               	bcf	int$flags,1,c	;clear compiler interrupt flag (level 2)
   115  000E46  0100               	movlb	0
   116  000E48  EF64  F005         	goto	_main	;jump to C main() function
   117                           
   118                           	psect	bssCOMRAM
   119  00004C                     __pbssCOMRAM:
   120                           	callstack 0
   121  00004C                     _duty_cycle:
   122                           	callstack 0
   123  00004C                     	ds	2
   124  00004E                     _min_pos:
   125                           	callstack 0
   126  00004E                     	ds	2
   127  000050                     _max_pos:
   128                           	callstack 0
   129  000050                     	ds	2
   130  000052                     _real_pos:
   131                           	callstack 0
   132  000052                     	ds	2
   133                           
   134                           	psect	cstackCOMRAM
   135  000001                     __pcstackCOMRAM:
   136                           	callstack 0
   137  000001                     ??_low_isr:
   138  000001                     
   139                           ; 1 bytes @ 0x0
   140  000001                     	ds	1
   141  000002                     ?_Neutral_Init:
   142                           	callstack 0
   143  000002                     ?_Continous_Read:
   144                           	callstack 0
   145  000002                     ?___xxtofl:
   146                           	callstack 0
   147  000002                     ___xxtofl@val:
   148                           	callstack 0
   149                           
   150                           ; 4 bytes @ 0x1
   151  000002                     	ds	2
   152  000004                     ??_Neutral_Init:
   153  000004                     ??_Continous_Read:
   154                           
   155                           ; 1 bytes @ 0x3
   156  000004                     	ds	2
   157  000006                     ??___xxtofl:
   158  000006                     Neutral_Init@temp:
   159                           	callstack 0
   160  000006                     Continous_Read@temp:
   161                           	callstack 0
   162                           
   163                           ; 2 bytes @ 0x5
   164  000006                     	ds	4
   165  00000A                     ___xxtofl@sign:
   166                           	callstack 0
   167                           
   168                           ; 1 bytes @ 0x9
   169  00000A                     	ds	1
   170  00000B                     ___xxtofl@exp:
   171                           	callstack 0
   172                           
   173                           ; 1 bytes @ 0xA
   174  00000B                     	ds	1
   175  00000C                     ___xxtofl@arg:
   176                           	callstack 0
   177                           
   178                           ; 4 bytes @ 0xB
   179  00000C                     	ds	4
   180  000010                     ?___flmul:
   181                           	callstack 0
   182  000010                     ___flmul@b:
   183                           	callstack 0
   184                           
   185                           ; 4 bytes @ 0xF
   186  000010                     	ds	4
   187  000014                     ___flmul@a:
   188                           	callstack 0
   189                           
   190                           ; 4 bytes @ 0x13
   191  000014                     	ds	4
   192  000018                     ??___flmul:
   193                           
   194                           ; 1 bytes @ 0x17
   195  000018                     	ds	4
   196  00001C                     ___flmul@sign:
   197                           	callstack 0
   198                           
   199                           ; 1 bytes @ 0x1B
   200  00001C                     	ds	1
   201  00001D                     ___flmul@grs:
   202                           	callstack 0
   203                           
   204                           ; 4 bytes @ 0x1C
   205  00001D                     	ds	4
   206  000021                     ___flmul@aexp:
   207                           	callstack 0
   208                           
   209                           ; 1 bytes @ 0x20
   210  000021                     	ds	1
   211  000022                     ___flmul@bexp:
   212                           	callstack 0
   213                           
   214                           ; 1 bytes @ 0x21
   215  000022                     	ds	1
   216  000023                     ___flmul@prod:
   217                           	callstack 0
   218                           
   219                           ; 4 bytes @ 0x22
   220  000023                     	ds	4
   221  000027                     ___flmul@temp:
   222                           	callstack 0
   223                           
   224                           ; 2 bytes @ 0x26
   225  000027                     	ds	2
   226  000029                     ?___fladd:
   227                           	callstack 0
   228  000029                     ___fladd@b:
   229                           	callstack 0
   230                           
   231                           ; 4 bytes @ 0x28
   232  000029                     	ds	4
   233  00002D                     ___fladd@a:
   234                           	callstack 0
   235                           
   236                           ; 4 bytes @ 0x2C
   237  00002D                     	ds	4
   238  000031                     ??___fladd:
   239                           
   240                           ; 1 bytes @ 0x30
   241  000031                     	ds	4
   242  000035                     ___fladd@signs:
   243                           	callstack 0
   244                           
   245                           ; 1 bytes @ 0x34
   246  000035                     	ds	1
   247  000036                     ___fladd@aexp:
   248                           	callstack 0
   249                           
   250                           ; 1 bytes @ 0x35
   251  000036                     	ds	1
   252  000037                     ___fladd@bexp:
   253                           	callstack 0
   254                           
   255                           ; 1 bytes @ 0x36
   256  000037                     	ds	1
   257  000038                     ___fladd@grs:
   258                           	callstack 0
   259                           
   260                           ; 1 bytes @ 0x37
   261  000038                     	ds	1
   262  000039                     ?___flsub:
   263                           	callstack 0
   264  000039                     ___flsub@b:
   265                           	callstack 0
   266                           
   267                           ; 4 bytes @ 0x38
   268  000039                     	ds	4
   269  00003D                     ___flsub@a:
   270                           	callstack 0
   271                           
   272                           ; 4 bytes @ 0x3C
   273  00003D                     	ds	4
   274  000041                     ?___fltol:
   275                           	callstack 0
   276  000041                     ___fltol@f1:
   277                           	callstack 0
   278                           
   279                           ; 4 bytes @ 0x40
   280  000041                     	ds	4
   281  000045                     ??___fltol:
   282                           
   283                           ; 1 bytes @ 0x44
   284  000045                     	ds	4
   285  000049                     ___fltol@sign1:
   286                           	callstack 0
   287                           
   288                           ; 1 bytes @ 0x48
   289  000049                     	ds	1
   290  00004A                     ___fltol@exp1:
   291                           	callstack 0
   292                           
   293                           ; 1 bytes @ 0x49
   294  00004A                     	ds	1
   295  00004B                     ??_main:
   296                           
   297                           ; 1 bytes @ 0x4A
   298  00004B                     	ds	1
   299                           
   300 ;;
   301 ;;Main: autosize = 0, tempsize = 1, incstack = 0, save=0
   302 ;;
   303 ;; *************** function _main *****************
   304 ;; Defined at:
   305 ;;		line 91 in file "main.c"
   306 ;; Parameters:    Size  Location     Type
   307 ;;		None
   308 ;; Auto vars:     Size  Location     Type
   309 ;;		None
   310 ;; Return value:  Size  Location     Type
   311 ;;                  1    wreg      void 
   312 ;; Registers used:
   313 ;;		wreg, status,2, status,0, prodl, prodh, cstack
   314 ;; Tracked objects:
   315 ;;		On entry : 0/0
   316 ;;		On exit  : 0/0
   317 ;;		Unchanged: 0/0
   318 ;; Data sizes:     COMRAM   BANK0   BANK1   BANK2   BANK3   BANK4   BANK5
   319 ;;      Params:         0       0       0       0       0       0       0
   320 ;;      Locals:         0       0       0       0       0       0       0
   321 ;;      Temps:          1       0       0       0       0       0       0
   322 ;;      Totals:         1       0       0       0       0       0       0
   323 ;;Total ram usage:        1 bytes
   324 ;; Hardware stack levels required when called:    4
   325 ;; This function calls:
   326 ;;		_ConfigureOscillator
   327 ;;		_Continous_Read
   328 ;;		_InitApp
   329 ;;		_Neutral_Init
   330 ;;		___fladd
   331 ;;		___flmul
   332 ;;		___flsub
   333 ;;		___fltol
   334 ;;		___xxtofl
   335 ;; This function is called by:
   336 ;;		Startup code after reset
   337 ;; This function uses a non-reentrant model
   338 ;;
   339                           
   340                           	psect	text0
   341  000AC8                     __ptext0:
   342                           	callstack 0
   343  000AC8                     _main:
   344                           	callstack 27
   345  000AC8                     
   346                           ;main.c: 94:     ConfigureOscillator();
   347  000AC8  EC28  F007         	call	_ConfigureOscillator	;wreg free
   348  000ACC                     
   349                           ;main.c: 97:     InitApp();
   350  000ACC  EC07  F007         	call	_InitApp	;wreg free
   351  000AD0                     
   352                           ;main.c: 101:     neutral_pos = Neutral_Init();
   353  000AD0  ECD8  F006         	call	_Neutral_Init	;wreg free
   354  000AD4  C002  F054         	movff	?_Neutral_Init,_neutral_pos
   355  000AD8  C003  F055         	movff	?_Neutral_Init+1,_neutral_pos+1
   356  000ADC                     
   357                           ;main.c: 105:     PORTD=0x00;
   358  000ADC  0E00               	movlw	0
   359  000ADE  6E83               	movwf	131,c	;volatile
   360  000AE0                     
   361                           ;main.c: 106:      _delay((unsigned long)((2)*(8000000/4000.0)));
   362  000AE0  0E06               	movlw	6
   363  000AE2  6E4B               	movwf	??_main^0,c
   364  000AE4  0E30               	movlw	48
   365  000AE6                     u1557:
   366  000AE6  2EE8               	decfsz	wreg,f,c
   367  000AE8  D7FE               	bra	u1557
   368  000AEA  2E4B               	decfsz	??_main^0,f,c
   369  000AEC  D7FC               	bra	u1557
   370  000AEE  F000 F000          	nop2	
   371  000AF2                     
   372                           ;main.c: 107:     PORTD=0xFF;
   373  000AF2  6883               	setf	131,c	;volatile
   374  000AF4                     
   375                           ;main.c: 108:      _delay((unsigned long)((2)*(8000000/4000.0)));
   376  000AF4  0E06               	movlw	6
   377  000AF6  6E4B               	movwf	??_main^0,c
   378  000AF8  0E30               	movlw	48
   379  000AFA                     u1567:
   380  000AFA  2EE8               	decfsz	wreg,f,c
   381  000AFC  D7FE               	bra	u1567
   382  000AFE  2E4B               	decfsz	??_main^0,f,c
   383  000B00  D7FC               	bra	u1567
   384  000B02  F000 F000          	nop2	
   385  000B06                     
   386                           ;main.c: 109:      PORTD=0x00;
   387  000B06  0E00               	movlw	0
   388  000B08  6E83               	movwf	131,c	;volatile
   389  000B0A                     
   390                           ;main.c: 113:     min_pos = neutral_pos - (neutral_pos*0.20);
   391  000B0A  0ECD               	movlw	205
   392  000B0C  6E14               	movwf	___flmul@a^0,c
   393  000B0E  0ECC               	movlw	204
   394  000B10  6E15               	movwf	(___flmul@a+1)^0,c
   395  000B12  0E4C               	movlw	76
   396  000B14  6E16               	movwf	(___flmul@a+2)^0,c
   397  000B16  0E3E               	movlw	62
   398  000B18  6E17               	movwf	(___flmul@a+3)^0,c
   399  000B1A  C054  F002         	movff	_neutral_pos,___xxtofl@val
   400  000B1E  C055  F003         	movff	_neutral_pos+1,___xxtofl@val+1
   401  000B22  6A04               	clrf	(___xxtofl@val+2)^0,c
   402  000B24  6A05               	clrf	(___xxtofl@val+3)^0,c
   403  000B26  0E00               	movlw	0
   404  000B28  EC8A  F004         	call	___xxtofl
   405  000B2C  C002  F010         	movff	?___xxtofl,___flmul@b
   406  000B30  C003  F011         	movff	?___xxtofl+1,___flmul@b+1
   407  000B34  C004  F012         	movff	?___xxtofl+2,___flmul@b+2
   408  000B38  C005  F013         	movff	?___xxtofl+3,___flmul@b+3
   409  000B3C  EC75  F002         	call	___flmul	;wreg free
   410  000B40  C010  F03D         	movff	?___flmul,___flsub@a
   411  000B44  C011  F03E         	movff	?___flmul+1,___flsub@a+1
   412  000B48  C012  F03F         	movff	?___flmul+2,___flsub@a+2
   413  000B4C  C013  F040         	movff	?___flmul+3,___flsub@a+3
   414  000B50  C054  F002         	movff	_neutral_pos,___xxtofl@val
   415  000B54  C055  F003         	movff	_neutral_pos+1,___xxtofl@val+1
   416  000B58  6A04               	clrf	(___xxtofl@val+2)^0,c
   417  000B5A  6A05               	clrf	(___xxtofl@val+3)^0,c
   418  000B5C  0E00               	movlw	0
   419  000B5E  EC8A  F004         	call	___xxtofl
   420  000B62  C002  F039         	movff	?___xxtofl,___flsub@b
   421  000B66  C003  F03A         	movff	?___xxtofl+1,___flsub@b+1
   422  000B6A  C004  F03B         	movff	?___xxtofl+2,___flsub@b+2
   423  000B6E  C005  F03C         	movff	?___xxtofl+3,___flsub@b+3
   424  000B72  ECB5  F006         	call	___flsub	;wreg free
   425  000B76  C039  F041         	movff	?___flsub,___fltol@f1
   426  000B7A  C03A  F042         	movff	?___flsub+1,___fltol@f1+1
   427  000B7E  C03B  F043         	movff	?___flsub+2,___fltol@f1+2
   428  000B82  C03C  F044         	movff	?___flsub+3,___fltol@f1+3
   429  000B86  EC32  F006         	call	___fltol	;wreg free
   430  000B8A  C041  F04E         	movff	?___fltol,_min_pos
   431  000B8E  C042  F04F         	movff	?___fltol+1,_min_pos+1
   432  000B92                     
   433                           ;main.c: 114:     max_pos = neutral_pos + (neutral_pos*0.20);
   434  000B92  0ECD               	movlw	205
   435  000B94  6E14               	movwf	___flmul@a^0,c
   436  000B96  0ECC               	movlw	204
   437  000B98  6E15               	movwf	(___flmul@a+1)^0,c
   438  000B9A  0E4C               	movlw	76
   439  000B9C  6E16               	movwf	(___flmul@a+2)^0,c
   440  000B9E  0E3E               	movlw	62
   441  000BA0  6E17               	movwf	(___flmul@a+3)^0,c
   442  000BA2  C054  F002         	movff	_neutral_pos,___xxtofl@val
   443  000BA6  C055  F003         	movff	_neutral_pos+1,___xxtofl@val+1
   444  000BAA  6A04               	clrf	(___xxtofl@val+2)^0,c
   445  000BAC  6A05               	clrf	(___xxtofl@val+3)^0,c
   446  000BAE  0E00               	movlw	0
   447  000BB0  EC8A  F004         	call	___xxtofl
   448  000BB4  C002  F010         	movff	?___xxtofl,___flmul@b
   449  000BB8  C003  F011         	movff	?___xxtofl+1,___flmul@b+1
   450  000BBC  C004  F012         	movff	?___xxtofl+2,___flmul@b+2
   451  000BC0  C005  F013         	movff	?___xxtofl+3,___flmul@b+3
   452  000BC4  EC75  F002         	call	___flmul	;wreg free
   453  000BC8  C010  F02D         	movff	?___flmul,___fladd@a
   454  000BCC  C011  F02E         	movff	?___flmul+1,___fladd@a+1
   455  000BD0  C012  F02F         	movff	?___flmul+2,___fladd@a+2
   456  000BD4  C013  F030         	movff	?___flmul+3,___fladd@a+3
   457  000BD8  C054  F002         	movff	_neutral_pos,___xxtofl@val
   458  000BDC  C055  F003         	movff	_neutral_pos+1,___xxtofl@val+1
   459  000BE0  6A04               	clrf	(___xxtofl@val+2)^0,c
   460  000BE2  6A05               	clrf	(___xxtofl@val+3)^0,c
   461  000BE4  0E00               	movlw	0
   462  000BE6  EC8A  F004         	call	___xxtofl
   463  000BEA  C002  F029         	movff	?___xxtofl,___fladd@b
   464  000BEE  C003  F02A         	movff	?___xxtofl+1,___fladd@b+1
   465  000BF2  C004  F02B         	movff	?___xxtofl+2,___fladd@b+2
   466  000BF6  C005  F02C         	movff	?___xxtofl+3,___fladd@b+3
   467  000BFA  EC15  F000         	call	___fladd	;wreg free
   468  000BFE  C029  F041         	movff	?___fladd,___fltol@f1
   469  000C02  C02A  F042         	movff	?___fladd+1,___fltol@f1+1
   470  000C06  C02B  F043         	movff	?___fladd+2,___fltol@f1+2
   471  000C0A  C02C  F044         	movff	?___fladd+3,___fltol@f1+3
   472  000C0E  EC32  F006         	call	___fltol	;wreg free
   473  000C12  C041  F050         	movff	?___fltol,_max_pos
   474  000C16  C042  F051         	movff	?___fltol+1,_max_pos+1
   475  000C1A                     l1761:
   476                           
   477                           ;main.c: 118:    {;main.c: 120:     real_pos = Continous_Read();
   478  000C1A  ECF0  F006         	call	_Continous_Read	;wreg free
   479  000C1E  C002  F052         	movff	?_Continous_Read,_real_pos
   480  000C22  C003  F053         	movff	?_Continous_Read+1,_real_pos+1
   481  000C26                     
   482                           ;main.c: 122:      if ((real_pos>=min_pos)&&(real_pos<=max_pos)){
   483  000C26  504E               	movf	_min_pos^0,w,c
   484  000C28  5C52               	subwf	_real_pos^0,w,c
   485  000C2A  504F               	movf	(_min_pos+1)^0,w,c
   486  000C2C  5853               	subwfb	(_real_pos+1)^0,w,c
   487  000C2E  A0D8               	btfss	status,0,c
   488  000C30  EF1C  F006         	goto	u1531
   489  000C34  EF1E  F006         	goto	u1530
   490  000C38                     u1531:
   491  000C38  EF2D  F006         	goto	l53
   492  000C3C                     u1530:
   493  000C3C  5052               	movf	_real_pos^0,w,c
   494  000C3E  5C50               	subwf	_max_pos^0,w,c
   495  000C40  5053               	movf	(_real_pos+1)^0,w,c
   496  000C42  5851               	subwfb	(_max_pos+1)^0,w,c
   497  000C44  A0D8               	btfss	status,0,c
   498  000C46  EF27  F006         	goto	u1541
   499  000C4A  EF29  F006         	goto	u1540
   500  000C4E                     u1541:
   501  000C4E  EF2D  F006         	goto	l53
   502  000C52                     u1540:
   503  000C52                     
   504                           ;main.c: 124:       PORTD=0x00;
   505  000C52  0E00               	movlw	0
   506  000C54  6E83               	movwf	131,c	;volatile
   507                           
   508                           ;main.c: 126:      }
   509  000C56  EF0D  F006         	goto	l1761
   510  000C5A                     l53:
   511                           
   512                           ;main.c: 130:      PORTD=0xFF;
   513  000C5A  6883               	setf	131,c	;volatile
   514  000C5C  EF0D  F006         	goto	l1761
   515  000C60  EF13  F000         	goto	start
   516  000C64                     __end_of_main:
   517                           	callstack 0
   518                           
   519 ;; *************** function ___xxtofl *****************
   520 ;; Defined at:
   521 ;;		line 10 in file "C:\Program Files\Microchip\xc8\v2.30\pic\sources\c99\common\xxtofl.c"
   522 ;; Parameters:    Size  Location     Type
   523 ;;  sign            1    wreg     unsigned char 
   524 ;;  val             4    1[COMRAM] long 
   525 ;; Auto vars:     Size  Location     Type
   526 ;;  sign            1    9[COMRAM] unsigned char 
   527 ;;  arg             4   11[COMRAM] unsigned long 
   528 ;;  exp             1   10[COMRAM] unsigned char 
   529 ;; Return value:  Size  Location     Type
   530 ;;                  4    1[COMRAM] unsigned char 
   531 ;; Registers used:
   532 ;;		wreg, status,2, status,0
   533 ;; Tracked objects:
   534 ;;		On entry : 0/0
   535 ;;		On exit  : 0/0
   536 ;;		Unchanged: 0/0
   537 ;; Data sizes:     COMRAM   BANK0   BANK1   BANK2   BANK3   BANK4   BANK5
   538 ;;      Params:         4       0       0       0       0       0       0
   539 ;;      Locals:         6       0       0       0       0       0       0
   540 ;;      Temps:          4       0       0       0       0       0       0
   541 ;;      Totals:        14       0       0       0       0       0       0
   542 ;;Total ram usage:       14 bytes
   543 ;; Hardware stack levels used:    1
   544 ;; Hardware stack levels required when called:    2
   545 ;; This function calls:
   546 ;;		Nothing
   547 ;; This function is called by:
   548 ;;		_main
   549 ;; This function uses a non-reentrant model
   550 ;;
   551                           
   552                           	psect	text1
   553  000914                     __ptext1:
   554                           	callstack 0
   555  000914                     ___xxtofl:
   556                           	callstack 28
   557                           
   558                           ;incstack = 0
   559                           ;___xxtofl@sign stored from wreg
   560  000914  6E0A               	movwf	___xxtofl@sign^0,c
   561  000916  500A               	movf	___xxtofl@sign^0,w,c
   562  000918  B4D8               	btfsc	status,2,c
   563  00091A  EF91  F004         	goto	u1431
   564  00091E  EF93  F004         	goto	u1430
   565  000922                     u1431:
   566  000922  EFB5  F004         	goto	l757
   567  000926                     u1430:
   568  000926  BE05               	btfsc	(___xxtofl@val+3)^0,7,c
   569  000928  EF9A  F004         	goto	u1440
   570  00092C  EF98  F004         	goto	u1441
   571  000930                     u1441:
   572  000930  EFB5  F004         	goto	l757
   573  000934                     u1440:
   574  000934  C002  F006         	movff	___xxtofl@val,??___xxtofl
   575  000938  C003  F007         	movff	___xxtofl@val+1,??___xxtofl+1
   576  00093C  C004  F008         	movff	___xxtofl@val+2,??___xxtofl+2
   577  000940  C005  F009         	movff	___xxtofl@val+3,??___xxtofl+3
   578  000944  1E06               	comf	??___xxtofl^0,f,c
   579  000946  1E07               	comf	(??___xxtofl+1)^0,f,c
   580  000948  1E08               	comf	(??___xxtofl+2)^0,f,c
   581  00094A  1E09               	comf	(??___xxtofl+3)^0,f,c
   582  00094C  2A06               	incf	??___xxtofl^0,f,c
   583  00094E  0E00               	movlw	0
   584  000950  2207               	addwfc	(??___xxtofl+1)^0,f,c
   585  000952  2208               	addwfc	(??___xxtofl+2)^0,f,c
   586  000954  2209               	addwfc	(??___xxtofl+3)^0,f,c
   587  000956  C006  F00C         	movff	??___xxtofl,___xxtofl@arg
   588  00095A  C007  F00D         	movff	??___xxtofl+1,___xxtofl@arg+1
   589  00095E  C008  F00E         	movff	??___xxtofl+2,___xxtofl@arg+2
   590  000962  C009  F00F         	movff	??___xxtofl+3,___xxtofl@arg+3
   591  000966  EFBD  F004         	goto	l1701
   592  00096A                     l757:
   593  00096A  C002  F00C         	movff	___xxtofl@val,___xxtofl@arg
   594  00096E  C003  F00D         	movff	___xxtofl@val+1,___xxtofl@arg+1
   595  000972  C004  F00E         	movff	___xxtofl@val+2,___xxtofl@arg+2
   596  000976  C005  F00F         	movff	___xxtofl@val+3,___xxtofl@arg+3
   597  00097A                     l1701:
   598  00097A  5002               	movf	___xxtofl@val^0,w,c
   599  00097C  1003               	iorwf	(___xxtofl@val+1)^0,w,c
   600  00097E  1004               	iorwf	(___xxtofl@val+2)^0,w,c
   601  000980  1005               	iorwf	(___xxtofl@val+3)^0,w,c
   602  000982  A4D8               	btfss	status,2,c
   603  000984  EFC6  F004         	goto	u1451
   604  000988  EFC8  F004         	goto	u1450
   605  00098C                     u1451:
   606  00098C  EFD2  F004         	goto	l1707
   607  000990                     u1450:
   608  000990  0E00               	movlw	0
   609  000992  6E02               	movwf	?___xxtofl^0,c
   610  000994  0E00               	movlw	0
   611  000996  6E03               	movwf	(?___xxtofl+1)^0,c
   612  000998  0E00               	movlw	0
   613  00099A  6E04               	movwf	(?___xxtofl+2)^0,c
   614  00099C  0E00               	movlw	0
   615  00099E  6E05               	movwf	(?___xxtofl+3)^0,c
   616  0009A0  EF63  F005         	goto	l760
   617  0009A4                     l1707:
   618  0009A4  0E96               	movlw	150
   619  0009A6  6E0B               	movwf	___xxtofl@exp^0,c
   620  0009A8  EFDC  F004         	goto	l1711
   621  0009AC                     l1709:
   622  0009AC  2A0B               	incf	___xxtofl@exp^0,f,c
   623  0009AE  90D8               	bcf	status,0,c
   624  0009B0  320F               	rrcf	(___xxtofl@arg+3)^0,f,c
   625  0009B2  320E               	rrcf	(___xxtofl@arg+2)^0,f,c
   626  0009B4  320D               	rrcf	(___xxtofl@arg+1)^0,f,c
   627  0009B6  320C               	rrcf	___xxtofl@arg^0,f,c
   628  0009B8                     l1711:
   629  0009B8  0E00               	movlw	0
   630  0009BA  140C               	andwf	___xxtofl@arg^0,w,c
   631  0009BC  6E06               	movwf	??___xxtofl^0,c
   632  0009BE  0E00               	movlw	0
   633  0009C0  140D               	andwf	(___xxtofl@arg+1)^0,w,c
   634  0009C2  6E07               	movwf	(??___xxtofl+1)^0,c
   635  0009C4  0E00               	movlw	0
   636  0009C6  140E               	andwf	(___xxtofl@arg+2)^0,w,c
   637  0009C8  6E08               	movwf	(??___xxtofl+2)^0,c
   638  0009CA  0EFE               	movlw	254
   639  0009CC  140F               	andwf	(___xxtofl@arg+3)^0,w,c
   640  0009CE  6E09               	movwf	(??___xxtofl+3)^0,c
   641  0009D0  5006               	movf	??___xxtofl^0,w,c
   642  0009D2  1007               	iorwf	(??___xxtofl+1)^0,w,c
   643  0009D4  1008               	iorwf	(??___xxtofl+2)^0,w,c
   644  0009D6  1009               	iorwf	(??___xxtofl+3)^0,w,c
   645  0009D8  A4D8               	btfss	status,2,c
   646  0009DA  EFF1  F004         	goto	u1461
   647  0009DE  EFF3  F004         	goto	u1460
   648  0009E2                     u1461:
   649  0009E2  EFD6  F004         	goto	l1709
   650  0009E6                     u1460:
   651  0009E6  EF01  F005         	goto	l764
   652  0009EA                     l1713:
   653  0009EA  2A0B               	incf	___xxtofl@exp^0,f,c
   654  0009EC  0E01               	movlw	1
   655  0009EE  260C               	addwf	___xxtofl@arg^0,f,c
   656  0009F0  0E00               	movlw	0
   657  0009F2  220D               	addwfc	(___xxtofl@arg+1)^0,f,c
   658  0009F4  220E               	addwfc	(___xxtofl@arg+2)^0,f,c
   659  0009F6  220F               	addwfc	(___xxtofl@arg+3)^0,f,c
   660  0009F8  90D8               	bcf	status,0,c
   661  0009FA  320F               	rrcf	(___xxtofl@arg+3)^0,f,c
   662  0009FC  320E               	rrcf	(___xxtofl@arg+2)^0,f,c
   663  0009FE  320D               	rrcf	(___xxtofl@arg+1)^0,f,c
   664  000A00  320C               	rrcf	___xxtofl@arg^0,f,c
   665  000A02                     l764:
   666  000A02  0E00               	movlw	0
   667  000A04  140C               	andwf	___xxtofl@arg^0,w,c
   668  000A06  6E06               	movwf	??___xxtofl^0,c
   669  000A08  0E00               	movlw	0
   670  000A0A  140D               	andwf	(___xxtofl@arg+1)^0,w,c
   671  000A0C  6E07               	movwf	(??___xxtofl+1)^0,c
   672  000A0E  0E00               	movlw	0
   673  000A10  140E               	andwf	(___xxtofl@arg+2)^0,w,c
   674  000A12  6E08               	movwf	(??___xxtofl+2)^0,c
   675  000A14  0EFF               	movlw	255
   676  000A16  140F               	andwf	(___xxtofl@arg+3)^0,w,c
   677  000A18  6E09               	movwf	(??___xxtofl+3)^0,c
   678  000A1A  5006               	movf	??___xxtofl^0,w,c
   679  000A1C  1007               	iorwf	(??___xxtofl+1)^0,w,c
   680  000A1E  1008               	iorwf	(??___xxtofl+2)^0,w,c
   681  000A20  1009               	iorwf	(??___xxtofl+3)^0,w,c
   682  000A22  A4D8               	btfss	status,2,c
   683  000A24  EF16  F005         	goto	u1471
   684  000A28  EF18  F005         	goto	u1470
   685  000A2C                     u1471:
   686  000A2C  EFF5  F004         	goto	l1713
   687  000A30                     u1470:
   688  000A30  EF20  F005         	goto	l1721
   689  000A34                     l1719:
   690  000A34  060B               	decf	___xxtofl@exp^0,f,c
   691  000A36  90D8               	bcf	status,0,c
   692  000A38  360C               	rlcf	___xxtofl@arg^0,f,c
   693  000A3A  360D               	rlcf	(___xxtofl@arg+1)^0,f,c
   694  000A3C  360E               	rlcf	(___xxtofl@arg+2)^0,f,c
   695  000A3E  360F               	rlcf	(___xxtofl@arg+3)^0,f,c
   696  000A40                     l1721:
   697  000A40  BE0E               	btfsc	(___xxtofl@arg+2)^0,7,c
   698  000A42  EF25  F005         	goto	u1481
   699  000A46  EF27  F005         	goto	u1480
   700  000A4A                     u1481:
   701  000A4A  EF2F  F005         	goto	l771
   702  000A4E                     u1480:
   703  000A4E  0E02               	movlw	2
   704  000A50  600B               	cpfslt	___xxtofl@exp^0,c
   705  000A52  EF2D  F005         	goto	u1491
   706  000A56  EF2F  F005         	goto	u1490
   707  000A5A                     u1491:
   708  000A5A  EF1A  F005         	goto	l1719
   709  000A5E                     u1490:
   710  000A5E                     l771:
   711  000A5E  B00B               	btfsc	___xxtofl@exp^0,0,c
   712  000A60  EF34  F005         	goto	u1501
   713  000A64  EF36  F005         	goto	u1500
   714  000A68                     u1501:
   715  000A68  EF37  F005         	goto	l1727
   716  000A6C                     u1500:
   717  000A6C  9E0E               	bcf	(___xxtofl@arg+2)^0,7,c
   718  000A6E                     l1727:
   719  000A6E  90D8               	bcf	status,0,c
   720  000A70  320B               	rrcf	___xxtofl@exp^0,f,c
   721  000A72  C00B  F006         	movff	___xxtofl@exp,??___xxtofl
   722  000A76  6A07               	clrf	(??___xxtofl+1)^0,c
   723  000A78  6A08               	clrf	(??___xxtofl+2)^0,c
   724  000A7A  6A09               	clrf	(??___xxtofl+3)^0,c
   725  000A7C  C006  F009         	movff	??___xxtofl,??___xxtofl+3
   726  000A80  6A08               	clrf	(??___xxtofl+2)^0,c
   727  000A82  6A07               	clrf	(??___xxtofl+1)^0,c
   728  000A84  6A06               	clrf	??___xxtofl^0,c
   729  000A86  5006               	movf	??___xxtofl^0,w,c
   730  000A88  120C               	iorwf	___xxtofl@arg^0,f,c
   731  000A8A  5007               	movf	(??___xxtofl+1)^0,w,c
   732  000A8C  120D               	iorwf	(___xxtofl@arg+1)^0,f,c
   733  000A8E  5008               	movf	(??___xxtofl+2)^0,w,c
   734  000A90  120E               	iorwf	(___xxtofl@arg+2)^0,f,c
   735  000A92  5009               	movf	(??___xxtofl+3)^0,w,c
   736  000A94  120F               	iorwf	(___xxtofl@arg+3)^0,f,c
   737  000A96  500A               	movf	___xxtofl@sign^0,w,c
   738  000A98  B4D8               	btfsc	status,2,c
   739  000A9A  EF51  F005         	goto	u1511
   740  000A9E  EF53  F005         	goto	u1510
   741  000AA2                     u1511:
   742  000AA2  EF5B  F005         	goto	l1737
   743  000AA6                     u1510:
   744  000AA6  BE05               	btfsc	(___xxtofl@val+3)^0,7,c
   745  000AA8  EF5A  F005         	goto	u1520
   746  000AAC  EF58  F005         	goto	u1521
   747  000AB0                     u1521:
   748  000AB0  EF5B  F005         	goto	l1737
   749  000AB4                     u1520:
   750  000AB4  8E0F               	bsf	(___xxtofl@arg+3)^0,7,c
   751  000AB6                     l1737:
   752  000AB6  C00C  F002         	movff	___xxtofl@arg,?___xxtofl
   753  000ABA  C00D  F003         	movff	___xxtofl@arg+1,?___xxtofl+1
   754  000ABE  C00E  F004         	movff	___xxtofl@arg+2,?___xxtofl+2
   755  000AC2  C00F  F005         	movff	___xxtofl@arg+3,?___xxtofl+3
   756  000AC6                     l760:
   757  000AC6  0012               	return		;funcret
   758  000AC8                     __end_of___xxtofl:
   759                           	callstack 0
   760                           
   761 ;; *************** function ___fltol *****************
   762 ;; Defined at:
   763 ;;		line 43 in file "C:\Program Files\Microchip\xc8\v2.30\pic\sources\c99\common\fltol.c"
   764 ;; Parameters:    Size  Location     Type
   765 ;;  f1              4   64[COMRAM] unsigned char 
   766 ;; Auto vars:     Size  Location     Type
   767 ;;  exp1            1   73[COMRAM] unsigned char 
   768 ;;  sign1           1   72[COMRAM] unsigned char 
   769 ;; Return value:  Size  Location     Type
   770 ;;                  4   64[COMRAM] long 
   771 ;; Registers used:
   772 ;;		wreg, status,2, status,0
   773 ;; Tracked objects:
   774 ;;		On entry : 0/0
   775 ;;		On exit  : 0/0
   776 ;;		Unchanged: 0/0
   777 ;; Data sizes:     COMRAM   BANK0   BANK1   BANK2   BANK3   BANK4   BANK5
   778 ;;      Params:         4       0       0       0       0       0       0
   779 ;;      Locals:         2       0       0       0       0       0       0
   780 ;;      Temps:          4       0       0       0       0       0       0
   781 ;;      Totals:        10       0       0       0       0       0       0
   782 ;;Total ram usage:       10 bytes
   783 ;; Hardware stack levels used:    1
   784 ;; Hardware stack levels required when called:    2
   785 ;; This function calls:
   786 ;;		Nothing
   787 ;; This function is called by:
   788 ;;		_main
   789 ;; This function uses a non-reentrant model
   790 ;;
   791                           
   792                           	psect	text2
   793  000C64                     __ptext2:
   794                           	callstack 0
   795  000C64                     ___fltol:
   796                           	callstack 28
   797  000C64  3443               	rlcf	(___fltol@f1+2)^0,w,c
   798  000C66  3444               	rlcf	(___fltol@f1+3)^0,w,c
   799  000C68  6E4A               	movwf	___fltol@exp1^0,c
   800  000C6A  504A               	movf	___fltol@exp1^0,w,c
   801  000C6C  A4D8               	btfss	status,2,c
   802  000C6E  EF3B  F006         	goto	u1361
   803  000C72  EF3D  F006         	goto	u1360
   804  000C76                     u1361:
   805  000C76  EF47  F006         	goto	l1657
   806  000C7A                     u1360:
   807  000C7A                     l1653:
   808  000C7A  0E00               	movlw	0
   809  000C7C  6E41               	movwf	?___fltol^0,c
   810  000C7E  0E00               	movlw	0
   811  000C80  6E42               	movwf	(?___fltol+1)^0,c
   812  000C82  0E00               	movlw	0
   813  000C84  6E43               	movwf	(?___fltol+2)^0,c
   814  000C86  0E00               	movlw	0
   815  000C88  6E44               	movwf	(?___fltol+3)^0,c
   816  000C8A  EFB4  F006         	goto	l399
   817  000C8E                     l1657:
   818  000C8E  C041  F045         	movff	___fltol@f1,??___fltol
   819  000C92  C042  F046         	movff	___fltol@f1+1,??___fltol+1
   820  000C96  C043  F047         	movff	___fltol@f1+2,??___fltol+2
   821  000C9A  C044  F048         	movff	___fltol@f1+3,??___fltol+3
   822  000C9E  0E20               	movlw	32
   823  000CA0  EF57  F006         	goto	u1370
   824  000CA4                     u1375:
   825  000CA4  90D8               	bcf	status,0,c
   826  000CA6  3248               	rrcf	(??___fltol+3)^0,f,c
   827  000CA8  3247               	rrcf	(??___fltol+2)^0,f,c
   828  000CAA  3246               	rrcf	(??___fltol+1)^0,f,c
   829  000CAC  3245               	rrcf	??___fltol^0,f,c
   830  000CAE                     u1370:
   831  000CAE  2EE8               	decfsz	wreg,f,c
   832  000CB0  EF52  F006         	goto	u1375
   833  000CB4  5045               	movf	??___fltol^0,w,c
   834  000CB6  6E49               	movwf	___fltol@sign1^0,c
   835  000CB8  8E43               	bsf	(___fltol@f1+2)^0,7,c
   836  000CBA  0EFF               	movlw	255
   837  000CBC  1641               	andwf	___fltol@f1^0,f,c
   838  000CBE  0EFF               	movlw	255
   839  000CC0  1642               	andwf	(___fltol@f1+1)^0,f,c
   840  000CC2  0EFF               	movlw	255
   841  000CC4  1643               	andwf	(___fltol@f1+2)^0,f,c
   842  000CC6  0E00               	movlw	0
   843  000CC8  1644               	andwf	(___fltol@f1+3)^0,f,c
   844  000CCA  0E96               	movlw	150
   845  000CCC  5E4A               	subwf	___fltol@exp1^0,f,c
   846  000CCE  BE4A               	btfsc	___fltol@exp1^0,7,c
   847  000CD0  EF6E  F006         	goto	u1380
   848  000CD4  EF6C  F006         	goto	u1381
   849  000CD8                     u1381:
   850  000CD8  EF84  F006         	goto	l1677
   851  000CDC                     u1380:
   852  000CDC  504A               	movf	___fltol@exp1^0,w,c
   853  000CDE  0A80               	xorlw	128
   854  000CE0  0F97               	addlw	151
   855  000CE2  B0D8               	btfsc	status,0,c
   856  000CE4  EF76  F006         	goto	u1391
   857  000CE8  EF78  F006         	goto	u1390
   858  000CEC                     u1391:
   859  000CEC  EF7A  F006         	goto	l1673
   860  000CF0                     u1390:
   861  000CF0  EF3D  F006         	goto	l1653
   862  000CF4                     l1673:
   863  000CF4  90D8               	bcf	status,0,c
   864  000CF6  3244               	rrcf	(___fltol@f1+3)^0,f,c
   865  000CF8  3243               	rrcf	(___fltol@f1+2)^0,f,c
   866  000CFA  3242               	rrcf	(___fltol@f1+1)^0,f,c
   867  000CFC  3241               	rrcf	___fltol@f1^0,f,c
   868  000CFE  3E4A               	incfsz	___fltol@exp1^0,f,c
   869  000D00  EF7A  F006         	goto	l1673
   870  000D04  EF9C  F006         	goto	l1687
   871  000D08                     l1677:
   872  000D08  0E1F               	movlw	31
   873  000D0A  644A               	cpfsgt	___fltol@exp1^0,c
   874  000D0C  EF8A  F006         	goto	u1401
   875  000D10  EF8C  F006         	goto	u1400
   876  000D14                     u1401:
   877  000D14  EF94  F006         	goto	l1685
   878  000D18                     u1400:
   879  000D18  EF3D  F006         	goto	l1653
   880  000D1C                     l1683:
   881  000D1C  90D8               	bcf	status,0,c
   882  000D1E  3641               	rlcf	___fltol@f1^0,f,c
   883  000D20  3642               	rlcf	(___fltol@f1+1)^0,f,c
   884  000D22  3643               	rlcf	(___fltol@f1+2)^0,f,c
   885  000D24  3644               	rlcf	(___fltol@f1+3)^0,f,c
   886  000D26  064A               	decf	___fltol@exp1^0,f,c
   887  000D28                     l1685:
   888  000D28  504A               	movf	___fltol@exp1^0,w,c
   889  000D2A  A4D8               	btfss	status,2,c
   890  000D2C  EF9A  F006         	goto	u1411
   891  000D30  EF9C  F006         	goto	u1410
   892  000D34                     u1411:
   893  000D34  EF8E  F006         	goto	l1683
   894  000D38                     u1410:
   895  000D38                     l1687:
   896  000D38  5049               	movf	___fltol@sign1^0,w,c
   897  000D3A  B4D8               	btfsc	status,2,c
   898  000D3C  EFA2  F006         	goto	u1421
   899  000D40  EFA4  F006         	goto	u1420
   900  000D44                     u1421:
   901  000D44  EFAC  F006         	goto	l1691
   902  000D48                     u1420:
   903  000D48  1E44               	comf	(___fltol@f1+3)^0,f,c
   904  000D4A  1E43               	comf	(___fltol@f1+2)^0,f,c
   905  000D4C  1E42               	comf	(___fltol@f1+1)^0,f,c
   906  000D4E  6C41               	negf	___fltol@f1^0,c
   907  000D50  0E00               	movlw	0
   908  000D52  2242               	addwfc	(___fltol@f1+1)^0,f,c
   909  000D54  2243               	addwfc	(___fltol@f1+2)^0,f,c
   910  000D56  2244               	addwfc	(___fltol@f1+3)^0,f,c
   911  000D58                     l1691:
   912  000D58  C041  F041         	movff	___fltol@f1,?___fltol
   913  000D5C  C042  F042         	movff	___fltol@f1+1,?___fltol+1
   914  000D60  C043  F043         	movff	___fltol@f1+2,?___fltol+2
   915  000D64  C044  F044         	movff	___fltol@f1+3,?___fltol+3
   916  000D68                     l399:
   917  000D68  0012               	return		;funcret
   918  000D6A                     __end_of___fltol:
   919                           	callstack 0
   920                           
   921 ;; *************** function ___flsub *****************
   922 ;; Defined at:
   923 ;;		line 245 in file "C:\Program Files\Microchip\xc8\v2.30\pic\sources\c99\common\sprcadd.c"
   924 ;; Parameters:    Size  Location     Type
   925 ;;  b               4   56[COMRAM] long 
   926 ;;  a               4   60[COMRAM] long 
   927 ;; Auto vars:     Size  Location     Type
   928 ;;		None
   929 ;; Return value:  Size  Location     Type
   930 ;;                  4   56[COMRAM] long 
   931 ;; Registers used:
   932 ;;		wreg, status,2, status,0, cstack
   933 ;; Tracked objects:
   934 ;;		On entry : 0/0
   935 ;;		On exit  : 0/0
   936 ;;		Unchanged: 0/0
   937 ;; Data sizes:     COMRAM   BANK0   BANK1   BANK2   BANK3   BANK4   BANK5
   938 ;;      Params:         8       0       0       0       0       0       0
   939 ;;      Locals:         0       0       0       0       0       0       0
   940 ;;      Temps:          0       0       0       0       0       0       0
   941 ;;      Totals:         8       0       0       0       0       0       0
   942 ;;Total ram usage:        8 bytes
   943 ;; Hardware stack levels used:    1
   944 ;; Hardware stack levels required when called:    3
   945 ;; This function calls:
   946 ;;		___fladd
   947 ;; This function is called by:
   948 ;;		_main
   949 ;; This function uses a non-reentrant model
   950 ;;
   951                           
   952                           	psect	text3
   953  000D6A                     __ptext3:
   954                           	callstack 0
   955  000D6A                     ___flsub:
   956                           	callstack 27
   957  000D6A  0E00               	movlw	0
   958  000D6C  1A3D               	xorwf	___flsub@a^0,f,c
   959  000D6E  0E00               	movlw	0
   960  000D70  1A3E               	xorwf	(___flsub@a+1)^0,f,c
   961  000D72  0E00               	movlw	0
   962  000D74  1A3F               	xorwf	(___flsub@a+2)^0,f,c
   963  000D76  0E80               	movlw	128
   964  000D78  1A40               	xorwf	(___flsub@a+3)^0,f,c
   965  000D7A  C039  F029         	movff	___flsub@b,___fladd@b
   966  000D7E  C03A  F02A         	movff	___flsub@b+1,___fladd@b+1
   967  000D82  C03B  F02B         	movff	___flsub@b+2,___fladd@b+2
   968  000D86  C03C  F02C         	movff	___flsub@b+3,___fladd@b+3
   969  000D8A  C03D  F02D         	movff	___flsub@a,___fladd@a
   970  000D8E  C03E  F02E         	movff	___flsub@a+1,___fladd@a+1
   971  000D92  C03F  F02F         	movff	___flsub@a+2,___fladd@a+2
   972  000D96  C040  F030         	movff	___flsub@a+3,___fladd@a+3
   973  000D9A  EC15  F000         	call	___fladd	;wreg free
   974  000D9E  C029  F039         	movff	?___fladd,?___flsub
   975  000DA2  C02A  F03A         	movff	?___fladd+1,?___flsub+1
   976  000DA6  C02B  F03B         	movff	?___fladd+2,?___flsub+2
   977  000DAA  C02C  F03C         	movff	?___fladd+3,?___flsub+3
   978  000DAE  0012               	return		;funcret
   979  000DB0                     __end_of___flsub:
   980                           	callstack 0
   981                           
   982 ;; *************** function ___fladd *****************
   983 ;; Defined at:
   984 ;;		line 10 in file "C:\Program Files\Microchip\xc8\v2.30\pic\sources\c99\common\sprcadd.c"
   985 ;; Parameters:    Size  Location     Type
   986 ;;  b               4   40[COMRAM] long 
   987 ;;  a               4   44[COMRAM] long 
   988 ;; Auto vars:     Size  Location     Type
   989 ;;  grs             1   55[COMRAM] unsigned char 
   990 ;;  bexp            1   54[COMRAM] unsigned char 
   991 ;;  aexp            1   53[COMRAM] unsigned char 
   992 ;;  signs           1   52[COMRAM] unsigned char 
   993 ;; Return value:  Size  Location     Type
   994 ;;                  4   40[COMRAM] unsigned char 
   995 ;; Registers used:
   996 ;;		wreg, status,2, status,0
   997 ;; Tracked objects:
   998 ;;		On entry : 0/0
   999 ;;		On exit  : 0/0
  1000 ;;		Unchanged: 0/0
  1001 ;; Data sizes:     COMRAM   BANK0   BANK1   BANK2   BANK3   BANK4   BANK5
  1002 ;;      Params:         8       0       0       0       0       0       0
  1003 ;;      Locals:         4       0       0       0       0       0       0
  1004 ;;      Temps:          4       0       0       0       0       0       0
  1005 ;;      Totals:        16       0       0       0       0       0       0
  1006 ;;Total ram usage:       16 bytes
  1007 ;; Hardware stack levels used:    1
  1008 ;; Hardware stack levels required when called:    2
  1009 ;; This function calls:
  1010 ;;		Nothing
  1011 ;; This function is called by:
  1012 ;;		_main
  1013 ;;		___flsub
  1014 ;; This function uses a non-reentrant model
  1015 ;;
  1016                           
  1017                           	psect	text4
  1018  00002A                     __ptext4:
  1019                           	callstack 0
  1020  00002A                     ___fladd:
  1021                           	callstack 27
  1022  00002A  502C               	movf	(___fladd@b+3)^0,w,c
  1023  00002C  0B80               	andlw	128
  1024  00002E  6E35               	movwf	___fladd@signs^0,c
  1025  000030  502C               	movf	(___fladd@b+3)^0,w,c
  1026  000032  242C               	addwf	(___fladd@b+3)^0,w,c
  1027  000034  6E37               	movwf	___fladd@bexp^0,c
  1028  000036  AE2B               	btfss	(___fladd@b+2)^0,7,c
  1029  000038  EF20  F000         	goto	u781
  1030  00003C  EF22  F000         	goto	u780
  1031  000040                     u781:
  1032  000040  EF23  F000         	goto	l1297
  1033  000044                     u780:
  1034  000044  8037               	bsf	___fladd@bexp^0,0,c
  1035  000046                     l1297:
  1036  000046  5037               	movf	___fladd@bexp^0,w,c
  1037  000048  B4D8               	btfsc	status,2,c
  1038  00004A  EF29  F000         	goto	u791
  1039  00004E  EF2B  F000         	goto	u790
  1040  000052                     u791:
  1041  000052  EF40  F000         	goto	l1307
  1042  000056                     u790:
  1043  000056  2837               	incf	___fladd@bexp^0,w,c
  1044  000058  A4D8               	btfss	status,2,c
  1045  00005A  EF31  F000         	goto	u801
  1046  00005E  EF33  F000         	goto	u800
  1047  000062                     u801:
  1048  000062  EF3B  F000         	goto	l1303
  1049  000066                     u800:
  1050  000066  0E00               	movlw	0
  1051  000068  6E29               	movwf	___fladd@b^0,c
  1052  00006A  0E00               	movlw	0
  1053  00006C  6E2A               	movwf	(___fladd@b+1)^0,c
  1054  00006E  0E00               	movlw	0
  1055  000070  6E2B               	movwf	(___fladd@b+2)^0,c
  1056  000072  0E00               	movlw	0
  1057  000074  6E2C               	movwf	(___fladd@b+3)^0,c
  1058  000076                     l1303:
  1059  000076  8E2B               	bsf	(___fladd@b+2)^0,7,c
  1060  000078  0E00               	movlw	0
  1061  00007A  6E2C               	movwf	(___fladd@b+3)^0,c
  1062  00007C  EF48  F000         	goto	l1309
  1063  000080                     l1307:
  1064  000080  0E00               	movlw	0
  1065  000082  6E29               	movwf	___fladd@b^0,c
  1066  000084  0E00               	movlw	0
  1067  000086  6E2A               	movwf	(___fladd@b+1)^0,c
  1068  000088  0E00               	movlw	0
  1069  00008A  6E2B               	movwf	(___fladd@b+2)^0,c
  1070  00008C  0E00               	movlw	0
  1071  00008E  6E2C               	movwf	(___fladd@b+3)^0,c
  1072  000090                     l1309:
  1073  000090  5030               	movf	(___fladd@a+3)^0,w,c
  1074  000092  0B80               	andlw	128
  1075  000094  6E36               	movwf	___fladd@aexp^0,c
  1076  000096  5035               	movf	___fladd@signs^0,w,c
  1077  000098  1836               	xorwf	___fladd@aexp^0,w,c
  1078  00009A  B4D8               	btfsc	status,2,c
  1079  00009C  EF52  F000         	goto	u811
  1080  0000A0  EF54  F000         	goto	u810
  1081  0000A4                     u811:
  1082  0000A4  EF55  F000         	goto	l1315
  1083  0000A8                     u810:
  1084  0000A8  8C35               	bsf	___fladd@signs^0,6,c
  1085  0000AA                     l1315:
  1086  0000AA  5030               	movf	(___fladd@a+3)^0,w,c
  1087  0000AC  2430               	addwf	(___fladd@a+3)^0,w,c
  1088  0000AE  6E36               	movwf	___fladd@aexp^0,c
  1089  0000B0  AE2F               	btfss	(___fladd@a+2)^0,7,c
  1090  0000B2  EF5D  F000         	goto	u821
  1091  0000B6  EF5F  F000         	goto	u820
  1092  0000BA                     u821:
  1093  0000BA  EF60  F000         	goto	l1321
  1094  0000BE                     u820:
  1095  0000BE  8036               	bsf	___fladd@aexp^0,0,c
  1096  0000C0                     l1321:
  1097  0000C0  5036               	movf	___fladd@aexp^0,w,c
  1098  0000C2  B4D8               	btfsc	status,2,c
  1099  0000C4  EF66  F000         	goto	u831
  1100  0000C8  EF68  F000         	goto	u830
  1101  0000CC                     u831:
  1102  0000CC  EF7D  F000         	goto	l1331
  1103  0000D0                     u830:
  1104  0000D0  2836               	incf	___fladd@aexp^0,w,c
  1105  0000D2  A4D8               	btfss	status,2,c
  1106  0000D4  EF6E  F000         	goto	u841
  1107  0000D8  EF70  F000         	goto	u840
  1108  0000DC                     u841:
  1109  0000DC  EF78  F000         	goto	l1327
  1110  0000E0                     u840:
  1111  0000E0  0E00               	movlw	0
  1112  0000E2  6E2D               	movwf	___fladd@a^0,c
  1113  0000E4  0E00               	movlw	0
  1114  0000E6  6E2E               	movwf	(___fladd@a+1)^0,c
  1115  0000E8  0E00               	movlw	0
  1116  0000EA  6E2F               	movwf	(___fladd@a+2)^0,c
  1117  0000EC  0E00               	movlw	0
  1118  0000EE  6E30               	movwf	(___fladd@a+3)^0,c
  1119  0000F0                     l1327:
  1120  0000F0  8E2F               	bsf	(___fladd@a+2)^0,7,c
  1121  0000F2  0E00               	movlw	0
  1122  0000F4  6E30               	movwf	(___fladd@a+3)^0,c
  1123  0000F6  EF85  F000         	goto	l1333
  1124  0000FA                     l1331:
  1125  0000FA  0E00               	movlw	0
  1126  0000FC  6E2D               	movwf	___fladd@a^0,c
  1127  0000FE  0E00               	movlw	0
  1128  000100  6E2E               	movwf	(___fladd@a+1)^0,c
  1129  000102  0E00               	movlw	0
  1130  000104  6E2F               	movwf	(___fladd@a+2)^0,c
  1131  000106  0E00               	movlw	0
  1132  000108  6E30               	movwf	(___fladd@a+3)^0,c
  1133  00010A                     l1333:
  1134  00010A  5037               	movf	___fladd@bexp^0,w,c
  1135  00010C  5C36               	subwf	___fladd@aexp^0,w,c
  1136  00010E  B0D8               	btfsc	status,0,c
  1137  000110  EF8C  F000         	goto	u851
  1138  000114  EF8E  F000         	goto	u850
  1139  000118                     u851:
  1140  000118  EFB5  F000         	goto	l1369
  1141  00011C                     u850:
  1142  00011C  AC35               	btfss	___fladd@signs^0,6,c
  1143  00011E  EF93  F000         	goto	u861
  1144  000122  EF95  F000         	goto	u860
  1145  000126                     u861:
  1146  000126  EF97  F000         	goto	l1339
  1147  00012A                     u860:
  1148  00012A  0E80               	movlw	128
  1149  00012C  1A35               	xorwf	___fladd@signs^0,f,c
  1150  00012E                     l1339:
  1151  00012E  C037  F038         	movff	___fladd@bexp,___fladd@grs
  1152  000132  C036  F037         	movff	___fladd@aexp,___fladd@bexp
  1153  000136  C038  F036         	movff	___fladd@grs,___fladd@aexp
  1154  00013A  C029  F038         	movff	___fladd@b,___fladd@grs
  1155  00013E  C02D  F029         	movff	___fladd@a,___fladd@b
  1156  000142  C038  F02D         	movff	___fladd@grs,___fladd@a
  1157  000146  C02A  F038         	movff	___fladd@b+1,___fladd@grs
  1158  00014A  C02E  F02A         	movff	___fladd@a+1,___fladd@b+1
  1159  00014E  C038  F02E         	movff	___fladd@grs,___fladd@a+1
  1160  000152  C02B  F038         	movff	___fladd@b+2,___fladd@grs
  1161  000156  C02F  F02B         	movff	___fladd@a+2,___fladd@b+2
  1162  00015A  C038  F02F         	movff	___fladd@grs,___fladd@a+2
  1163  00015E  C02C  F038         	movff	___fladd@b+3,___fladd@grs
  1164  000162  C030  F02C         	movff	___fladd@a+3,___fladd@b+3
  1165  000166  C038  F030         	movff	___fladd@grs,___fladd@a+3
  1166  00016A                     l1369:
  1167  00016A  0E00               	movlw	0
  1168  00016C  6E38               	movwf	___fladd@grs^0,c
  1169  00016E  5037               	movf	___fladd@bexp^0,w,c
  1170  000170  C036  F031         	movff	___fladd@aexp,??___fladd
  1171  000174  6A32               	clrf	(??___fladd+1)^0,c
  1172  000176  5E31               	subwf	??___fladd^0,f,c
  1173  000178  0E00               	movlw	0
  1174  00017A  5A32               	subwfb	(??___fladd+1)^0,f,c
  1175  00017C  BE32               	btfsc	(??___fladd+1)^0,7,c
  1176  00017E  EFCA  F000         	goto	u871
  1177  000182  5032               	movf	(??___fladd+1)^0,w,c
  1178  000184  E109               	bnz	u870
  1179  000186  0E1A               	movlw	26
  1180  000188  5C31               	subwf	??___fladd^0,w,c
  1181  00018A  A0D8               	btfss	status,0,c
  1182  00018C  EFCA  F000         	goto	u871
  1183  000190  EFCC  F000         	goto	u870
  1184  000194                     u871:
  1185  000194  EF03  F001         	goto	l631
  1186  000198                     u870:
  1187  000198  5029               	movf	___fladd@b^0,w,c
  1188  00019A  102A               	iorwf	(___fladd@b+1)^0,w,c
  1189  00019C  102B               	iorwf	(___fladd@b+2)^0,w,c
  1190  00019E  102C               	iorwf	(___fladd@b+3)^0,w,c
  1191  0001A0  A4D8               	btfss	status,2,c
  1192  0001A2  EFD5  F000         	goto	u881
  1193  0001A6  EFD8  F000         	goto	u880
  1194  0001AA                     u881:
  1195  0001AA  0E01               	movlw	1
  1196  0001AC  EFD9  F000         	goto	u890
  1197  0001B0                     u880:
  1198  0001B0  0E00               	movlw	0
  1199  0001B2                     u890:
  1200  0001B2  6E38               	movwf	___fladd@grs^0,c
  1201  0001B4  0E00               	movlw	0
  1202  0001B6  6E29               	movwf	___fladd@b^0,c
  1203  0001B8  0E00               	movlw	0
  1204  0001BA  6E2A               	movwf	(___fladd@b+1)^0,c
  1205  0001BC  0E00               	movlw	0
  1206  0001BE  6E2B               	movwf	(___fladd@b+2)^0,c
  1207  0001C0  0E00               	movlw	0
  1208  0001C2  6E2C               	movwf	(___fladd@b+3)^0,c
  1209  0001C4  C036  F037         	movff	___fladd@aexp,___fladd@bexp
  1210  0001C8  EF0C  F001         	goto	l630
  1211  0001CC                     l632:
  1212  0001CC  A038               	btfss	___fladd@grs^0,0,c
  1213  0001CE  EFEB  F000         	goto	u901
  1214  0001D2  EFED  F000         	goto	u900
  1215  0001D6                     u901:
  1216  0001D6  EFF3  F000         	goto	l1381
  1217  0001DA                     u900:
  1218  0001DA  90D8               	bcf	status,0,c
  1219  0001DC  3038               	rrcf	___fladd@grs^0,w,c
  1220  0001DE  0901               	iorlw	1
  1221  0001E0  6E38               	movwf	___fladd@grs^0,c
  1222  0001E2  EFF5  F000         	goto	l1383
  1223  0001E6                     l1381:
  1224  0001E6  90D8               	bcf	status,0,c
  1225  0001E8  3238               	rrcf	___fladd@grs^0,f,c
  1226  0001EA                     l1383:
  1227  0001EA  A029               	btfss	___fladd@b^0,0,c
  1228  0001EC  EFFA  F000         	goto	u911
  1229  0001F0  EFFC  F000         	goto	u910
  1230  0001F4                     u911:
  1231  0001F4  EFFD  F000         	goto	l1387
  1232  0001F8                     u910:
  1233  0001F8  8E38               	bsf	___fladd@grs^0,7,c
  1234  0001FA                     l1387:
  1235  0001FA  342C               	rlcf	(___fladd@b+3)^0,w,c
  1236  0001FC  322C               	rrcf	(___fladd@b+3)^0,f,c
  1237  0001FE  322B               	rrcf	(___fladd@b+2)^0,f,c
  1238  000200  322A               	rrcf	(___fladd@b+1)^0,f,c
  1239  000202  3229               	rrcf	___fladd@b^0,f,c
  1240  000204  2A37               	incf	___fladd@bexp^0,f,c
  1241  000206                     l631:
  1242  000206  5036               	movf	___fladd@aexp^0,w,c
  1243  000208  5C37               	subwf	___fladd@bexp^0,w,c
  1244  00020A  A0D8               	btfss	status,0,c
  1245  00020C  EF0A  F001         	goto	u921
  1246  000210  EF0C  F001         	goto	u920
  1247  000214                     u921:
  1248  000214  EFE6  F000         	goto	l632
  1249  000218                     u920:
  1250  000218                     l630:
  1251  000218  BC35               	btfsc	___fladd@signs^0,6,c
  1252  00021A  EF11  F001         	goto	u931
  1253  00021E  EF13  F001         	goto	u930
  1254  000222                     u931:
  1255  000222  EF53  F001         	goto	l1415
  1256  000226                     u930:
  1257  000226  5037               	movf	___fladd@bexp^0,w,c
  1258  000228  A4D8               	btfss	status,2,c
  1259  00022A  EF19  F001         	goto	u941
  1260  00022E  EF1B  F001         	goto	u940
  1261  000232                     u941:
  1262  000232  EF25  F001         	goto	l1397
  1263  000236                     u940:
  1264  000236  0E00               	movlw	0
  1265  000238  6E29               	movwf	?___fladd^0,c
  1266  00023A  0E00               	movlw	0
  1267  00023C  6E2A               	movwf	(?___fladd+1)^0,c
  1268  00023E  0E00               	movlw	0
  1269  000240  6E2B               	movwf	(?___fladd+2)^0,c
  1270  000242  0E00               	movlw	0
  1271  000244  6E2C               	movwf	(?___fladd+3)^0,c
  1272  000246  EF74  F002         	goto	l639
  1273  00024A                     l1397:
  1274  00024A  502D               	movf	___fladd@a^0,w,c
  1275  00024C  2629               	addwf	___fladd@b^0,f,c
  1276  00024E  502E               	movf	(___fladd@a+1)^0,w,c
  1277  000250  222A               	addwfc	(___fladd@b+1)^0,f,c
  1278  000252  502F               	movf	(___fladd@a+2)^0,w,c
  1279  000254  222B               	addwfc	(___fladd@b+2)^0,f,c
  1280  000256  5030               	movf	(___fladd@a+3)^0,w,c
  1281  000258  222C               	addwfc	(___fladd@b+3)^0,f,c
  1282  00025A  A02C               	btfss	(___fladd@b+3)^0,0,c
  1283  00025C  EF32  F001         	goto	u951
  1284  000260  EF34  F001         	goto	u950
  1285  000264                     u951:
  1286  000264  EFE0  F001         	goto	l1451
  1287  000268                     u950:
  1288  000268  A038               	btfss	___fladd@grs^0,0,c
  1289  00026A  EF39  F001         	goto	u961
  1290  00026E  EF3B  F001         	goto	u960
  1291  000272                     u961:
  1292  000272  EF41  F001         	goto	l1405
  1293  000276                     u960:
  1294  000276  90D8               	bcf	status,0,c
  1295  000278  3038               	rrcf	___fladd@grs^0,w,c
  1296  00027A  0901               	iorlw	1
  1297  00027C  6E38               	movwf	___fladd@grs^0,c
  1298  00027E  EF43  F001         	goto	l1407
  1299  000282                     l1405:
  1300  000282  90D8               	bcf	status,0,c
  1301  000284  3238               	rrcf	___fladd@grs^0,f,c
  1302  000286                     l1407:
  1303  000286  A029               	btfss	___fladd@b^0,0,c
  1304  000288  EF48  F001         	goto	u971
  1305  00028C  EF4A  F001         	goto	u970
  1306  000290                     u971:
  1307  000290  EF4B  F001         	goto	l1411
  1308  000294                     u970:
  1309  000294  8E38               	bsf	___fladd@grs^0,7,c
  1310  000296                     l1411:
  1311  000296  342C               	rlcf	(___fladd@b+3)^0,w,c
  1312  000298  322C               	rrcf	(___fladd@b+3)^0,f,c
  1313  00029A  322B               	rrcf	(___fladd@b+2)^0,f,c
  1314  00029C  322A               	rrcf	(___fladd@b+1)^0,f,c
  1315  00029E  3229               	rrcf	___fladd@b^0,f,c
  1316  0002A0  2A37               	incf	___fladd@bexp^0,f,c
  1317  0002A2  EFE0  F001         	goto	l1451
  1318  0002A6                     l1415:
  1319  0002A6  502D               	movf	___fladd@a^0,w,c
  1320  0002A8  5C29               	subwf	___fladd@b^0,w,c
  1321  0002AA  502E               	movf	(___fladd@a+1)^0,w,c
  1322  0002AC  582A               	subwfb	(___fladd@b+1)^0,w,c
  1323  0002AE  502F               	movf	(___fladd@a+2)^0,w,c
  1324  0002B0  582B               	subwfb	(___fladd@b+2)^0,w,c
  1325  0002B2  502C               	movf	(___fladd@b+3)^0,w,c
  1326  0002B4  0A80               	xorlw	128
  1327  0002B6  6E31               	movwf	??___fladd^0,c
  1328  0002B8  5030               	movf	(___fladd@a+3)^0,w,c
  1329  0002BA  0A80               	xorlw	128
  1330  0002BC  5831               	subwfb	??___fladd^0,w,c
  1331  0002BE  B0D8               	btfsc	status,0,c
  1332  0002C0  EF64  F001         	goto	u981
  1333  0002C4  EF66  F001         	goto	u980
  1334  0002C8                     u981:
  1335  0002C8  EF91  F001         	goto	l1425
  1336  0002CC                     u980:
  1337  0002CC  5029               	movf	___fladd@b^0,w,c
  1338  0002CE  5C2D               	subwf	___fladd@a^0,w,c
  1339  0002D0  6E31               	movwf	??___fladd^0,c
  1340  0002D2  502A               	movf	(___fladd@b+1)^0,w,c
  1341  0002D4  582E               	subwfb	(___fladd@a+1)^0,w,c
  1342  0002D6  6E32               	movwf	(??___fladd+1)^0,c
  1343  0002D8  502B               	movf	(___fladd@b+2)^0,w,c
  1344  0002DA  582F               	subwfb	(___fladd@a+2)^0,w,c
  1345  0002DC  6E33               	movwf	(??___fladd+2)^0,c
  1346  0002DE  502C               	movf	(___fladd@b+3)^0,w,c
  1347  0002E0  5830               	subwfb	(___fladd@a+3)^0,w,c
  1348  0002E2  6E34               	movwf	(??___fladd+3)^0,c
  1349  0002E4  0EFF               	movlw	255
  1350  0002E6  2431               	addwf	??___fladd^0,w,c
  1351  0002E8  6E29               	movwf	___fladd@b^0,c
  1352  0002EA  0EFF               	movlw	255
  1353  0002EC  2032               	addwfc	(??___fladd+1)^0,w,c
  1354  0002EE  6E2A               	movwf	(___fladd@b+1)^0,c
  1355  0002F0  0EFF               	movlw	255
  1356  0002F2  2033               	addwfc	(??___fladd+2)^0,w,c
  1357  0002F4  6E2B               	movwf	(___fladd@b+2)^0,c
  1358  0002F6  0EFF               	movlw	255
  1359  0002F8  2034               	addwfc	(??___fladd+3)^0,w,c
  1360  0002FA  6E2C               	movwf	(___fladd@b+3)^0,c
  1361  0002FC  0E80               	movlw	128
  1362  0002FE  1A35               	xorwf	___fladd@signs^0,f,c
  1363  000300  6C38               	negf	___fladd@grs^0,c
  1364  000302  5038               	movf	___fladd@grs^0,w,c
  1365  000304  A4D8               	btfss	status,2,c
  1366  000306  EF87  F001         	goto	u991
  1367  00030A  EF89  F001         	goto	u990
  1368  00030E                     u991:
  1369  00030E  EF99  F001         	goto	l647
  1370  000312                     u990:
  1371  000312  0E01               	movlw	1
  1372  000314  2629               	addwf	___fladd@b^0,f,c
  1373  000316  0E00               	movlw	0
  1374  000318  222A               	addwfc	(___fladd@b+1)^0,f,c
  1375  00031A  222B               	addwfc	(___fladd@b+2)^0,f,c
  1376  00031C  222C               	addwfc	(___fladd@b+3)^0,f,c
  1377  00031E  EF99  F001         	goto	l647
  1378  000322                     l1425:
  1379  000322  502D               	movf	___fladd@a^0,w,c
  1380  000324  5E29               	subwf	___fladd@b^0,f,c
  1381  000326  502E               	movf	(___fladd@a+1)^0,w,c
  1382  000328  5A2A               	subwfb	(___fladd@b+1)^0,f,c
  1383  00032A  502F               	movf	(___fladd@a+2)^0,w,c
  1384  00032C  5A2B               	subwfb	(___fladd@b+2)^0,f,c
  1385  00032E  5030               	movf	(___fladd@a+3)^0,w,c
  1386  000330  5A2C               	subwfb	(___fladd@b+3)^0,f,c
  1387  000332                     l647:
  1388  000332  5029               	movf	___fladd@b^0,w,c
  1389  000334  102A               	iorwf	(___fladd@b+1)^0,w,c
  1390  000336  102B               	iorwf	(___fladd@b+2)^0,w,c
  1391  000338  102C               	iorwf	(___fladd@b+3)^0,w,c
  1392  00033A  A4D8               	btfss	status,2,c
  1393  00033C  EFA2  F001         	goto	u1001
  1394  000340  EFA4  F001         	goto	u1000
  1395  000344                     u1001:
  1396  000344  EFD9  F001         	goto	l1449
  1397  000348                     u1000:
  1398  000348  5038               	movf	___fladd@grs^0,w,c
  1399  00034A  A4D8               	btfss	status,2,c
  1400  00034C  EFAA  F001         	goto	u1011
  1401  000350  EFAC  F001         	goto	u1010
  1402  000354                     u1011:
  1403  000354  EFD9  F001         	goto	l1449
  1404  000358                     u1010:
  1405  000358  0E00               	movlw	0
  1406  00035A  6E29               	movwf	?___fladd^0,c
  1407  00035C  0E00               	movlw	0
  1408  00035E  6E2A               	movwf	(?___fladd+1)^0,c
  1409  000360  0E00               	movlw	0
  1410  000362  6E2B               	movwf	(?___fladd+2)^0,c
  1411  000364  0E00               	movlw	0
  1412  000366  6E2C               	movwf	(?___fladd+3)^0,c
  1413  000368  EF74  F002         	goto	l639
  1414  00036C                     l1433:
  1415  00036C  90D8               	bcf	status,0,c
  1416  00036E  3629               	rlcf	___fladd@b^0,f,c
  1417  000370  362A               	rlcf	(___fladd@b+1)^0,f,c
  1418  000372  362B               	rlcf	(___fladd@b+2)^0,f,c
  1419  000374  362C               	rlcf	(___fladd@b+3)^0,f,c
  1420  000376  AE38               	btfss	___fladd@grs^0,7,c
  1421  000378  EFC0  F001         	goto	u1021
  1422  00037C  EFC2  F001         	goto	u1020
  1423  000380                     u1021:
  1424  000380  EFC3  F001         	goto	l1439
  1425  000384                     u1020:
  1426  000384  8029               	bsf	___fladd@b^0,0,c
  1427  000386                     l1439:
  1428  000386  A038               	btfss	___fladd@grs^0,0,c
  1429  000388  EFC8  F001         	goto	u1031
  1430  00038C  EFCA  F001         	goto	u1030
  1431  000390                     u1031:
  1432  000390  EFCE  F001         	goto	l1443
  1433  000394                     u1030:
  1434  000394  80D8               	bsf	status,0,c
  1435  000396  3638               	rlcf	___fladd@grs^0,f,c
  1436  000398  EFD0  F001         	goto	l1445
  1437  00039C                     l1443:
  1438  00039C  90D8               	bcf	status,0,c
  1439  00039E  3638               	rlcf	___fladd@grs^0,f,c
  1440  0003A0                     l1445:
  1441  0003A0  5037               	movf	___fladd@bexp^0,w,c
  1442  0003A2  B4D8               	btfsc	status,2,c
  1443  0003A4  EFD6  F001         	goto	u1041
  1444  0003A8  EFD8  F001         	goto	u1040
  1445  0003AC                     u1041:
  1446  0003AC  EFD9  F001         	goto	l1449
  1447  0003B0                     u1040:
  1448  0003B0  0637               	decf	___fladd@bexp^0,f,c
  1449  0003B2                     l1449:
  1450  0003B2  AE2B               	btfss	(___fladd@b+2)^0,7,c
  1451  0003B4  EFDE  F001         	goto	u1051
  1452  0003B8  EFE0  F001         	goto	u1050
  1453  0003BC                     u1051:
  1454  0003BC  EFB6  F001         	goto	l1433
  1455  0003C0                     u1050:
  1456  0003C0                     l1451:
  1457  0003C0  0E00               	movlw	0
  1458  0003C2  6E36               	movwf	___fladd@aexp^0,c
  1459  0003C4  AE38               	btfss	___fladd@grs^0,7,c
  1460  0003C6  EFE7  F001         	goto	u1061
  1461  0003CA  EFE9  F001         	goto	u1060
  1462  0003CE                     u1061:
  1463  0003CE  EF01  F002         	goto	l656
  1464  0003D2                     u1060:
  1465  0003D2  C038  F031         	movff	___fladd@grs,??___fladd
  1466  0003D6  0E7F               	movlw	127
  1467  0003D8  1631               	andwf	??___fladd^0,f,c
  1468  0003DA  B4D8               	btfsc	status,2,c
  1469  0003DC  EFF2  F001         	goto	u1071
  1470  0003E0  EFF4  F001         	goto	u1070
  1471  0003E4                     u1071:
  1472  0003E4  EFF8  F001         	goto	l657
  1473  0003E8                     u1070:
  1474  0003E8                     l1457:
  1475  0003E8  0E01               	movlw	1
  1476  0003EA  6E36               	movwf	___fladd@aexp^0,c
  1477  0003EC  EF01  F002         	goto	l656
  1478  0003F0                     l657:
  1479  0003F0  A029               	btfss	___fladd@b^0,0,c
  1480  0003F2  EFFD  F001         	goto	u1081
  1481  0003F6  EFFF  F001         	goto	u1080
  1482  0003FA                     u1081:
  1483  0003FA  EF01  F002         	goto	l656
  1484  0003FE                     u1080:
  1485  0003FE  EFF4  F001         	goto	l1457
  1486  000402                     l656:
  1487  000402  5036               	movf	___fladd@aexp^0,w,c
  1488  000404  B4D8               	btfsc	status,2,c
  1489  000406  EF07  F002         	goto	u1091
  1490  00040A  EF09  F002         	goto	u1090
  1491  00040E                     u1091:
  1492  00040E  EF34  F002         	goto	l1469
  1493  000412                     u1090:
  1494  000412  0E01               	movlw	1
  1495  000414  2629               	addwf	___fladd@b^0,f,c
  1496  000416  0E00               	movlw	0
  1497  000418  222A               	addwfc	(___fladd@b+1)^0,f,c
  1498  00041A  222B               	addwfc	(___fladd@b+2)^0,f,c
  1499  00041C  222C               	addwfc	(___fladd@b+3)^0,f,c
  1500  00041E  A02C               	btfss	(___fladd@b+3)^0,0,c
  1501  000420  EF14  F002         	goto	u1101
  1502  000424  EF16  F002         	goto	u1100
  1503  000428                     u1101:
  1504  000428  EF34  F002         	goto	l1469
  1505  00042C                     u1100:
  1506  00042C  C029  F031         	movff	___fladd@b,??___fladd
  1507  000430  C02A  F032         	movff	___fladd@b+1,??___fladd+1
  1508  000434  C02B  F033         	movff	___fladd@b+2,??___fladd+2
  1509  000438  C02C  F034         	movff	___fladd@b+3,??___fladd+3
  1510  00043C  3434               	rlcf	(??___fladd+3)^0,w,c
  1511  00043E  3234               	rrcf	(??___fladd+3)^0,f,c
  1512  000440  3233               	rrcf	(??___fladd+2)^0,f,c
  1513  000442  3232               	rrcf	(??___fladd+1)^0,f,c
  1514  000444  3231               	rrcf	??___fladd^0,f,c
  1515  000446  C031  F029         	movff	??___fladd,___fladd@b
  1516  00044A  C032  F02A         	movff	??___fladd+1,___fladd@b+1
  1517  00044E  C033  F02B         	movff	??___fladd+2,___fladd@b+2
  1518  000452  C034  F02C         	movff	??___fladd+3,___fladd@b+3
  1519  000456  2837               	incf	___fladd@bexp^0,w,c
  1520  000458  B4D8               	btfsc	status,2,c
  1521  00045A  EF31  F002         	goto	u1111
  1522  00045E  EF33  F002         	goto	u1110
  1523  000462                     u1111:
  1524  000462  EF34  F002         	goto	l1469
  1525  000466                     u1110:
  1526  000466  2A37               	incf	___fladd@bexp^0,f,c
  1527  000468                     l1469:
  1528  000468  2837               	incf	___fladd@bexp^0,w,c
  1529  00046A  B4D8               	btfsc	status,2,c
  1530  00046C  EF3A  F002         	goto	u1121
  1531  000470  EF3C  F002         	goto	u1120
  1532  000474                     u1121:
  1533  000474  EF44  F002         	goto	l1473
  1534  000478                     u1120:
  1535  000478  5037               	movf	___fladd@bexp^0,w,c
  1536  00047A  A4D8               	btfss	status,2,c
  1537  00047C  EF42  F002         	goto	u1131
  1538  000480  EF44  F002         	goto	u1130
  1539  000484                     u1131:
  1540  000484  EF56  F002         	goto	l1477
  1541  000488                     u1130:
  1542  000488                     l1473:
  1543  000488  0E00               	movlw	0
  1544  00048A  6E29               	movwf	___fladd@b^0,c
  1545  00048C  0E00               	movlw	0
  1546  00048E  6E2A               	movwf	(___fladd@b+1)^0,c
  1547  000490  0E00               	movlw	0
  1548  000492  6E2B               	movwf	(___fladd@b+2)^0,c
  1549  000494  0E00               	movlw	0
  1550  000496  6E2C               	movwf	(___fladd@b+3)^0,c
  1551  000498  5037               	movf	___fladd@bexp^0,w,c
  1552  00049A  A4D8               	btfss	status,2,c
  1553  00049C  EF52  F002         	goto	u1141
  1554  0004A0  EF54  F002         	goto	u1140
  1555  0004A4                     u1141:
  1556  0004A4  EF56  F002         	goto	l1477
  1557  0004A8                     u1140:
  1558  0004A8  0E00               	movlw	0
  1559  0004AA  6E35               	movwf	___fladd@signs^0,c
  1560  0004AC                     l1477:
  1561  0004AC  A037               	btfss	___fladd@bexp^0,0,c
  1562  0004AE  EF5B  F002         	goto	u1151
  1563  0004B2  EF5D  F002         	goto	u1150
  1564  0004B6                     u1151:
  1565  0004B6  EF60  F002         	goto	l1481
  1566  0004BA                     u1150:
  1567  0004BA  8E2B               	bsf	(___fladd@b+2)^0,7,c
  1568  0004BC  EF61  F002         	goto	l1483
  1569  0004C0                     l1481:
  1570  0004C0  9E2B               	bcf	(___fladd@b+2)^0,7,c
  1571  0004C2                     l1483:
  1572  0004C2  90D8               	bcf	status,0,c
  1573  0004C4  3037               	rrcf	___fladd@bexp^0,w,c
  1574  0004C6  6E2C               	movwf	(___fladd@b+3)^0,c
  1575  0004C8  AE35               	btfss	___fladd@signs^0,7,c
  1576  0004CA  EF69  F002         	goto	u1161
  1577  0004CE  EF6B  F002         	goto	u1160
  1578  0004D2                     u1161:
  1579  0004D2  EF6C  F002         	goto	l1489
  1580  0004D6                     u1160:
  1581  0004D6  8E2C               	bsf	(___fladd@b+3)^0,7,c
  1582  0004D8                     l1489:
  1583  0004D8  C029  F029         	movff	___fladd@b,?___fladd
  1584  0004DC  C02A  F02A         	movff	___fladd@b+1,?___fladd+1
  1585  0004E0  C02B  F02B         	movff	___fladd@b+2,?___fladd+2
  1586  0004E4  C02C  F02C         	movff	___fladd@b+3,?___fladd+3
  1587  0004E8                     l639:
  1588  0004E8  0012               	return		;funcret
  1589  0004EA                     __end_of___fladd:
  1590                           	callstack 0
  1591                           
  1592 ;; *************** function ___flmul *****************
  1593 ;; Defined at:
  1594 ;;		line 8 in file "C:\Program Files\Microchip\xc8\v2.30\pic\sources\c99\common\sprcmul.c"
  1595 ;; Parameters:    Size  Location     Type
  1596 ;;  b               4   15[COMRAM] unsigned char 
  1597 ;;  a               4   19[COMRAM] unsigned char 
  1598 ;; Auto vars:     Size  Location     Type
  1599 ;;  prod            4   34[COMRAM] struct .
  1600 ;;  grs             4   28[COMRAM] unsigned long 
  1601 ;;  temp            2   38[COMRAM] struct .
  1602 ;;  bexp            1   33[COMRAM] unsigned char 
  1603 ;;  aexp            1   32[COMRAM] unsigned char 
  1604 ;;  sign            1   27[COMRAM] unsigned char 
  1605 ;; Return value:  Size  Location     Type
  1606 ;;                  4   15[COMRAM] unsigned char 
  1607 ;; Registers used:
  1608 ;;		wreg, status,2, status,0, prodl, prodh
  1609 ;; Tracked objects:
  1610 ;;		On entry : 0/0
  1611 ;;		On exit  : 0/0
  1612 ;;		Unchanged: 0/0
  1613 ;; Data sizes:     COMRAM   BANK0   BANK1   BANK2   BANK3   BANK4   BANK5
  1614 ;;      Params:         8       0       0       0       0       0       0
  1615 ;;      Locals:        13       0       0       0       0       0       0
  1616 ;;      Temps:          4       0       0       0       0       0       0
  1617 ;;      Totals:        25       0       0       0       0       0       0
  1618 ;;Total ram usage:       25 bytes
  1619 ;; Hardware stack levels used:    1
  1620 ;; Hardware stack levels required when called:    2
  1621 ;; This function calls:
  1622 ;;		Nothing
  1623 ;; This function is called by:
  1624 ;;		_main
  1625 ;; This function uses a non-reentrant model
  1626 ;;
  1627                           
  1628                           	psect	text5
  1629  0004EA                     __ptext5:
  1630                           	callstack 0
  1631  0004EA                     ___flmul:
  1632                           	callstack 28
  1633  0004EA  5013               	movf	(___flmul@b+3)^0,w,c
  1634  0004EC  0B80               	andlw	128
  1635  0004EE  6E1C               	movwf	___flmul@sign^0,c
  1636  0004F0  5013               	movf	(___flmul@b+3)^0,w,c
  1637  0004F2  2413               	addwf	(___flmul@b+3)^0,w,c
  1638  0004F4  6E22               	movwf	___flmul@bexp^0,c
  1639  0004F6  AE12               	btfss	(___flmul@b+2)^0,7,c
  1640  0004F8  EF80  F002         	goto	u1171
  1641  0004FC  EF82  F002         	goto	u1170
  1642  000500                     u1171:
  1643  000500  EF83  F002         	goto	l1521
  1644  000504                     u1170:
  1645  000504  8022               	bsf	___flmul@bexp^0,0,c
  1646  000506                     l1521:
  1647  000506  5022               	movf	___flmul@bexp^0,w,c
  1648  000508  B4D8               	btfsc	status,2,c
  1649  00050A  EF89  F002         	goto	u1181
  1650  00050E  EF8B  F002         	goto	u1180
  1651  000512                     u1181:
  1652  000512  EF9E  F002         	goto	l1529
  1653  000516                     u1180:
  1654  000516  2822               	incf	___flmul@bexp^0,w,c
  1655  000518  A4D8               	btfss	status,2,c
  1656  00051A  EF91  F002         	goto	u1191
  1657  00051E  EF93  F002         	goto	u1190
  1658  000522                     u1191:
  1659  000522  EF9B  F002         	goto	l1527
  1660  000526                     u1190:
  1661  000526  0E00               	movlw	0
  1662  000528  6E10               	movwf	___flmul@b^0,c
  1663  00052A  0E00               	movlw	0
  1664  00052C  6E11               	movwf	(___flmul@b+1)^0,c
  1665  00052E  0E00               	movlw	0
  1666  000530  6E12               	movwf	(___flmul@b+2)^0,c
  1667  000532  0E00               	movlw	0
  1668  000534  6E13               	movwf	(___flmul@b+3)^0,c
  1669  000536                     l1527:
  1670  000536  8E12               	bsf	(___flmul@b+2)^0,7,c
  1671  000538  EFA6  F002         	goto	l1531
  1672  00053C                     l1529:
  1673  00053C  0E00               	movlw	0
  1674  00053E  6E10               	movwf	___flmul@b^0,c
  1675  000540  0E00               	movlw	0
  1676  000542  6E11               	movwf	(___flmul@b+1)^0,c
  1677  000544  0E00               	movlw	0
  1678  000546  6E12               	movwf	(___flmul@b+2)^0,c
  1679  000548  0E00               	movlw	0
  1680  00054A  6E13               	movwf	(___flmul@b+3)^0,c
  1681  00054C                     l1531:
  1682  00054C  5017               	movf	(___flmul@a+3)^0,w,c
  1683  00054E  0B80               	andlw	128
  1684  000550  1A1C               	xorwf	___flmul@sign^0,f,c
  1685  000552  5017               	movf	(___flmul@a+3)^0,w,c
  1686  000554  2417               	addwf	(___flmul@a+3)^0,w,c
  1687  000556  6E21               	movwf	___flmul@aexp^0,c
  1688  000558  AE16               	btfss	(___flmul@a+2)^0,7,c
  1689  00055A  EFB1  F002         	goto	u1201
  1690  00055E  EFB3  F002         	goto	u1200
  1691  000562                     u1201:
  1692  000562  EFB4  F002         	goto	l1539
  1693  000566                     u1200:
  1694  000566  8021               	bsf	___flmul@aexp^0,0,c
  1695  000568                     l1539:
  1696  000568  5021               	movf	___flmul@aexp^0,w,c
  1697  00056A  B4D8               	btfsc	status,2,c
  1698  00056C  EFBA  F002         	goto	u1211
  1699  000570  EFBC  F002         	goto	u1210
  1700  000574                     u1211:
  1701  000574  EFCF  F002         	goto	l1547
  1702  000578                     u1210:
  1703  000578  2821               	incf	___flmul@aexp^0,w,c
  1704  00057A  A4D8               	btfss	status,2,c
  1705  00057C  EFC2  F002         	goto	u1221
  1706  000580  EFC4  F002         	goto	u1220
  1707  000584                     u1221:
  1708  000584  EFCC  F002         	goto	l1545
  1709  000588                     u1220:
  1710  000588  0E00               	movlw	0
  1711  00058A  6E14               	movwf	___flmul@a^0,c
  1712  00058C  0E00               	movlw	0
  1713  00058E  6E15               	movwf	(___flmul@a+1)^0,c
  1714  000590  0E00               	movlw	0
  1715  000592  6E16               	movwf	(___flmul@a+2)^0,c
  1716  000594  0E00               	movlw	0
  1717  000596  6E17               	movwf	(___flmul@a+3)^0,c
  1718  000598                     l1545:
  1719  000598  8E16               	bsf	(___flmul@a+2)^0,7,c
  1720  00059A  EFD7  F002         	goto	l716
  1721  00059E                     l1547:
  1722  00059E  0E00               	movlw	0
  1723  0005A0  6E14               	movwf	___flmul@a^0,c
  1724  0005A2  0E00               	movlw	0
  1725  0005A4  6E15               	movwf	(___flmul@a+1)^0,c
  1726  0005A6  0E00               	movlw	0
  1727  0005A8  6E16               	movwf	(___flmul@a+2)^0,c
  1728  0005AA  0E00               	movlw	0
  1729  0005AC  6E17               	movwf	(___flmul@a+3)^0,c
  1730  0005AE                     l716:
  1731  0005AE  5021               	movf	___flmul@aexp^0,w,c
  1732  0005B0  B4D8               	btfsc	status,2,c
  1733  0005B2  EFDD  F002         	goto	u1231
  1734  0005B6  EFDF  F002         	goto	u1230
  1735  0005BA                     u1231:
  1736  0005BA  EFE7  F002         	goto	l1551
  1737  0005BE                     u1230:
  1738  0005BE  5022               	movf	___flmul@bexp^0,w,c
  1739  0005C0  A4D8               	btfss	status,2,c
  1740  0005C2  EFE5  F002         	goto	u1241
  1741  0005C6  EFE7  F002         	goto	u1240
  1742  0005CA                     u1241:
  1743  0005CA  EFF1  F002         	goto	l1555
  1744  0005CE                     u1240:
  1745  0005CE                     l1551:
  1746  0005CE  0E00               	movlw	0
  1747  0005D0  6E10               	movwf	?___flmul^0,c
  1748  0005D2  0E00               	movlw	0
  1749  0005D4  6E11               	movwf	(?___flmul+1)^0,c
  1750  0005D6  0E00               	movlw	0
  1751  0005D8  6E12               	movwf	(?___flmul+2)^0,c
  1752  0005DA  0E00               	movlw	0
  1753  0005DC  6E13               	movwf	(?___flmul+3)^0,c
  1754  0005DE  EF89  F004         	goto	l720
  1755  0005E2                     l1555:
  1756  0005E2  5016               	movf	(___flmul@a+2)^0,w,c
  1757  0005E4  0210               	mulwf	___flmul@b^0,c
  1758  0005E6  CFF3 F027          	movff	prodl,___flmul@temp
  1759  0005EA  CFF4 F028          	movff	prodh,___flmul@temp+1
  1760  0005EE  5027               	movf	___flmul@temp^0,w,c
  1761  0005F0  6E1D               	movwf	___flmul@grs^0,c
  1762  0005F2  6A1E               	clrf	(___flmul@grs+1)^0,c
  1763  0005F4  6A1F               	clrf	(___flmul@grs+2)^0,c
  1764  0005F6  6A20               	clrf	(___flmul@grs+3)^0,c
  1765  0005F8  5028               	movf	(___flmul@temp+1)^0,w,c
  1766  0005FA  6E23               	movwf	___flmul@prod^0,c
  1767  0005FC  6A24               	clrf	(___flmul@prod+1)^0,c
  1768  0005FE  6A25               	clrf	(___flmul@prod+2)^0,c
  1769  000600  6A26               	clrf	(___flmul@prod+3)^0,c
  1770  000602  5015               	movf	(___flmul@a+1)^0,w,c
  1771  000604  0211               	mulwf	(___flmul@b+1)^0,c
  1772  000606  CFF3 F027          	movff	prodl,___flmul@temp
  1773  00060A  CFF4 F028          	movff	prodh,___flmul@temp+1
  1774  00060E  5027               	movf	___flmul@temp^0,w,c
  1775  000610  261D               	addwf	___flmul@grs^0,f,c
  1776  000612  0E00               	movlw	0
  1777  000614  221E               	addwfc	(___flmul@grs+1)^0,f,c
  1778  000616  221F               	addwfc	(___flmul@grs+2)^0,f,c
  1779  000618  2220               	addwfc	(___flmul@grs+3)^0,f,c
  1780  00061A  5028               	movf	(___flmul@temp+1)^0,w,c
  1781  00061C  2623               	addwf	___flmul@prod^0,f,c
  1782  00061E  0E00               	movlw	0
  1783  000620  2224               	addwfc	(___flmul@prod+1)^0,f,c
  1784  000622  2225               	addwfc	(___flmul@prod+2)^0,f,c
  1785  000624  2226               	addwfc	(___flmul@prod+3)^0,f,c
  1786  000626  5014               	movf	___flmul@a^0,w,c
  1787  000628  0212               	mulwf	(___flmul@b+2)^0,c
  1788  00062A  CFF3 F027          	movff	prodl,___flmul@temp
  1789  00062E  CFF4 F028          	movff	prodh,___flmul@temp+1
  1790  000632  5027               	movf	___flmul@temp^0,w,c
  1791  000634  261D               	addwf	___flmul@grs^0,f,c
  1792  000636  0E00               	movlw	0
  1793  000638  221E               	addwfc	(___flmul@grs+1)^0,f,c
  1794  00063A  221F               	addwfc	(___flmul@grs+2)^0,f,c
  1795  00063C  2220               	addwfc	(___flmul@grs+3)^0,f,c
  1796  00063E  5028               	movf	(___flmul@temp+1)^0,w,c
  1797  000640  2623               	addwf	___flmul@prod^0,f,c
  1798  000642  0E00               	movlw	0
  1799  000644  2224               	addwfc	(___flmul@prod+1)^0,f,c
  1800  000646  2225               	addwfc	(___flmul@prod+2)^0,f,c
  1801  000648  2226               	addwfc	(___flmul@prod+3)^0,f,c
  1802  00064A  C01F  F020         	movff	___flmul@grs+2,___flmul@grs+3
  1803  00064E  C01E  F01F         	movff	___flmul@grs+1,___flmul@grs+2
  1804  000652  C01D  F01E         	movff	___flmul@grs,___flmul@grs+1
  1805  000656  6A1D               	clrf	___flmul@grs^0,c
  1806  000658  5014               	movf	___flmul@a^0,w,c
  1807  00065A  0211               	mulwf	(___flmul@b+1)^0,c
  1808  00065C  CFF3 F027          	movff	prodl,___flmul@temp
  1809  000660  CFF4 F028          	movff	prodh,___flmul@temp+1
  1810  000664  5027               	movf	___flmul@temp^0,w,c
  1811  000666  261D               	addwf	___flmul@grs^0,f,c
  1812  000668  5028               	movf	(___flmul@temp+1)^0,w,c
  1813  00066A  221E               	addwfc	(___flmul@grs+1)^0,f,c
  1814  00066C  0E00               	movlw	0
  1815  00066E  221F               	addwfc	(___flmul@grs+2)^0,f,c
  1816  000670  0E00               	movlw	0
  1817  000672  2220               	addwfc	(___flmul@grs+3)^0,f,c
  1818  000674  5015               	movf	(___flmul@a+1)^0,w,c
  1819  000676  0210               	mulwf	___flmul@b^0,c
  1820  000678  CFF3 F027          	movff	prodl,___flmul@temp
  1821  00067C  CFF4 F028          	movff	prodh,___flmul@temp+1
  1822  000680  5027               	movf	___flmul@temp^0,w,c
  1823  000682  261D               	addwf	___flmul@grs^0,f,c
  1824  000684  5028               	movf	(___flmul@temp+1)^0,w,c
  1825  000686  221E               	addwfc	(___flmul@grs+1)^0,f,c
  1826  000688  0E00               	movlw	0
  1827  00068A  221F               	addwfc	(___flmul@grs+2)^0,f,c
  1828  00068C  0E00               	movlw	0
  1829  00068E  2220               	addwfc	(___flmul@grs+3)^0,f,c
  1830  000690  C01F  F020         	movff	___flmul@grs+2,___flmul@grs+3
  1831  000694  C01E  F01F         	movff	___flmul@grs+1,___flmul@grs+2
  1832  000698  C01D  F01E         	movff	___flmul@grs,___flmul@grs+1
  1833  00069C  6A1D               	clrf	___flmul@grs^0,c
  1834  00069E  5014               	movf	___flmul@a^0,w,c
  1835  0006A0  0210               	mulwf	___flmul@b^0,c
  1836  0006A2  CFF3 F027          	movff	prodl,___flmul@temp
  1837  0006A6  CFF4 F028          	movff	prodh,___flmul@temp+1
  1838  0006AA  5027               	movf	___flmul@temp^0,w,c
  1839  0006AC  261D               	addwf	___flmul@grs^0,f,c
  1840  0006AE  5028               	movf	(___flmul@temp+1)^0,w,c
  1841  0006B0  221E               	addwfc	(___flmul@grs+1)^0,f,c
  1842  0006B2  0E00               	movlw	0
  1843  0006B4  221F               	addwfc	(___flmul@grs+2)^0,f,c
  1844  0006B6  0E00               	movlw	0
  1845  0006B8  2220               	addwfc	(___flmul@grs+3)^0,f,c
  1846  0006BA  5016               	movf	(___flmul@a+2)^0,w,c
  1847  0006BC  0211               	mulwf	(___flmul@b+1)^0,c
  1848  0006BE  CFF3 F027          	movff	prodl,___flmul@temp
  1849  0006C2  CFF4 F028          	movff	prodh,___flmul@temp+1
  1850  0006C6  5027               	movf	___flmul@temp^0,w,c
  1851  0006C8  2623               	addwf	___flmul@prod^0,f,c
  1852  0006CA  5028               	movf	(___flmul@temp+1)^0,w,c
  1853  0006CC  2224               	addwfc	(___flmul@prod+1)^0,f,c
  1854  0006CE  0E00               	movlw	0
  1855  0006D0  2225               	addwfc	(___flmul@prod+2)^0,f,c
  1856  0006D2  0E00               	movlw	0
  1857  0006D4  2226               	addwfc	(___flmul@prod+3)^0,f,c
  1858  0006D6  5015               	movf	(___flmul@a+1)^0,w,c
  1859  0006D8  0212               	mulwf	(___flmul@b+2)^0,c
  1860  0006DA  CFF3 F027          	movff	prodl,___flmul@temp
  1861  0006DE  CFF4 F028          	movff	prodh,___flmul@temp+1
  1862  0006E2  5027               	movf	___flmul@temp^0,w,c
  1863  0006E4  2623               	addwf	___flmul@prod^0,f,c
  1864  0006E6  5028               	movf	(___flmul@temp+1)^0,w,c
  1865  0006E8  2224               	addwfc	(___flmul@prod+1)^0,f,c
  1866  0006EA  0E00               	movlw	0
  1867  0006EC  2225               	addwfc	(___flmul@prod+2)^0,f,c
  1868  0006EE  0E00               	movlw	0
  1869  0006F0  2226               	addwfc	(___flmul@prod+3)^0,f,c
  1870  0006F2  5016               	movf	(___flmul@a+2)^0,w,c
  1871  0006F4  0212               	mulwf	(___flmul@b+2)^0,c
  1872  0006F6  CFF3 F027          	movff	prodl,___flmul@temp
  1873  0006FA  CFF4 F028          	movff	prodh,___flmul@temp+1
  1874  0006FE  5027               	movf	___flmul@temp^0,w,c
  1875  000700  6E18               	movwf	??___flmul^0,c
  1876  000702  5028               	movf	(___flmul@temp+1)^0,w,c
  1877  000704  6E19               	movwf	(??___flmul+1)^0,c
  1878  000706  6A1A               	clrf	(??___flmul+2)^0,c
  1879  000708  6A1B               	clrf	(??___flmul+3)^0,c
  1880  00070A  C01A  F01B         	movff	??___flmul+2,??___flmul+3
  1881  00070E  C019  F01A         	movff	??___flmul+1,??___flmul+2
  1882  000712  C018  F019         	movff	??___flmul,??___flmul+1
  1883  000716  6A18               	clrf	??___flmul^0,c
  1884  000718  5018               	movf	??___flmul^0,w,c
  1885  00071A  2623               	addwf	___flmul@prod^0,f,c
  1886  00071C  5019               	movf	(??___flmul+1)^0,w,c
  1887  00071E  2224               	addwfc	(___flmul@prod+1)^0,f,c
  1888  000720  501A               	movf	(??___flmul+2)^0,w,c
  1889  000722  2225               	addwfc	(___flmul@prod+2)^0,f,c
  1890  000724  501B               	movf	(??___flmul+3)^0,w,c
  1891  000726  2226               	addwfc	(___flmul@prod+3)^0,f,c
  1892  000728  C01D  F018         	movff	___flmul@grs,??___flmul
  1893  00072C  C01E  F019         	movff	___flmul@grs+1,??___flmul+1
  1894  000730  C01F  F01A         	movff	___flmul@grs+2,??___flmul+2
  1895  000734  C020  F01B         	movff	___flmul@grs+3,??___flmul+3
  1896  000738  0E19               	movlw	25
  1897  00073A  EFA4  F003         	goto	u1250
  1898  00073E                     u1255:
  1899  00073E  90D8               	bcf	status,0,c
  1900  000740  321B               	rrcf	(??___flmul+3)^0,f,c
  1901  000742  321A               	rrcf	(??___flmul+2)^0,f,c
  1902  000744  3219               	rrcf	(??___flmul+1)^0,f,c
  1903  000746  3218               	rrcf	??___flmul^0,f,c
  1904  000748                     u1250:
  1905  000748  2EE8               	decfsz	wreg,f,c
  1906  00074A  EF9F  F003         	goto	u1255
  1907  00074E  5018               	movf	??___flmul^0,w,c
  1908  000750  2623               	addwf	___flmul@prod^0,f,c
  1909  000752  5019               	movf	(??___flmul+1)^0,w,c
  1910  000754  2224               	addwfc	(___flmul@prod+1)^0,f,c
  1911  000756  501A               	movf	(??___flmul+2)^0,w,c
  1912  000758  2225               	addwfc	(___flmul@prod+2)^0,f,c
  1913  00075A  501B               	movf	(??___flmul+3)^0,w,c
  1914  00075C  2226               	addwfc	(___flmul@prod+3)^0,f,c
  1915  00075E  C01F  F020         	movff	___flmul@grs+2,___flmul@grs+3
  1916  000762  C01E  F01F         	movff	___flmul@grs+1,___flmul@grs+2
  1917  000766  C01D  F01E         	movff	___flmul@grs,___flmul@grs+1
  1918  00076A  6A1D               	clrf	___flmul@grs^0,c
  1919  00076C  5021               	movf	___flmul@aexp^0,w,c
  1920  00076E  C022  F018         	movff	___flmul@bexp,??___flmul
  1921  000772  6A19               	clrf	(??___flmul+1)^0,c
  1922  000774  2618               	addwf	??___flmul^0,f,c
  1923  000776  0E00               	movlw	0
  1924  000778  2219               	addwfc	(??___flmul+1)^0,f,c
  1925  00077A  0E82               	movlw	130
  1926  00077C  2418               	addwf	??___flmul^0,w,c
  1927  00077E  6E27               	movwf	___flmul@temp^0,c
  1928  000780  0EFF               	movlw	255
  1929  000782  2019               	addwfc	(??___flmul+1)^0,w,c
  1930  000784  6E28               	movwf	(___flmul@temp+1)^0,c
  1931  000786  EFDA  F003         	goto	l1603
  1932  00078A                     l1597:
  1933  00078A  90D8               	bcf	status,0,c
  1934  00078C  3623               	rlcf	___flmul@prod^0,f,c
  1935  00078E  3624               	rlcf	(___flmul@prod+1)^0,f,c
  1936  000790  3625               	rlcf	(___flmul@prod+2)^0,f,c
  1937  000792  3626               	rlcf	(___flmul@prod+3)^0,f,c
  1938  000794  AE20               	btfss	(___flmul@grs+3)^0,7,c
  1939  000796  EFCF  F003         	goto	u1261
  1940  00079A  EFD1  F003         	goto	u1260
  1941  00079E                     u1261:
  1942  00079E  EFD2  F003         	goto	l723
  1943  0007A2                     u1260:
  1944  0007A2  8023               	bsf	___flmul@prod^0,0,c
  1945  0007A4                     l723:
  1946  0007A4  90D8               	bcf	status,0,c
  1947  0007A6  361D               	rlcf	___flmul@grs^0,f,c
  1948  0007A8  361E               	rlcf	(___flmul@grs+1)^0,f,c
  1949  0007AA  361F               	rlcf	(___flmul@grs+2)^0,f,c
  1950  0007AC  3620               	rlcf	(___flmul@grs+3)^0,f,c
  1951  0007AE  0627               	decf	___flmul@temp^0,f,c
  1952  0007B0  A0D8               	btfss	status,0,c
  1953  0007B2  0628               	decf	(___flmul@temp+1)^0,f,c
  1954  0007B4                     l1603:
  1955  0007B4  AE25               	btfss	(___flmul@prod+2)^0,7,c
  1956  0007B6  EFDF  F003         	goto	u1271
  1957  0007BA  EFE1  F003         	goto	u1270
  1958  0007BE                     u1271:
  1959  0007BE  EFC5  F003         	goto	l1597
  1960  0007C2                     u1270:
  1961  0007C2  0E00               	movlw	0
  1962  0007C4  6E21               	movwf	___flmul@aexp^0,c
  1963  0007C6  AE20               	btfss	(___flmul@grs+3)^0,7,c
  1964  0007C8  EFE8  F003         	goto	u1281
  1965  0007CC  EFEA  F003         	goto	u1280
  1966  0007D0                     u1281:
  1967  0007D0  EF0E  F004         	goto	l725
  1968  0007D4                     u1280:
  1969  0007D4  0EFF               	movlw	255
  1970  0007D6  141D               	andwf	___flmul@grs^0,w,c
  1971  0007D8  6E18               	movwf	??___flmul^0,c
  1972  0007DA  0EFF               	movlw	255
  1973  0007DC  141E               	andwf	(___flmul@grs+1)^0,w,c
  1974  0007DE  6E19               	movwf	(??___flmul+1)^0,c
  1975  0007E0  0EFF               	movlw	255
  1976  0007E2  141F               	andwf	(___flmul@grs+2)^0,w,c
  1977  0007E4  6E1A               	movwf	(??___flmul+2)^0,c
  1978  0007E6  0E7F               	movlw	127
  1979  0007E8  1420               	andwf	(___flmul@grs+3)^0,w,c
  1980  0007EA  6E1B               	movwf	(??___flmul+3)^0,c
  1981  0007EC  5018               	movf	??___flmul^0,w,c
  1982  0007EE  1019               	iorwf	(??___flmul+1)^0,w,c
  1983  0007F0  101A               	iorwf	(??___flmul+2)^0,w,c
  1984  0007F2  101B               	iorwf	(??___flmul+3)^0,w,c
  1985  0007F4  B4D8               	btfsc	status,2,c
  1986  0007F6  EFFF  F003         	goto	u1291
  1987  0007FA  EF01  F004         	goto	u1290
  1988  0007FE                     u1291:
  1989  0007FE  EF05  F004         	goto	l726
  1990  000802                     u1290:
  1991  000802                     l1611:
  1992  000802  0E01               	movlw	1
  1993  000804  6E21               	movwf	___flmul@aexp^0,c
  1994  000806  EF0E  F004         	goto	l725
  1995  00080A                     l726:
  1996  00080A  A023               	btfss	___flmul@prod^0,0,c
  1997  00080C  EF0A  F004         	goto	u1301
  1998  000810  EF0C  F004         	goto	u1300
  1999  000814                     u1301:
  2000  000814  EF0E  F004         	goto	l725
  2001  000818                     u1300:
  2002  000818  EF01  F004         	goto	l1611
  2003  00081C                     l725:
  2004  00081C  5021               	movf	___flmul@aexp^0,w,c
  2005  00081E  B4D8               	btfsc	status,2,c
  2006  000820  EF14  F004         	goto	u1311
  2007  000824  EF16  F004         	goto	u1310
  2008  000828                     u1311:
  2009  000828  EF3A  F004         	goto	l1623
  2010  00082C                     u1310:
  2011  00082C  0E01               	movlw	1
  2012  00082E  2623               	addwf	___flmul@prod^0,f,c
  2013  000830  0E00               	movlw	0
  2014  000832  2224               	addwfc	(___flmul@prod+1)^0,f,c
  2015  000834  2225               	addwfc	(___flmul@prod+2)^0,f,c
  2016  000836  2226               	addwfc	(___flmul@prod+3)^0,f,c
  2017  000838  A026               	btfss	(___flmul@prod+3)^0,0,c
  2018  00083A  EF21  F004         	goto	u1321
  2019  00083E  EF23  F004         	goto	u1320
  2020  000842                     u1321:
  2021  000842  EF3A  F004         	goto	l1623
  2022  000846                     u1320:
  2023  000846  C023  F018         	movff	___flmul@prod,??___flmul
  2024  00084A  C024  F019         	movff	___flmul@prod+1,??___flmul+1
  2025  00084E  C025  F01A         	movff	___flmul@prod+2,??___flmul+2
  2026  000852  C026  F01B         	movff	___flmul@prod+3,??___flmul+3
  2027  000856  341B               	rlcf	(??___flmul+3)^0,w,c
  2028  000858  321B               	rrcf	(??___flmul+3)^0,f,c
  2029  00085A  321A               	rrcf	(??___flmul+2)^0,f,c
  2030  00085C  3219               	rrcf	(??___flmul+1)^0,f,c
  2031  00085E  3218               	rrcf	??___flmul^0,f,c
  2032  000860  C018  F023         	movff	??___flmul,___flmul@prod
  2033  000864  C019  F024         	movff	??___flmul+1,___flmul@prod+1
  2034  000868  C01A  F025         	movff	??___flmul+2,___flmul@prod+2
  2035  00086C  C01B  F026         	movff	??___flmul+3,___flmul@prod+3
  2036  000870  4A27               	infsnz	___flmul@temp^0,f,c
  2037  000872  2A28               	incf	(___flmul@temp+1)^0,f,c
  2038  000874                     l1623:
  2039  000874  BE28               	btfsc	(___flmul@temp+1)^0,7,c
  2040  000876  EF45  F004         	goto	u1331
  2041  00087A  5028               	movf	(___flmul@temp+1)^0,w,c
  2042  00087C  E108               	bnz	u1330
  2043  00087E  2827               	incf	___flmul@temp^0,w,c
  2044  000880  A0D8               	btfss	status,0,c
  2045  000882  EF45  F004         	goto	u1331
  2046  000886  EF47  F004         	goto	u1330
  2047  00088A                     u1331:
  2048  00088A  EF51  F004         	goto	l1627
  2049  00088E                     u1330:
  2050  00088E  0E00               	movlw	0
  2051  000890  6E23               	movwf	___flmul@prod^0,c
  2052  000892  0E00               	movlw	0
  2053  000894  6E24               	movwf	(___flmul@prod+1)^0,c
  2054  000896  0E80               	movlw	128
  2055  000898  6E25               	movwf	(___flmul@prod+2)^0,c
  2056  00089A  0E7F               	movlw	127
  2057  00089C  6E26               	movwf	(___flmul@prod+3)^0,c
  2058  00089E  EF7F  F004         	goto	l1639
  2059  0008A2                     l1627:
  2060  0008A2  BE28               	btfsc	(___flmul@temp+1)^0,7,c
  2061  0008A4  EF5E  F004         	goto	u1340
  2062  0008A8  5028               	movf	(___flmul@temp+1)^0,w,c
  2063  0008AA  E106               	bnz	u1341
  2064  0008AC  0427               	decf	___flmul@temp^0,w,c
  2065  0008AE  B0D8               	btfsc	status,0,c
  2066  0008B0  EF5C  F004         	goto	u1341
  2067  0008B4  EF5E  F004         	goto	u1340
  2068  0008B8                     u1341:
  2069  0008B8  EF6A  F004         	goto	l733
  2070  0008BC                     u1340:
  2071  0008BC  0E00               	movlw	0
  2072  0008BE  6E23               	movwf	___flmul@prod^0,c
  2073  0008C0  0E00               	movlw	0
  2074  0008C2  6E24               	movwf	(___flmul@prod+1)^0,c
  2075  0008C4  0E00               	movlw	0
  2076  0008C6  6E25               	movwf	(___flmul@prod+2)^0,c
  2077  0008C8  0E00               	movlw	0
  2078  0008CA  6E26               	movwf	(___flmul@prod+3)^0,c
  2079  0008CC  0E00               	movlw	0
  2080  0008CE  6E1C               	movwf	___flmul@sign^0,c
  2081  0008D0  EF7F  F004         	goto	l1639
  2082  0008D4                     l733:
  2083  0008D4  C027  F022         	movff	___flmul@temp,___flmul@bexp
  2084  0008D8  0EFF               	movlw	255
  2085  0008DA  1623               	andwf	___flmul@prod^0,f,c
  2086  0008DC  0EFF               	movlw	255
  2087  0008DE  1624               	andwf	(___flmul@prod+1)^0,f,c
  2088  0008E0  0E7F               	movlw	127
  2089  0008E2  1625               	andwf	(___flmul@prod+2)^0,f,c
  2090  0008E4  0E00               	movlw	0
  2091  0008E6  1626               	andwf	(___flmul@prod+3)^0,f,c
  2092  0008E8  A022               	btfss	___flmul@bexp^0,0,c
  2093  0008EA  EF79  F004         	goto	u1351
  2094  0008EE  EF7B  F004         	goto	u1350
  2095  0008F2                     u1351:
  2096  0008F2  EF7C  F004         	goto	l1637
  2097  0008F6                     u1350:
  2098  0008F6  8E25               	bsf	(___flmul@prod+2)^0,7,c
  2099  0008F8                     l1637:
  2100  0008F8  90D8               	bcf	status,0,c
  2101  0008FA  3022               	rrcf	___flmul@bexp^0,w,c
  2102  0008FC  6E26               	movwf	(___flmul@prod+3)^0,c
  2103  0008FE                     l1639:
  2104  0008FE  501C               	movf	___flmul@sign^0,w,c
  2105  000900  1226               	iorwf	(___flmul@prod+3)^0,f,c
  2106  000902  C023  F010         	movff	___flmul@prod,?___flmul
  2107  000906  C024  F011         	movff	___flmul@prod+1,?___flmul+1
  2108  00090A  C025  F012         	movff	___flmul@prod+2,?___flmul+2
  2109  00090E  C026  F013         	movff	___flmul@prod+3,?___flmul+3
  2110  000912                     l720:
  2111  000912  0012               	return		;funcret
  2112  000914                     __end_of___flmul:
  2113                           	callstack 0
  2114                           
  2115 ;; *************** function _Neutral_Init *****************
  2116 ;; Defined at:
  2117 ;;		line 47 in file "main.c"
  2118 ;; Parameters:    Size  Location     Type
  2119 ;;		None
  2120 ;; Auto vars:     Size  Location     Type
  2121 ;;  temp            2    5[COMRAM] int 
  2122 ;; Return value:  Size  Location     Type
  2123 ;;                  2    1[COMRAM] unsigned int 
  2124 ;; Registers used:
  2125 ;;		wreg, status,2, status,0
  2126 ;; Tracked objects:
  2127 ;;		On entry : 0/0
  2128 ;;		On exit  : 0/0
  2129 ;;		Unchanged: 0/0
  2130 ;; Data sizes:     COMRAM   BANK0   BANK1   BANK2   BANK3   BANK4   BANK5
  2131 ;;      Params:         2       0       0       0       0       0       0
  2132 ;;      Locals:         2       0       0       0       0       0       0
  2133 ;;      Temps:          2       0       0       0       0       0       0
  2134 ;;      Totals:         6       0       0       0       0       0       0
  2135 ;;Total ram usage:        6 bytes
  2136 ;; Hardware stack levels used:    1
  2137 ;; Hardware stack levels required when called:    2
  2138 ;; This function calls:
  2139 ;;		Nothing
  2140 ;; This function is called by:
  2141 ;;		_main
  2142 ;; This function uses a non-reentrant model
  2143 ;;
  2144                           
  2145                           	psect	text6
  2146  000DB0                     __ptext6:
  2147                           	callstack 0
  2148  000DB0                     _Neutral_Init:
  2149                           	callstack 28
  2150  000DB0                     
  2151                           ;main.c: 49:   PORTD=0xFF;
  2152  000DB0  6883               	setf	131,c	;volatile
  2153  000DB2                     
  2154                           ;main.c: 51:   _delay((unsigned long)((2)*(8000000/4000.0)));
  2155  000DB2  0E06               	movlw	6
  2156  000DB4  6E04               	movwf	??_Neutral_Init^0,c
  2157  000DB6  0E30               	movlw	48
  2158  000DB8                     u1577:
  2159  000DB8  2EE8               	decfsz	wreg,f,c
  2160  000DBA  D7FE               	bra	u1577
  2161  000DBC  2E04               	decfsz	??_Neutral_Init^0,f,c
  2162  000DBE  D7FC               	bra	u1577
  2163  000DC0  F000 F000          	nop2	
  2164  000DC4                     
  2165                           ;main.c: 52:   GO = 1;
  2166  000DC4  82C2               	bsf	4034,1,c	;volatile
  2167  000DC6                     
  2168                           ;main.c: 53:   int temp;;main.c: 54:   temp = ADRESL;
  2169  000DC6  CFC3 F006          	movff	4035,Neutral_Init@temp	;volatile
  2170  000DCA  6A07               	clrf	(Neutral_Init@temp+1)^0,c
  2171  000DCC                     
  2172                           ;main.c: 55:   return temp + (ADRESH << 8);
  2173  000DCC  50C4               	movf	196,w,c	;volatile
  2174  000DCE  6E05               	movwf	(??_Neutral_Init+1)^0,c
  2175  000DD0  6A04               	clrf	??_Neutral_Init^0,c
  2176  000DD2  5006               	movf	Neutral_Init@temp^0,w,c
  2177  000DD4  2404               	addwf	??_Neutral_Init^0,w,c
  2178  000DD6  6E02               	movwf	?_Neutral_Init^0,c
  2179  000DD8  5007               	movf	(Neutral_Init@temp+1)^0,w,c
  2180  000DDA  2005               	addwfc	(??_Neutral_Init+1)^0,w,c
  2181  000DDC  6E03               	movwf	(?_Neutral_Init+1)^0,c
  2182  000DDE  0012               	return		;funcret
  2183  000DE0                     __end_of_Neutral_Init:
  2184                           	callstack 0
  2185                           
  2186 ;; *************** function _InitApp *****************
  2187 ;; Defined at:
  2188 ;;		line 28 in file "user.c"
  2189 ;; Parameters:    Size  Location     Type
  2190 ;;		None
  2191 ;; Auto vars:     Size  Location     Type
  2192 ;;		None
  2193 ;; Return value:  Size  Location     Type
  2194 ;;                  1    wreg      void 
  2195 ;; Registers used:
  2196 ;;		wreg, status,2
  2197 ;; Tracked objects:
  2198 ;;		On entry : 0/0
  2199 ;;		On exit  : 0/0
  2200 ;;		Unchanged: 0/0
  2201 ;; Data sizes:     COMRAM   BANK0   BANK1   BANK2   BANK3   BANK4   BANK5
  2202 ;;      Params:         0       0       0       0       0       0       0
  2203 ;;      Locals:         0       0       0       0       0       0       0
  2204 ;;      Temps:          0       0       0       0       0       0       0
  2205 ;;      Totals:         0       0       0       0       0       0       0
  2206 ;;Total ram usage:        0 bytes
  2207 ;; Hardware stack levels used:    1
  2208 ;; Hardware stack levels required when called:    2
  2209 ;; This function calls:
  2210 ;;		Nothing
  2211 ;; This function is called by:
  2212 ;;		_main
  2213 ;; This function uses a non-reentrant model
  2214 ;;
  2215                           
  2216                           	psect	text7
  2217  000E0E                     __ptext7:
  2218                           	callstack 0
  2219  000E0E                     _InitApp:
  2220                           	callstack 28
  2221  000E0E                     
  2222                           ;user.c: 40:     TRISD = 0x00;
  2223  000E0E  0E00               	movlw	0
  2224  000E10  6E95               	movwf	149,c	;volatile
  2225  000E12                     
  2226                           ;user.c: 42:     TRISA0=1;
  2227  000E12  8092               	bsf	3986,0,c	;volatile
  2228  000E14                     
  2229                           ;user.c: 44:     ANS0= 1;
  2230  000E14  807E               	bsf	3966,0,c	;volatile
  2231  000E16                     
  2232                           ;user.c: 46:     ADFM = 0;
  2233  000E16  9EC0               	bcf	4032,7,c	;volatile
  2234  000E18                     
  2235                           ;user.c: 48:     ACQT2 = 1;
  2236  000E18  8AC0               	bsf	4032,5,c	;volatile
  2237  000E1A                     
  2238                           ;user.c: 49:     ACQT1 = 0;
  2239  000E1A  98C0               	bcf	4032,4,c	;volatile
  2240  000E1C                     
  2241                           ;user.c: 50:     ACQT0 = 1;
  2242  000E1C  86C0               	bsf	4032,3,c	;volatile
  2243  000E1E                     
  2244                           ;user.c: 52:     ADCS2 = 0;
  2245  000E1E  94C0               	bcf	4032,2,c	;volatile
  2246  000E20                     
  2247                           ;user.c: 53:     ADCS1 = 1;
  2248  000E20  82C0               	bsf	4032,1,c	;volatile
  2249  000E22                     
  2250                           ;user.c: 54:     ADCS0 = 1;
  2251  000E22  80C0               	bsf	4032,0,c	;volatile
  2252  000E24                     
  2253                           ;user.c: 56:     VCFG1 = 0;
  2254  000E24  9AC1               	bcf	4033,5,c	;volatile
  2255  000E26                     
  2256                           ;user.c: 57:     VCFG0 = 0;
  2257  000E26  98C1               	bcf	4033,4,c	;volatile
  2258  000E28                     
  2259                           ;user.c: 59:     CHS3=0;
  2260  000E28  9AC2               	bcf	4034,5,c	;volatile
  2261  000E2A                     
  2262                           ;user.c: 60:     CHS2=0;
  2263  000E2A  98C2               	bcf	4034,4,c	;volatile
  2264  000E2C                     
  2265                           ;user.c: 61:     CHS1=0;
  2266  000E2C  96C2               	bcf	4034,3,c	;volatile
  2267  000E2E                     
  2268                           ;user.c: 62:     CHS0=0;
  2269  000E2E  94C2               	bcf	4034,2,c	;volatile
  2270  000E30                     
  2271                           ;user.c: 64:     ADON = 1;
  2272  000E30  80C2               	bsf	4034,0,c	;volatile
  2273  000E32                     
  2274                           ;user.c: 66:     ADIF = 0;
  2275  000E32  9C9E               	bcf	3998,6,c	;volatile
  2276  000E34  0012               	return		;funcret
  2277  000E36                     __end_of_InitApp:
  2278                           	callstack 0
  2279                           
  2280 ;; *************** function _Continous_Read *****************
  2281 ;; Defined at:
  2282 ;;		line 66 in file "main.c"
  2283 ;; Parameters:    Size  Location     Type
  2284 ;;		None
  2285 ;; Auto vars:     Size  Location     Type
  2286 ;;  temp            2    5[COMRAM] int 
  2287 ;; Return value:  Size  Location     Type
  2288 ;;                  2    1[COMRAM] unsigned int 
  2289 ;; Registers used:
  2290 ;;		wreg, status,2, status,0
  2291 ;; Tracked objects:
  2292 ;;		On entry : 0/0
  2293 ;;		On exit  : 0/0
  2294 ;;		Unchanged: 0/0
  2295 ;; Data sizes:     COMRAM   BANK0   BANK1   BANK2   BANK3   BANK4   BANK5
  2296 ;;      Params:         2       0       0       0       0       0       0
  2297 ;;      Locals:         2       0       0       0       0       0       0
  2298 ;;      Temps:          2       0       0       0       0       0       0
  2299 ;;      Totals:         6       0       0       0       0       0       0
  2300 ;;Total ram usage:        6 bytes
  2301 ;; Hardware stack levels used:    1
  2302 ;; Hardware stack levels required when called:    2
  2303 ;; This function calls:
  2304 ;;		Nothing
  2305 ;; This function is called by:
  2306 ;;		_main
  2307 ;; This function uses a non-reentrant model
  2308 ;;
  2309                           
  2310                           	psect	text8
  2311  000DE0                     __ptext8:
  2312                           	callstack 0
  2313  000DE0                     _Continous_Read:
  2314                           	callstack 28
  2315  000DE0                     
  2316                           ;main.c: 68:   _delay((unsigned long)((2)*(8000000/4000.0)));
  2317  000DE0  0E06               	movlw	6
  2318  000DE2  6E04               	movwf	??_Continous_Read^0,c
  2319  000DE4  0E30               	movlw	48
  2320  000DE6                     u1587:
  2321  000DE6  2EE8               	decfsz	wreg,f,c
  2322  000DE8  D7FE               	bra	u1587
  2323  000DEA  2E04               	decfsz	??_Continous_Read^0,f,c
  2324  000DEC  D7FC               	bra	u1587
  2325  000DEE  F000 F000          	nop2	
  2326  000DF2                     
  2327                           ;main.c: 69:   GO = 1;
  2328  000DF2  82C2               	bsf	4034,1,c	;volatile
  2329  000DF4                     
  2330                           ;main.c: 70:   int temp;;main.c: 71:   temp = ADRESL;
  2331  000DF4  CFC3 F006          	movff	4035,Continous_Read@temp	;volatile
  2332  000DF8  6A07               	clrf	(Continous_Read@temp+1)^0,c
  2333  000DFA                     
  2334                           ;main.c: 72:   return temp + (ADRESH << 8);
  2335  000DFA  50C4               	movf	196,w,c	;volatile
  2336  000DFC  6E05               	movwf	(??_Continous_Read+1)^0,c
  2337  000DFE  6A04               	clrf	??_Continous_Read^0,c
  2338  000E00  5006               	movf	Continous_Read@temp^0,w,c
  2339  000E02  2404               	addwf	??_Continous_Read^0,w,c
  2340  000E04  6E02               	movwf	?_Continous_Read^0,c
  2341  000E06  5007               	movf	(Continous_Read@temp+1)^0,w,c
  2342  000E08  2005               	addwfc	(??_Continous_Read+1)^0,w,c
  2343  000E0A  6E03               	movwf	(?_Continous_Read+1)^0,c
  2344  000E0C  0012               	return		;funcret
  2345  000E0E                     __end_of_Continous_Read:
  2346                           	callstack 0
  2347                           
  2348 ;; *************** function _ConfigureOscillator *****************
  2349 ;; Defined at:
  2350 ;;		line 24 in file "system.c"
  2351 ;; Parameters:    Size  Location     Type
  2352 ;;		None
  2353 ;; Auto vars:     Size  Location     Type
  2354 ;;		None
  2355 ;; Return value:  Size  Location     Type
  2356 ;;                  1    wreg      void 
  2357 ;; Registers used:
  2358 ;;		None
  2359 ;; Tracked objects:
  2360 ;;		On entry : 0/0
  2361 ;;		On exit  : 0/0
  2362 ;;		Unchanged: 0/0
  2363 ;; Data sizes:     COMRAM   BANK0   BANK1   BANK2   BANK3   BANK4   BANK5
  2364 ;;      Params:         0       0       0       0       0       0       0
  2365 ;;      Locals:         0       0       0       0       0       0       0
  2366 ;;      Temps:          0       0       0       0       0       0       0
  2367 ;;      Totals:         0       0       0       0       0       0       0
  2368 ;;Total ram usage:        0 bytes
  2369 ;; Hardware stack levels used:    1
  2370 ;; Hardware stack levels required when called:    2
  2371 ;; This function calls:
  2372 ;;		Nothing
  2373 ;; This function is called by:
  2374 ;;		_main
  2375 ;; This function uses a non-reentrant model
  2376 ;;
  2377                           
  2378                           	psect	text9
  2379  000E50                     __ptext9:
  2380                           	callstack 0
  2381  000E50                     _ConfigureOscillator:
  2382                           	callstack 28
  2383  000E50  0012               	return		;funcret
  2384  000E52                     __end_of_ConfigureOscillator:
  2385                           	callstack 0
  2386                           
  2387 ;; *************** function _low_isr *****************
  2388 ;; Defined at:
  2389 ;;		line 84 in file "interrupts.c"
  2390 ;; Parameters:    Size  Location     Type
  2391 ;;		None
  2392 ;; Auto vars:     Size  Location     Type
  2393 ;;		None
  2394 ;; Return value:  Size  Location     Type
  2395 ;;                  1    wreg      void 
  2396 ;; Registers used:
  2397 ;;		None
  2398 ;; Tracked objects:
  2399 ;;		On entry : 0/0
  2400 ;;		On exit  : 0/0
  2401 ;;		Unchanged: 0/0
  2402 ;; Data sizes:     COMRAM   BANK0   BANK1   BANK2   BANK3   BANK4   BANK5
  2403 ;;      Params:         0       0       0       0       0       0       0
  2404 ;;      Locals:         0       0       0       0       0       0       0
  2405 ;;      Temps:          1       0       0       0       0       0       0
  2406 ;;      Totals:         1       0       0       0       0       0       0
  2407 ;;Total ram usage:        1 bytes
  2408 ;; Hardware stack levels used:    1
  2409 ;; Hardware stack levels required when called:    1
  2410 ;; This function calls:
  2411 ;;		Nothing
  2412 ;; This function is called by:
  2413 ;;		Interrupt level 1
  2414 ;; This function uses a non-reentrant model
  2415 ;;
  2416                           
  2417                           	psect	intcodelo
  2418  000018                     __pintcodelo:
  2419                           	callstack 0
  2420  000018                     _low_isr:
  2421                           	callstack 27
  2422                           
  2423                           ;incstack = 0
  2424  000018  8056               	bsf	int$flags,0,c	;set compiler interrupt flag (level 1)
  2425  00001A  CFE0 F001          	movff	bsr,??_low_isr
  2426  00001E  C001  FFE0         	movff	??_low_isr,bsr
  2427  000022  9056               	bcf	int$flags,0,c	;clear compiler interrupt flag (level 1)
  2428  000024  0010               	retfie	
  2429  000026                     __end_of_low_isr:
  2430                           	callstack 0
  2431                           
  2432 ;; *************** function _high_isr *****************
  2433 ;; Defined at:
  2434 ;;		line 34 in file "interrupts.c"
  2435 ;; Parameters:    Size  Location     Type
  2436 ;;		None
  2437 ;; Auto vars:     Size  Location     Type
  2438 ;;		None
  2439 ;; Return value:  Size  Location     Type
  2440 ;;                  1    wreg      void 
  2441 ;; Registers used:
  2442 ;;		None
  2443 ;; Tracked objects:
  2444 ;;		On entry : 0/0
  2445 ;;		On exit  : 0/0
  2446 ;;		Unchanged: 0/0
  2447 ;; Data sizes:     COMRAM   BANK0   BANK1   BANK2   BANK3   BANK4   BANK5
  2448 ;;      Params:         0       0       0       0       0       0       0
  2449 ;;      Locals:         0       0       0       0       0       0       0
  2450 ;;      Temps:          0       0       0       0       0       0       0
  2451 ;;      Totals:         0       0       0       0       0       0       0
  2452 ;;Total ram usage:        0 bytes
  2453 ;; Hardware stack levels used:    1
  2454 ;; This function calls:
  2455 ;;		Nothing
  2456 ;; This function is called by:
  2457 ;;		Interrupt level 2
  2458 ;; This function uses a non-reentrant model
  2459 ;;
  2460                           
  2461                           	psect	intcode
  2462  000008                     __pintcode:
  2463                           	callstack 0
  2464  000008                     _high_isr:
  2465                           	callstack 27
  2466                           
  2467                           ;incstack = 0
  2468  000008  8256               	bsf	int$flags,1,c	;set compiler interrupt flag (level 2)
  2469  00000A  EF26  F007         	goto	int_func
  2470                           
  2471                           	psect	intcode_body
  2472  000E4C                     __pintcode_body:
  2473                           	callstack 27
  2474  000E4C                     int_func:
  2475                           	callstack 27
  2476  000E4C  9256               	bcf	int$flags,1,c	;clear compiler interrupt flag (level 2)
  2477  000E4E  0011               	retfie		f
  2478  000E50                     __end_of_high_isr:
  2479                           	callstack 0
  2480  0000                     
  2481                           	psect	rparam
  2482  0000                     
  2483                           	psect	temp
  2484  000056                     btemp:
  2485                           	callstack 0
  2486  000056                     	ds	1
  2487  0000                     int$flags	set	btemp
  2488  0000                     wtemp8	set	btemp+1
  2489  0000                     ttemp5	set	btemp+1
  2490  0000                     ttemp6	set	btemp+4
  2491  0000                     ttemp7	set	btemp+8
  2492                           
  2493                           	psect	idloc
  2494                           
  2495                           ;Config register IDLOC0 @ 0x200000
  2496                           ;	unspecified, using default values
  2497  200000                     	org	2097152
  2498  200000  FF                 	db	255
  2499                           
  2500                           ;Config register IDLOC1 @ 0x200001
  2501                           ;	unspecified, using default values
  2502  200001                     	org	2097153
  2503  200001  FF                 	db	255
  2504                           
  2505                           ;Config register IDLOC2 @ 0x200002
  2506                           ;	unspecified, using default values
  2507  200002                     	org	2097154
  2508  200002  FF                 	db	255
  2509                           
  2510                           ;Config register IDLOC3 @ 0x200003
  2511                           ;	unspecified, using default values
  2512  200003                     	org	2097155
  2513  200003  FF                 	db	255
  2514                           
  2515                           ;Config register IDLOC4 @ 0x200004
  2516                           ;	unspecified, using default values
  2517  200004                     	org	2097156
  2518  200004  FF                 	db	255
  2519                           
  2520                           ;Config register IDLOC5 @ 0x200005
  2521                           ;	unspecified, using default values
  2522  200005                     	org	2097157
  2523  200005  FF                 	db	255
  2524                           
  2525                           ;Config register IDLOC6 @ 0x200006
  2526                           ;	unspecified, using default values
  2527  200006                     	org	2097158
  2528  200006  FF                 	db	255
  2529                           
  2530                           ;Config register IDLOC7 @ 0x200007
  2531                           ;	unspecified, using default values
  2532  200007                     	org	2097159
  2533  200007  FF                 	db	255
  2534                           
  2535                           	psect	config
  2536                           
  2537                           ; Padding undefined space
  2538  300000                     	org	3145728
  2539  300000  FF                 	db	255
  2540                           
  2541                           ;Config register CONFIG1H @ 0x300001
  2542                           ;	Oscillator Selection bits
  2543                           ;	FOSC = INTIO67, Internal oscillator block, port function on RA6 and RA7
  2544                           ;	Fail-Safe Clock Monitor Enable bit
  2545                           ;	FCMEN = OFF, Fail-Safe Clock Monitor disabled
  2546                           ;	Internal/External Oscillator Switchover bit
  2547                           ;	IESO = OFF, Oscillator Switchover mode disabled
  2548  300001                     	org	3145729
  2549  300001  08                 	db	8
  2550                           
  2551                           ;Config register CONFIG2L @ 0x300002
  2552                           ;	Power-up Timer Enable bit
  2553                           ;	PWRT = OFF, PWRT disabled
  2554                           ;	Brown-out Reset Enable bits
  2555                           ;	BOREN = SBORDIS, Brown-out Reset enabled in hardware only (SBOREN is disabled)
  2556                           ;	Brown Out Reset Voltage bits
  2557                           ;	BORV = 18, VBOR set to 1.8 V nominal
  2558  300002                     	org	3145730
  2559  300002  1F                 	db	31
  2560                           
  2561                           ;Config register CONFIG2H @ 0x300003
  2562                           ;	Watchdog Timer Enable bit
  2563                           ;	WDTEN = OFF, WDT is controlled by SWDTEN bit of the WDTCON register
  2564                           ;	Watchdog Timer Postscale Select bits
  2565                           ;	WDTPS = 32768, 1:32768
  2566  300003                     	org	3145731
  2567  300003  1E                 	db	30
  2568                           
  2569                           ; Padding undefined space
  2570  300004                     	org	3145732
  2571  300004  FF                 	db	255
  2572                           
  2573                           ;Config register CONFIG3H @ 0x300005
  2574                           ;	CCP2 MUX bit
  2575                           ;	CCP2MX = PORTC, CCP2 input/output is multiplexed with RC1
  2576                           ;	PORTB A/D Enable bit
  2577                           ;	PBADEN = ON, PORTB<4:0> pins are configured as analog input channels on Reset
  2578                           ;	Low-Power Timer1 Oscillator Enable bit
  2579                           ;	LPT1OSC = OFF, Timer1 configured for higher power operation
  2580                           ;	HFINTOSC Fast Start-up
  2581                           ;	HFOFST = ON, HFINTOSC starts clocking the CPU without waiting for the oscillator to st
      +                          ablize.
  2582                           ;	MCLR Pin Enable bit
  2583                           ;	MCLRE = ON, MCLR pin enabled; RE3 input pin disabled
  2584  300005                     	org	3145733
  2585  300005  8B                 	db	139
  2586                           
  2587                           ;Config register CONFIG4L @ 0x300006
  2588                           ;	Stack Full/Underflow Reset Enable bit
  2589                           ;	STVREN = ON, Stack full/underflow will cause Reset
  2590                           ;	Single-Supply ICSP Enable bit
  2591                           ;	LVP = OFF, Single-Supply ICSP disabled
  2592                           ;	Extended Instruction Set Enable bit
  2593                           ;	XINST = OFF, Instruction set extension and Indexed Addressing mode disabled (Legacy mo
      +                          de)
  2594                           ;	Background Debugger Enable bit
  2595                           ;	DEBUG = 0x1, unprogrammed default
  2596  300006                     	org	3145734
  2597  300006  81                 	db	129
  2598                           
  2599                           ; Padding undefined space
  2600  300007                     	org	3145735
  2601  300007  FF                 	db	255
  2602                           
  2603                           ;Config register CONFIG5L @ 0x300008
  2604                           ;	Code Protection Block 0
  2605                           ;	CP0 = OFF, Block 0 (000800-001FFFh) not code-protected
  2606                           ;	Code Protection Block 1
  2607                           ;	CP1 = OFF, Block 1 (002000-003FFFh) not code-protected
  2608                           ;	Code Protection Block 2
  2609                           ;	CP2 = OFF, Block 2 (004000-005FFFh) not code-protected
  2610                           ;	Code Protection Block 3
  2611                           ;	CP3 = OFF, Block 3 (006000-007FFFh) not code-protected
  2612  300008                     	org	3145736
  2613  300008  0F                 	db	15
  2614                           
  2615                           ;Config register CONFIG5H @ 0x300009
  2616                           ;	Boot Block Code Protection bit
  2617                           ;	CPB = OFF, Boot block (000000-0007FFh) not code-protected
  2618                           ;	Data EEPROM Code Protection bit
  2619                           ;	CPD = OFF, Data EEPROM not code-protected
  2620  300009                     	org	3145737
  2621  300009  C0                 	db	192
  2622                           
  2623                           ;Config register CONFIG6L @ 0x30000A
  2624                           ;	Write Protection Block 0
  2625                           ;	WRT0 = OFF, Block 0 (000800-001FFFh) not write-protected
  2626                           ;	Write Protection Block 1
  2627                           ;	WRT1 = OFF, Block 1 (002000-003FFFh) not write-protected
  2628                           ;	Write Protection Block 2
  2629                           ;	WRT2 = OFF, Block 2 (004000-005FFFh) not write-protected
  2630                           ;	Write Protection Block 3
  2631                           ;	WRT3 = OFF, Block 3 (006000-007FFFh) not write-protected
  2632  30000A                     	org	3145738
  2633  30000A  0F                 	db	15
  2634                           
  2635                           ;Config register CONFIG6H @ 0x30000B
  2636                           ;	Configuration Register Write Protection bit
  2637                           ;	WRTC = OFF, Configuration registers (300000-3000FFh) not write-protected
  2638                           ;	Boot Block Write Protection bit
  2639                           ;	WRTB = OFF, Boot Block (000000-0007FFh) not write-protected
  2640                           ;	Data EEPROM Write Protection bit
  2641                           ;	WRTD = OFF, Data EEPROM not write-protected
  2642  30000B                     	org	3145739
  2643  30000B  E0                 	db	224
  2644                           
  2645                           ;Config register CONFIG7L @ 0x30000C
  2646                           ;	Table Read Protection Block 0
  2647                           ;	EBTR0 = OFF, Block 0 (000800-001FFFh) not protected from table reads executed in other
      +                           blocks
  2648                           ;	Table Read Protection Block 1
  2649                           ;	EBTR1 = OFF, Block 1 (002000-003FFFh) not protected from table reads executed in other
      +                           blocks
  2650                           ;	Table Read Protection Block 2
  2651                           ;	EBTR2 = OFF, Block 2 (004000-005FFFh) not protected from table reads executed in other
      +                           blocks
  2652                           ;	Table Read Protection Block 3
  2653                           ;	EBTR3 = OFF, Block 3 (006000-007FFFh) not protected from table reads executed in other
      +                           blocks
  2654  30000C                     	org	3145740
  2655  30000C  0F                 	db	15
  2656                           
  2657                           ;Config register CONFIG7H @ 0x30000D
  2658                           ;	Boot Block Table Read Protection bit
  2659                           ;	EBTRB = OFF, Boot Block (000000-0007FFh) not protected from table reads executed in ot
      +                          her blocks
  2660  30000D                     	org	3145741
  2661  30000D  40                 	db	64
  2662                           tosu	equ	0xFFF
  2663                           tosh	equ	0xFFE
  2664                           tosl	equ	0xFFD
  2665                           stkptr	equ	0xFFC
  2666                           pclatu	equ	0xFFB
  2667                           pclath	equ	0xFFA
  2668                           pcl	equ	0xFF9
  2669                           tblptru	equ	0xFF8
  2670                           tblptrh	equ	0xFF7
  2671                           tblptrl	equ	0xFF6
  2672                           tablat	equ	0xFF5
  2673                           prodh	equ	0xFF4
  2674                           prodl	equ	0xFF3
  2675                           indf0	equ	0xFEF
  2676                           postinc0	equ	0xFEE
  2677                           postdec0	equ	0xFED
  2678                           preinc0	equ	0xFEC
  2679                           plusw0	equ	0xFEB
  2680                           fsr0h	equ	0xFEA
  2681                           fsr0l	equ	0xFE9
  2682                           wreg	equ	0xFE8
  2683                           indf1	equ	0xFE7
  2684                           postinc1	equ	0xFE6
  2685                           postdec1	equ	0xFE5
  2686                           preinc1	equ	0xFE4
  2687                           plusw1	equ	0xFE3
  2688                           fsr1h	equ	0xFE2
  2689                           fsr1l	equ	0xFE1
  2690                           bsr	equ	0xFE0
  2691                           indf2	equ	0xFDF
  2692                           postinc2	equ	0xFDE
  2693                           postdec2	equ	0xFDD
  2694                           preinc2	equ	0xFDC
  2695                           plusw2	equ	0xFDB
  2696                           fsr2h	equ	0xFDA
  2697                           fsr2l	equ	0xFD9
  2698                           status	equ	0xFD8

Data Sizes:
    Strings     0
    Constant    0
    Data        0
    BSS         8
    Persistent  2
    Stack       0

Auto Spaces:
    Space          Size  Autos    Used
    COMRAM           94     75      85
    BANK0           160      0       0
    BANK1           256      0       0
    BANK2           256      0       0
    BANK3           256      0       0
    BANK4           256      0       0
    BANK5           256      0       0

Pointer List with Targets:

    None.

Critical Paths under _main in COMRAM

    _main->___fltol
    ___fltol->___flsub
    ___flsub->___fladd
    ___fladd->___flmul
    ___flmul->___xxtofl

Critical Paths under _low_isr in COMRAM

    None.

Critical Paths under _high_isr in COMRAM

    None.

Critical Paths under _main in BANK0

    None.

Critical Paths under _low_isr in BANK0

    None.

Critical Paths under _high_isr in BANK0

    None.

Critical Paths under _main in BANK1

    None.

Critical Paths under _low_isr in BANK1

    None.

Critical Paths under _high_isr in BANK1

    None.

Critical Paths under _main in BANK2

    None.

Critical Paths under _low_isr in BANK2

    None.

Critical Paths under _high_isr in BANK2

    None.

Critical Paths under _main in BANK3

    None.

Critical Paths under _low_isr in BANK3

    None.

Critical Paths under _high_isr in BANK3

    None.

Critical Paths under _main in BANK4

    None.

Critical Paths under _low_isr in BANK4

    None.

Critical Paths under _high_isr in BANK4

    None.

Critical Paths under _main in BANK5

    None.

Critical Paths under _low_isr in BANK5

    None.

Critical Paths under _high_isr in BANK5

    None.

Call Graph Tables:

 ---------------------------------------------------------------------------------
 (Depth) Function   	        Calls       Base Space   Used Autos Params    Refs
 ---------------------------------------------------------------------------------
 (0) _main                                                 1     1      0    8100
                                             74 COMRAM     1     1      0
                _ConfigureOscillator
                     _Continous_Read
                            _InitApp
                       _Neutral_Init
                            ___fladd
                            ___flmul
                            ___flsub
                            ___fltol
                           ___xxtofl
 ---------------------------------------------------------------------------------
 (1) ___xxtofl                                            14    10      4     626
                                              1 COMRAM    14    10      4
 ---------------------------------------------------------------------------------
 (1) ___fltol                                             10     6      4     381
                                             64 COMRAM    10     6      4
                            ___fladd (ARG)
                            ___flmul (ARG)
                            ___flsub (ARG)
                           ___xxtofl (ARG)
 ---------------------------------------------------------------------------------
 (1) ___flsub                                              8     0      8    2737
                                             56 COMRAM     8     0      8
                            ___fladd
                            ___flmul (ARG)
                           ___xxtofl (ARG)
 ---------------------------------------------------------------------------------
 (2) ___fladd                                             16     8      8    2414
                                             40 COMRAM    16     8      8
                            ___flmul (ARG)
                           ___xxtofl (ARG)
 ---------------------------------------------------------------------------------
 (1) ___flmul                                             25    17      8    1896
                                             15 COMRAM    25    17      8
                           ___xxtofl (ARG)
 ---------------------------------------------------------------------------------
 (1) _Neutral_Init                                         6     4      2      23
                                              1 COMRAM     6     4      2
 ---------------------------------------------------------------------------------
 (1) _InitApp                                              0     0      0       0
 ---------------------------------------------------------------------------------
 (1) _Continous_Read                                       6     4      2      23
                                              1 COMRAM     6     4      2
 ---------------------------------------------------------------------------------
 (1) _ConfigureOscillator                                  0     0      0       0
 ---------------------------------------------------------------------------------
 Estimated maximum stack depth 2
 ---------------------------------------------------------------------------------
 (Depth) Function   	        Calls       Base Space   Used Autos Params    Refs
 ---------------------------------------------------------------------------------
 (3) _low_isr                                              1     1      0       0
                                              0 COMRAM     1     1      0
 ---------------------------------------------------------------------------------
 Estimated maximum stack depth 3
 ---------------------------------------------------------------------------------
 (Depth) Function   	        Calls       Base Space   Used Autos Params    Refs
 ---------------------------------------------------------------------------------
 (4) _high_isr                                             0     0      0       0
 ---------------------------------------------------------------------------------
 Estimated maximum stack depth 4
 ---------------------------------------------------------------------------------

 Call Graph Graphs:

 _main (ROOT)
   _ConfigureOscillator
   _Continous_Read
   _InitApp
   _Neutral_Init
   ___fladd
     ___flmul (ARG)
       ___xxtofl (ARG)
     ___xxtofl (ARG)
   ___flmul
     ___xxtofl (ARG)
   ___flsub
     ___fladd
       ___flmul (ARG)
         ___xxtofl (ARG)
       ___xxtofl (ARG)
     ___flmul (ARG)
       ___xxtofl (ARG)
     ___xxtofl (ARG)
   ___fltol
     ___fladd (ARG)
       ___flmul (ARG)
         ___xxtofl (ARG)
       ___xxtofl (ARG)
     ___flmul (ARG)
       ___xxtofl (ARG)
     ___flsub (ARG)
       ___fladd
         ___flmul (ARG)
           ___xxtofl (ARG)
         ___xxtofl (ARG)
       ___flmul (ARG)
         ___xxtofl (ARG)
       ___xxtofl (ARG)
     ___xxtofl (ARG)
   ___xxtofl

 _low_isr (ROOT)

 _high_isr (ROOT)

 Address spaces:
Name               Size   Autos  Total    Cost      Usage
BIGRAM             5FF      0       0      17        0.0%
EEDATA             100      0       0       0        0.0%
BITBANK5           100      0       0      16        0.0%
BANK5              100      0       0      14        0.0%
BITBANK4           100      0       0      12        0.0%
BANK4              100      0       0      13        0.0%
BITBANK3           100      0       0      10        0.0%
BANK3              100      0       0      11        0.0%
BITBANK2           100      0       0       8        0.0%
BANK2              100      0       0       9        0.0%
BITBANK1           100      0       0       6        0.0%
BANK1              100      0       0       7        0.0%
BITBANK0            A0      0       0       4        0.0%
BANK0               A0      0       0       5        0.0%
BITCOMRAM           5E      0       0       0        0.0%
COMRAM              5E     4B      55       1       90.4%
BITSFR               0      0       0     200        0.0%
SFR                  0      0       0     200        0.0%
STACK                0      0       0       2        0.0%
NULL                 0      0       0       0        0.0%
ABS                  0      0      55      15        0.0%
DATA                 0      0      55       3        0.0%
CODE                 0      0       0       0        0.0%


Microchip Technology PIC18 Macro Assembler V2.30 build 20200825195618 
Symbol Table                                                                                   Fri Feb 19 15:37:05 2021

            Neutral_Init@temp 0006                            l41 0DDE                            l60 0E50  
                          l44 0E0C                            l53 0C5A                            _GO 007E11  
                          l99 0E34                            bsr 000FE0                           l630 0218  
                         l631 0206                           l720 0912                           l632 01CC  
                         l723 07A4                           l716 05AE                           l733 08D4  
                         l725 081C                           l726 080A                           l647 0332  
                         l639 04E8                           l399 0D68                           l656 0402  
                         l672 0DAE                           l760 0AC6                           l657 03F0  
                         l771 0A5E                           l764 0A02                           l757 096A  
                         l999 0E0E                           u800 0066                           u801 0062  
                         u810 00A8                           u811 00A4                           u900 01DA  
                         u820 00BE                           u901 01D6                           u821 00BA  
                         u910 01F8                           u830 00D0                           u911 01F4  
                         u831 00CC                           u920 0218                           u840 00E0  
                         i2l9 0E4C                           u921 0214                           u841 00DC  
                         u930 0226                           u850 011C                           u931 0222  
                         u851 0118                           u940 0236                           u860 012A  
                         u780 0044                           u941 0232                           u861 0126  
                         u781 0040                           u950 0268                           u870 0198  
                         u790 0056                           u951 0264                           u871 0194  
                         u791 0052                           u960 0276                           u880 01B0  
                         u961 0272                           u881 01AA                           u970 0294  
                         u890 01B2                           u971 0290                           u980 02CC  
                         u981 02C8                           u990 0312                           u991 030E  
                         wreg 000FE8                  ___flmul@aexp 0021                  ___flmul@bexp 0022  
                ___flmul@sign 001C                  ___flmul@temp 0027                  ___flmul@prod 0023  
                ___fltol@exp1 004A                          l1001 0E12                          l1011 0E1C  
                        l1003 0E14                          l1021 0E26                          l1013 0E1E  
                        l1005 0E16                          l1031 0E30                          l1023 0E28  
                        l1015 0E20                          l1007 0E18                          l1033 0E32  
                        l1025 0E2A                          l1017 0E22                          l1009 0E1A  
                        l1027 0E2C                          l1019 0E24                          l1029 0E2E  
                        l1301 0066                          l1311 0096                          l1303 0076  
                        l1401 0268                          l1321 00C0                          l1313 00A8  
                        l1305 0078                          l1411 0296                          l1403 0276  
                        l1323 00D0                          l1331 00FA                          l1315 00AA  
                        l1307 0080                          l1501 0DCC                          l1421 0302  
                        l1413 02A0                          l1405 0282                          l1341 0132  
                        l1333 010A                          l1325 00E0                          l1317 00B0  
                        l1309 0090                          l1511 0DFA                          l1423 0312  
                        l1407 0286                          l1415 02A6                          l1351 0146  
                        l1343 0136                          l1335 011C                          l1327 00F0  
                        l1319 00BE                          l1505 0DE0                          l1601 07A2  
                        l1521 0506                          l1441 0394                          l1433 036C  
                        l1417 02CC                          l1425 0322                          l1409 0294  
                        l1361 015A                          l1353 014A                          l1345 013A  
                        l1337 012A                          l1329 00F2                          l1507 0DF2  
                        l1611 0802                          l1603 07B4                          l1531 054C  
                        l1523 0516                          l1515 04EA                          l1443 039C  
                        l1435 0376                          l1427 0348                          l1419 0300  
                        l1451 03C0                          l1371 016E                          l1363 015E  
                        l1355 014E                          l1347 013E                          l1339 012E  
                        l1291 002A                          l1509 0DF4                          l1621 0870  
                        l1605 07C2                          l1541 0578                          l1533 0552  
                        l1525 0526                          l1517 04F6                          l1461 0412  
                        l1453 03C4                          l1445 03A0                          l1437 0384  
                        l1429 0358                          l1381 01E6                          l1373 0198  
                        l1365 0162                          l1357 0152                          l1349 0142  
                        l1293 0036                          l1701 097A                          l1631 08D8  
                        l1615 082C                          l1623 0874                          l1607 07C6  
                        l1551 05CE                          l1543 0588                          l1535 0558  
                        l1527 0536                          l1519 0504                          l1471 0478  
                        l1463 041E                          l1455 03D2                          l1447 03B0  
                        l1439 0386                          l1391 0226                          l1383 01EA  
                        l1375 01B4                          l1367 0166                          l1359 0156  
                        l1295 0044                          l1711 09B8                          l1703 0990  
                        l1641 0902                          l1633 08E8                          l1625 088E  
                        l1617 0838                          l1609 07D4                          l1561 060E  
                        l1545 0598                          l1537 0566                          l1529 053C  
                        l1481 04C0                          l1473 0488                          l1465 042C  
                        l1457 03E8                          l1449 03B2                          l1393 0236  
                        l1385 01F8                          l1377 01C4                          l1369 016A  
                        l1297 0046                          l1721 0A40                          l1713 09EA  
                        l1635 08F6                          l1627 08A2                          l1619 0846  
                        l1571 0658                          l1563 061A                          l1555 05E2  
                        l1547 059E                          l1539 0568                          l1483 04C2  
                        l1475 04A8                          l1467 0466                          l1387 01FA  
                        l1379 01DA                          l1299 0056                          l1651 0C64  
                        l1731 0A96                          l1723 0A4E                          l1715 09EC  
                        l1707 09A4                          l1493 0DB0                          l1637 08F8  
                        l1629 08BC                          l1581 06AA                          l1573 0664  
                        l1565 0632                          l1557 05EE                          l1549 05BE  
                        l1485 04C8                          l1477 04AC                          l1469 0468  
                        l1397 024A                          l1389 0204                          l1645 0D6A  
                        l1661 0CBA                          l1653 0C7A                          l1733 0AA6  
                        l1725 0A6C                          l1717 09F8                          l1709 09AC  
                        l1741 0AC8                          l1495 0DB2                          l1639 08FE  
                        l1591 0728                          l1583 06BA                          l1575 0674  
                        l1567 063E                          l1559 05F8                          l1487 04D6  
                        l1479 04BA                          l1399 025A                          l1647 0D7A  
                        l1663 0CCA                          l1735 0AB4                          l1727 0A6E  
                        l1719 0A34                          l1751 0AF2                          l1743 0ACC  
                        l1497 0DC4                          l1593 075E                          l1585 06D6  
                        l1577 0680                          l1569 064A                          l1489 04D8  
                        l1673 0CF4                          l1665 0CCE                          l1657 0C8E  
                        l1737 0AB6                          l1729 0A72                          l1761 0C1A  
                        l1753 0AF4                          l1745 0AD0                          l1499 0DC6  
                        l1595 076C                          l1587 06E2                          l1579 0690  
                        l1691 0D58                          l1683 0D1C                          l1675 0CFE  
                        l1667 0CDC                          l1659 0CB8                          l1763 0C26  
                        l1755 0B06                          l1747 0ADC                          l1597 078A  
                        l1589 06FE                          l1685 0D28                          l1677 0D08  
                        l1765 0C3C                          l1757 0B0A                          l1749 0AE0  
                        l1599 0794                          l1687 0D38                          l1695 0916  
                        l1767 0C52                          l1759 0B92                          l1689 0D48  
                        l1697 0926                          l1699 0934                          _ADIF 007CF6  
                        _ADFM 007E07                          _ADON 007E10                          _CHS0 007E12  
                        _CHS1 007E13                          _CHS2 007E14                          _CHS3 007E15  
                        _ANS0 007BF0                          u1000 0348                          u1001 0344  
                        u1010 0358                          u1011 0354                          u1100 042C  
                        u1020 0384                          u1101 0428                          u1021 0380  
                        u1110 0466                          u1030 0394                          u1111 0462  
                        u1031 0390                          u1200 0566                          u1120 0478  
                        u1040 03B0                          u1201 0562                          u1121 0474  
                        u1041 03AC                          u1210 0578                          u1130 0488  
                        u1050 03C0                          u1211 0574                          u1131 0484  
                        u1051 03BC                          u1300 0818                          u1220 0588  
                        u1140 04A8                          u1060 03D2                          u1301 0814  
                        u1221 0584                          u1141 04A4                          u1061 03CE  
                        u1310 082C                          u1230 05BE                          u1150 04BA  
                        u1070 03E8                          u1311 0828                          u1231 05BA  
                        u1151 04B6                          u1071 03E4                          u1320 0846  
                        u1240 05CE                          u1160 04D6                          u1080 03FE  
                        u1400 0D18                          u1321 0842                          u1241 05CA  
                        u1161 04D2                          u1081 03FA                          u1401 0D14  
                        u1330 088E                          u1250 0748                          u1170 0504  
                        u1090 0412                          u1410 0D38                          u1331 088A  
                        u1171 0500                          u1091 040E                          u1411 0D34  
                        u1340 08BC                          u1260 07A2                          u1180 0516  
                        u1420 0D48                          u1500 0A6C                          u1341 08B8  
                        u1261 079E                          u1181 0512                          u1421 0D44  
                        u1501 0A68                          u1350 08F6                          u1270 07C2  
                        u1190 0526                          u1510 0AA6                          u1430 0926  
                        u1351 08F2                          u1271 07BE                          u1255 073E  
                        u1191 0522                          u1511 0AA2                          u1431 0922  
                        u1280 07D4                          u1360 0C7A                          u1520 0AB4  
                        u1440 0934                          u1281 07D0                          u1361 0C76  
                        u1521 0AB0                          u1441 0930                          u1290 0802  
                        u1370 0CAE                          u1450 0990                          u1530 0C3C  
                        u1291 07FE                          u1451 098C                          u1531 0C38  
                        u1380 0CDC                          u1460 09E6                          u1540 0C52  
                        u1381 0CD8                          u1461 09E2                          u1541 0C4E  
                        u1390 0CF0                          u1470 0A30                          u1391 0CEC  
                        u1375 0CA4                          u1471 0A2C                          u1480 0A4E  
                        u1481 0A4A                          u1490 0A5E                          u1491 0A5A  
                        u1557 0AE6                          u1567 0AFA                          u1577 0DB8  
                        u1587 0DE6                          i1l14 001E                          _main 0AC8  
                        btemp 0056                          prodh 000FF4                          prodl 000FF3  
                        start 0026                  ___param_bank 000000               __end_of_InitApp 0E36  
               ___fltol@sign1 0049                         _ADCS0 007E00                         _ADCS1 007E01  
                       _ADCS2 007E02               __end_of___fladd 04EA                         ?_main 0001  
                       _ACQT0 007E03                         _ACQT1 007E04                         _ACQT2 007E05  
             __end_of___flmul 0914               __end_of___flsub 0DB0               __end_of___fltol 0D6A  
                       _VCFG0 007E0C                         _VCFG1 007E0D                         _PORTD 000F83  
                       _TRISD 000F95           _ConfigureOscillator 0E50               __end_of_low_isr 0026  
                       ttemp5 0057                         ttemp6 005A                         ttemp7 005E  
                       status 000FD8                         wtemp8 0057          ?_ConfigureOscillator 0001  
             __initialization 0E36                  __end_of_main 0C64                        ??_main 004B  
               __activetblptr 000000                        _ADRESH 000FC4                        _ADRESL 000FC3  
          Continous_Read@temp 0006                        _TRISA0 007C90              __end_of___xxtofl 0AC8  
                   ??_InitApp 0002         ??_ConfigureOscillator 0002              __end_of_high_isr 0E50  
                   ??___fladd 0031                     ??___flmul 0018              ??_Continous_Read 0004  
                   ??___flsub 0041                     ??___fltol 0045                        clear_0 0E3C  
                   ??_low_isr 0001                 ?_Neutral_Init 0002                  ___xxtofl@arg 000C  
                ___xxtofl@exp 000B                  ___xxtofl@val 0002                    __accesstop 0060  
     __end_of__initialization 0E42                 ___rparam_used 000001                    ___fltol@f1 0041  
              __pcstackCOMRAM 0001                ??_Neutral_Init 0004                    __pnvCOMRAM 0054  
                   ?___xxtofl 0002                     ?_high_isr 0001                       _InitApp 0E0E  
                     __Hparam 0000                       __Lparam 0000                       ___fladd 002A  
                     ___flmul 04EA                       ___flsub 0D6A                       ___fltol 0C64  
                     __pcinit 0E36                       __ramtop 0600                       __ptext0 0AC8  
                     __ptext1 0914                       __ptext2 0C64                       __ptext3 0D6A  
                     __ptext4 002A                       __ptext5 04EA                       __ptext6 0DB0  
                     __ptext7 0E0E                       __ptext8 0DE0                       __ptext9 0E50  
                     _max_pos 0050                    ??___xxtofl 0006                       _min_pos 004E  
                  _duty_cycle 004C                       _low_isr 0018                    ??_high_isr 0001  
              __pintcode_body 0E4C          end_of_initialization 0E42                       int_func 0E4C  
                     postinc0 000FEE          __end_of_Neutral_Init 0DE0                   ___fladd@grs 0038  
               ___xxtofl@sign 000A   __end_of_ConfigureOscillator 0E52                   ___flmul@grs 001D  
         start_initialization 0E36                     ___fladd@a 002D                     ___fladd@b 0029  
                   ___flmul@a 0014                     ___flmul@b 0010                   __pbssCOMRAM 004C  
                   ___flsub@a 003D                     ___flsub@b 0039       __size_of_Continous_Read 002E  
           __size_of___xxtofl 01B4             __size_of_high_isr 0E48                      ?_InitApp 0001  
       __size_of_Neutral_Init 0030                     __pintcode 0008                      ?___fladd 0029  
                    ?___flmul 0010                      ?___flsub 0039                      ?___fltol 0041  
                 __pintcodelo 0018                      ?_low_isr 0001                  _Neutral_Init 0DB0  
            __size_of_InitApp 0028                      __Hrparam 0000                      __Lrparam 0000  
            __size_of___fladd 04C0              __size_of___flmul 042A              __size_of___flsub 0046  
            __size_of___fltol 0106                      ___xxtofl 0914                _Continous_Read 0DE0  
            __size_of_low_isr 000E                      _high_isr 0008                 __size_of_main 019C  
                    _real_pos 0052  __size_of_ConfigureOscillator 0002                      int$flags 0056  
      __end_of_Continous_Read 0E0E                   _neutral_pos 0054                      intlevel1 0000  
                    intlevel2 0000               ?_Continous_Read 0002                 ___fladd@signs 0035  
                ___fladd@aexp 0036                  ___fladd@bexp 0037  
