

Microchip MPLAB XC8 Assembler V2.30 build 20200825195618 
                                                                                               Thu Apr 08 14:44:49 2021

Microchip MPLAB XC8 C Compiler v2.30 (Free license) build 20200825195618 Og1 
     1                           	processor	18F45K20
     2                           	fnconf	rparam,??,?,0
     3                           	pagewidth 120
     4                           	opt	flic
     5                           	psect	cinit,global,reloc=2,class=CODE,delta=1
     6                           	psect	bssCOMRAM,global,class=COMRAM,space=1,delta=1,lowdata,noexec
     7                           	psect	bssBANK0,global,class=BANK0,space=1,delta=1,lowdata,noexec
     8                           	psect	cstackBANK0,global,class=BANK0,space=1,delta=1,lowdata,noexec
     9                           	psect	cstackCOMRAM,global,class=COMRAM,space=1,delta=1,lowdata,noexec
    10                           	psect	text0,global,reloc=2,class=CODE,delta=1
    11                           	psect	text1,global,reloc=2,class=CODE,delta=1,group=1
    12                           	psect	text2,global,reloc=2,class=CODE,delta=1,group=1
    13                           	psect	text3,global,reloc=2,class=CODE,delta=1,group=1
    14                           	psect	text4,global,reloc=2,class=CODE,delta=1,group=1
    15                           	psect	text5,global,reloc=2,class=CODE,delta=1,group=1
    16                           	psect	text6,global,reloc=2,class=CODE,delta=1
    17                           	psect	text7,global,reloc=2,class=CODE,delta=1
    18                           	psect	text8,global,reloc=2,class=CODE,delta=1,group=1
    19                           	psect	text9,global,reloc=2,class=CODE,delta=1,group=1
    20                           	psect	text10,global,reloc=2,class=CODE,delta=1
    21                           	psect	text11,global,reloc=2,class=CODE,delta=1
    22                           	psect	text12,global,reloc=2,class=CODE,delta=1
    23                           	psect	text13,global,reloc=2,class=CODE,delta=1
    24                           	psect	intcodelo,global,reloc=2,class=CODE,delta=1
    25                           	psect	intcode,global,reloc=2,class=CODE,delta=1
    26                           	psect	intcode_body,global,reloc=2,class=CODE,delta=1
    27                           	psect	text16,global,reloc=2,class=CODE,delta=1
    28                           	psect	intsave_regs,global,class=BIGRAM,space=1,delta=1,noexec
    29                           	psect	rparam,global,class=COMRAM,space=1,delta=1,noexec
    30                           	psect	temp,global,ovrld,common,class=COMRAM,space=1,delta=1
    31                           	psect	idloc,global,abs,ovrld,class=IDLOC,space=5,delta=1,noexec
    32                           	psect	config,global,abs,ovrld,class=CONFIG,space=4,delta=1,noexec
    33  0000                     
    34                           ; Version 2.20
    35                           ; Generated 05/05/2020 GMT
    36                           ; 
    37                           ; Copyright © 2020, Microchip Technology Inc. and its subsidiaries ("Microchip")
    38                           ; All rights reserved.
    39                           ; 
    40                           ; This software is developed by Microchip Technology Inc. and its subsidiaries ("Microch
      +                          ip").
    41                           ; 
    42                           ; Redistribution and use in source and binary forms, with or without modification, are
    43                           ; permitted provided that the following conditions are met:
    44                           ; 
    45                           ;     1. Redistributions of source code must retain the above copyright notice, this lis
      +                          t of
    46                           ;        conditions and the following disclaimer.
    47                           ; 
    48                           ;     2. Redistributions in binary form must reproduce the above copyright notice, this 
      +                          list
    49                           ;        of conditions and the following disclaimer in the documentation and/or other
    50                           ;        materials provided with the distribution.
    51                           ; 
    52                           ;     3. Microchip's name may not be used to endorse or promote products derived from th
      +                          is
    53                           ;        software without specific prior written permission.
    54                           ; 
    55                           ; THIS SOFTWARE IS PROVIDED BY MICROCHIP "AS IS" AND ANY EXPRESS OR IMPLIED WARRANTIES,
    56                           ; INCLUDING, BUT NOT LIMITED TO, THE IMPLIED WARRANTIES OF MERCHANTABILITY AND FITNESS F
      +                          OR
    57                           ; PURPOSE ARE DISCLAIMED.  IN NO EVENT SHALL MICROCHIP BE LIABLE FOR ANY DIRECT, INDIREC
      +                          T,
    58                           ; INCIDENTAL, SPECIAL, EXEMPLARY, OR CONSEQUENTIAL DAMAGES (INCLUDING BUT NOT LIMITED TO
    59                           ; PROCUREMENT OF SUBSTITUTE GOODS OR SERVICES; LOSS OF USE, DATA OR PROFITS; OR BUSINESS
    60                           ; INTERRUPTION) HOWSOEVER CAUSED AND ON ANY THEORY OF LIABILITY, WHETHER IN CONTRACT, ST
      +                          RICT
    61                           ; LIABILITY, OR TORT (INCLUDING NEGLIGENCE OR OTHERWISE) ARISING IN ANY WAY OUT OF THE U
      +                          SE OF
    62                           ; THIS SOFTWARE, EVEN IF ADVISED OF THE POSSIBILITY OF SUCH DAMAGE.
    63                           ; 
    64                           ; 
    65                           ; Code-generator required, PIC18F45K20 Definitions
    66                           ; 
    67                           ; SFR Addresses
    68  0000                     _ADRESH	set	4036
    69  0000                     _ADRESL	set	4035
    70  0000                     _ADCON0bits	set	4034
    71  0000                     _ADCON1bits	set	4033
    72  0000                     _ADCON2bits	set	4032
    73  0000                     _ANSELbits	set	3966
    74  0000                     _INTCON2bits	set	4081
    75  0000                     _RCONbits	set	4048
    76  0000                     _ANSELHbits	set	3967
    77  0000                     _CCP1CONbits	set	4029
    78  0000                     _T2CONbits	set	4042
    79  0000                     _TRISBbits	set	3987
    80  0000                     _TRISAbits	set	3986
    81  0000                     _TRISDbits	set	3989
    82  0000                     _CCPR1L	set	4030
    83  0000                     _PR2	set	4043
    84  0000                     _PORTDbits	set	3971
    85  0000                     _INTCONbits	set	4082
    86  0000                     _GO	set	32273
    87  0000                     _DC1B0	set	32236
    88  0000                     _DC1B1	set	32237
    89                           
    90                           ; #config settings
    91                           
    92                           	psect	cinit
    93  001196                     __pcinit:
    94                           	callstack 0
    95  001196                     start_initialization:
    96                           	callstack 0
    97  001196                     __initialization:
    98                           	callstack 0
    99                           
   100                           ; Clear objects allocated to BANK0 (2 bytes)
   101  001196  0100               	movlb	0
   102  001198  6B69               	clrf	(__pbssBANK0+1)& (0+255),b
   103  00119A  6B68               	clrf	__pbssBANK0& (0+255),b
   104                           
   105                           ; Clear objects allocated to COMRAM (10 bytes)
   106  00119C  EE00  F04C         	lfsr	0,__pbssCOMRAM
   107  0011A0  0E0A               	movlw	10
   108  0011A2                     clear_0:
   109  0011A2  6AEE               	clrf	postinc0,c
   110  0011A4  06E8               	decf	wreg,f,c
   111  0011A6  E1FD               	bnz	clear_0
   112  0011A8                     end_of_initialization:
   113                           	callstack 0
   114  0011A8                     __end_of__initialization:
   115                           	callstack 0
   116  0011A8  9056               	bcf	int$flags,0,c	;clear compiler interrupt flag (level 1)
   117  0011AA  9256               	bcf	int$flags,1,c	;clear compiler interrupt flag (level 2)
   118  0011AC  0100               	movlb	0
   119  0011AE  EF8A  F004         	goto	_main	;jump to C main() function
   120                           
   121                           	psect	bssCOMRAM
   122  00004C                     __pbssCOMRAM:
   123                           	callstack 0
   124  00004C                     _duty_cycle:
   125                           	callstack 0
   126  00004C                     	ds	2
   127  00004E                     _min_pos:
   128                           	callstack 0
   129  00004E                     	ds	2
   130  000050                     _max_pos:
   131                           	callstack 0
   132  000050                     	ds	2
   133  000052                     _real_pos:
   134                           	callstack 0
   135  000052                     	ds	2
   136  000054                     _neutral_pos:
   137                           	callstack 0
   138  000054                     	ds	2
   139                           
   140                           	psect	bssBANK0
   141  000068                     __pbssBANK0:
   142                           	callstack 0
   143  000068                     _temp:
   144                           	callstack 0
   145  000068                     	ds	2
   146                           
   147                           	psect	cstackBANK0
   148  000060                     __pcstackBANK0:
   149                           	callstack 0
   150  000060                     ??___fltol:
   151                           
   152                           ; 1 bytes @ 0x0
   153  000060                     	ds	4
   154  000064                     ___fltol@sign1:
   155                           	callstack 0
   156                           
   157                           ; 1 bytes @ 0x4
   158  000064                     	ds	1
   159  000065                     ___fltol@exp1:
   160                           	callstack 0
   161                           
   162                           ; 1 bytes @ 0x5
   163  000065                     	ds	1
   164  000066                     ??_main:
   165                           
   166                           ; 1 bytes @ 0x6
   167  000066                     	ds	2
   168                           
   169                           	psect	cstackCOMRAM
   170  000001                     __pcstackCOMRAM:
   171                           	callstack 0
   172  000001                     ?i2_ADCRead_Pos:
   173                           	callstack 0
   174                           
   175                           ; 2 bytes @ 0x0
   176  000001                     	ds	2
   177  000003                     ??i2_ADCRead_Pos:
   178                           
   179                           ; 1 bytes @ 0x2
   180  000003                     	ds	2
   181  000005                     i2ADCRead_Pos@temp:
   182                           	callstack 0
   183                           
   184                           ; 2 bytes @ 0x4
   185  000005                     	ds	2
   186  000007                     ??_high_isr:
   187                           
   188                           ; 1 bytes @ 0x6
   189  000007                     	ds	1
   190  000008                     ??_low_isr:
   191                           
   192                           ; 1 bytes @ 0x7
   193  000008                     	ds	1
   194  000009                     ?_ADCRead_Pos:
   195                           	callstack 0
   196  000009                     ?___lmul:
   197                           	callstack 0
   198  000009                     ?___aldiv:
   199                           	callstack 0
   200  000009                     ?___xxtofl:
   201                           	callstack 0
   202  000009                     ___lmul@multiplier:
   203                           	callstack 0
   204  000009                     ___aldiv@dividend:
   205                           	callstack 0
   206  000009                     ___xxtofl@val:
   207                           	callstack 0
   208                           
   209                           ; 4 bytes @ 0x8
   210  000009                     	ds	2
   211  00000B                     ??_ADCRead_Pos:
   212                           
   213                           ; 1 bytes @ 0xA
   214  00000B                     	ds	2
   215  00000D                     ??___xxtofl:
   216  00000D                     ADCRead_Pos@temp:
   217                           	callstack 0
   218  00000D                     ___lmul@multiplicand:
   219                           	callstack 0
   220  00000D                     ___aldiv@divisor:
   221                           	callstack 0
   222                           
   223                           ; 4 bytes @ 0xC
   224  00000D                     	ds	4
   225  000011                     ___aldiv@counter:
   226                           	callstack 0
   227  000011                     ___xxtofl@sign:
   228                           	callstack 0
   229  000011                     ___lmul@product:
   230                           	callstack 0
   231                           
   232                           ; 4 bytes @ 0x10
   233  000011                     	ds	1
   234  000012                     ___aldiv@sign:
   235                           	callstack 0
   236  000012                     ___xxtofl@exp:
   237                           	callstack 0
   238                           
   239                           ; 1 bytes @ 0x11
   240  000012                     	ds	1
   241  000013                     ___aldiv@quotient:
   242                           	callstack 0
   243  000013                     ___xxtofl@arg:
   244                           	callstack 0
   245                           
   246                           ; 4 bytes @ 0x12
   247  000013                     	ds	4
   248  000017                     ?___flmul:
   249                           	callstack 0
   250  000017                     PWMSetDutyCycle@percentage:
   251                           	callstack 0
   252  000017                     ___flmul@b:
   253                           	callstack 0
   254                           
   255                           ; 4 bytes @ 0x16
   256  000017                     	ds	2
   257  000019                     ??_PWMSetDutyCycle:
   258                           
   259                           ; 1 bytes @ 0x18
   260  000019                     	ds	2
   261  00001B                     ___flmul@a:
   262                           	callstack 0
   263                           
   264                           ; 4 bytes @ 0x1A
   265  00001B                     	ds	3
   266  00001E                     PWMSetDutyCycle@output:
   267                           	callstack 0
   268                           
   269                           ; 4 bytes @ 0x1D
   270  00001E                     	ds	1
   271  00001F                     ??___flmul:
   272                           
   273                           ; 1 bytes @ 0x1E
   274  00001F                     	ds	3
   275  000022                     Vibration_ON@percentage:
   276                           	callstack 0
   277                           
   278                           ; 2 bytes @ 0x21
   279  000022                     	ds	1
   280  000023                     ___flmul@sign:
   281                           	callstack 0
   282                           
   283                           ; 1 bytes @ 0x22
   284  000023                     	ds	1
   285  000024                     ___flmul@grs:
   286                           	callstack 0
   287                           
   288                           ; 4 bytes @ 0x23
   289  000024                     	ds	4
   290  000028                     ___flmul@aexp:
   291                           	callstack 0
   292                           
   293                           ; 1 bytes @ 0x27
   294  000028                     	ds	1
   295  000029                     ___flmul@bexp:
   296                           	callstack 0
   297                           
   298                           ; 1 bytes @ 0x28
   299  000029                     	ds	1
   300  00002A                     ___flmul@prod:
   301                           	callstack 0
   302                           
   303                           ; 4 bytes @ 0x29
   304  00002A                     	ds	4
   305  00002E                     ___flmul@temp:
   306                           	callstack 0
   307                           
   308                           ; 2 bytes @ 0x2D
   309  00002E                     	ds	2
   310  000030                     ?___fladd:
   311                           	callstack 0
   312  000030                     ___fladd@b:
   313                           	callstack 0
   314                           
   315                           ; 4 bytes @ 0x2F
   316  000030                     	ds	4
   317  000034                     ___fladd@a:
   318                           	callstack 0
   319                           
   320                           ; 4 bytes @ 0x33
   321  000034                     	ds	4
   322  000038                     ??___fladd:
   323                           
   324                           ; 1 bytes @ 0x37
   325  000038                     	ds	4
   326  00003C                     ___fladd@signs:
   327                           	callstack 0
   328                           
   329                           ; 1 bytes @ 0x3B
   330  00003C                     	ds	1
   331  00003D                     ___fladd@aexp:
   332                           	callstack 0
   333                           
   334                           ; 1 bytes @ 0x3C
   335  00003D                     	ds	1
   336  00003E                     ___fladd@bexp:
   337                           	callstack 0
   338                           
   339                           ; 1 bytes @ 0x3D
   340  00003E                     	ds	1
   341  00003F                     ___fladd@grs:
   342                           	callstack 0
   343                           
   344                           ; 1 bytes @ 0x3E
   345  00003F                     	ds	1
   346  000040                     ?___flsub:
   347                           	callstack 0
   348  000040                     ___flsub@b:
   349                           	callstack 0
   350                           
   351                           ; 4 bytes @ 0x3F
   352  000040                     	ds	4
   353  000044                     ___flsub@a:
   354                           	callstack 0
   355                           
   356                           ; 4 bytes @ 0x43
   357  000044                     	ds	4
   358  000048                     ?___fltol:
   359                           	callstack 0
   360  000048                     ___fltol@f1:
   361                           	callstack 0
   362                           
   363                           ; 4 bytes @ 0x47
   364  000048                     	ds	4
   365                           
   366 ;;
   367 ;;Main: autosize = 0, tempsize = 2, incstack = 0, save=0
   368 ;;
   369 ;; *************** function _main *****************
   370 ;; Defined at:
   371 ;;		line 78 in file "main.c"
   372 ;; Parameters:    Size  Location     Type
   373 ;;		None
   374 ;; Auto vars:     Size  Location     Type
   375 ;;  percentage      2    0        unsigned int 
   376 ;; Return value:  Size  Location     Type
   377 ;;                  1    wreg      void 
   378 ;; Registers used:
   379 ;;		wreg, status,2, status,0, prodl, prodh, cstack
   380 ;; Tracked objects:
   381 ;;		On entry : 0/0
   382 ;;		On exit  : 0/0
   383 ;;		Unchanged: 0/0
   384 ;; Data sizes:     COMRAM   BANK0   BANK1   BANK2   BANK3   BANK4   BANK5
   385 ;;      Params:         0       0       0       0       0       0       0
   386 ;;      Locals:         0       0       0       0       0       0       0
   387 ;;      Temps:          0       2       0       0       0       0       0
   388 ;;      Totals:         0       2       0       0       0       0       0
   389 ;;Total ram usage:        2 bytes
   390 ;; Hardware stack levels required when called:    6
   391 ;; This function calls:
   392 ;;		_ADCRead_Pos
   393 ;;		_ConfigureOscillator
   394 ;;		_InitApp
   395 ;;		_Init_ADC
   396 ;;		_Vibration_ON
   397 ;;		___fladd
   398 ;;		___flmul
   399 ;;		___flsub
   400 ;;		___fltol
   401 ;;		___xxtofl
   402 ;; This function is called by:
   403 ;;		Startup code after reset
   404 ;; This function uses a non-reentrant model
   405 ;;
   406                           
   407                           	psect	text0
   408  000914                     __ptext0:
   409                           	callstack 0
   410  000914                     _main:
   411                           	callstack 25
   412  000914                     
   413                           ;main.c: 81:     ConfigureOscillator();
   414  000914  ECE0  F008         	call	_ConfigureOscillator	;wreg free
   415  000918                     
   416                           ;main.c: 84:     InitApp();
   417  000918  EC63  F008         	call	_InitApp	;wreg free
   418  00091C                     
   419                           ;main.c: 85:     Init_ADC();
   420  00091C  ECBA  F008         	call	_Init_ADC	;wreg free
   421  000920                     
   422                           ;main.c: 88:     neutral_pos = 0x00;
   423  000920  0E00               	movlw	0
   424  000922  6E55               	movwf	(_neutral_pos+1)^0,c
   425  000924  0E00               	movlw	0
   426  000926  6E54               	movwf	_neutral_pos^0,c
   427  000928                     
   428                           ;main.c: 89:     real_pos =0x00;
   429  000928  0E00               	movlw	0
   430  00092A  6E53               	movwf	(_real_pos+1)^0,c
   431  00092C  0E00               	movlw	0
   432  00092E  6E52               	movwf	_real_pos^0,c
   433  000930                     
   434                           ;main.c: 90:     PORTDbits.RD7=0;
   435  000930  9E83               	bcf	131,7,c	;volatile
   436  000932                     
   437                           ;main.c: 91:     Vibration_ON(0);
   438  000932  0E00               	movlw	0
   439  000934  6E23               	movwf	(Vibration_ON@percentage+1)^0,c
   440  000936  0E00               	movlw	0
   441  000938  6E22               	movwf	Vibration_ON@percentage^0,c
   442  00093A  ECD9  F008         	call	_Vibration_ON	;wreg free
   443  00093E                     
   444                           ;main.c: 95:     neutral_pos = ADCRead_Pos();
   445  00093E  EC96  F008         	call	_ADCRead_Pos	;wreg free
   446  000942  C009  F054         	movff	?_ADCRead_Pos,_neutral_pos
   447  000946  C00A  F055         	movff	?_ADCRead_Pos+1,_neutral_pos+1
   448  00094A                     
   449                           ;main.c: 97:     PORTDbits.RD0=0xFF;
   450  00094A  8083               	bsf	131,0,c	;volatile
   451  00094C                     
   452                           ;main.c: 98:     _delay((unsigned long)((200)*(8000000/4000.0)));
   453  00094C  0E03               	movlw	3
   454  00094E  0100               	movlb	0	; () banked
   455  000950  6F67               	movwf	(??_main+1)& (0+255),b
   456  000952  0E08               	movlw	8
   457  000954  6F66               	movwf	??_main& (0+255),b
   458  000956  0E77               	movlw	119
   459  000958                     u1967:
   460  000958  2EE8               	decfsz	wreg,f,c
   461  00095A  D7FE               	bra	u1967
   462  00095C  2F66               	decfsz	??_main& (0+255),f,b
   463  00095E  D7FC               	bra	u1967
   464  000960  2F67               	decfsz	(??_main+1)& (0+255),f,b
   465  000962  D7FA               	bra	u1967
   466  000964                     
   467                           ;main.c: 99:     PORTDbits.RD0=0x00;
   468  000964  9083               	bcf	131,0,c	;volatile
   469  000966                     
   470                           ;main.c: 100:    _delay((unsigned long)((200)*(8000000/4000.0)));
   471  000966  0E03               	movlw	3
   472  000968  0100               	movlb	0	; () banked
   473  00096A  6F67               	movwf	(??_main+1)& (0+255),b
   474  00096C  0E08               	movlw	8
   475  00096E  6F66               	movwf	??_main& (0+255),b
   476  000970  0E77               	movlw	119
   477  000972                     u1977:
   478  000972  2EE8               	decfsz	wreg,f,c
   479  000974  D7FE               	bra	u1977
   480  000976  2F66               	decfsz	??_main& (0+255),f,b
   481  000978  D7FC               	bra	u1977
   482  00097A  2F67               	decfsz	(??_main+1)& (0+255),f,b
   483  00097C  D7FA               	bra	u1977
   484  00097E                     
   485                           ;main.c: 101:     PORTDbits.RD0=0xFF;
   486  00097E  8083               	bsf	131,0,c	;volatile
   487  000980                     
   488                           ;main.c: 102:    _delay((unsigned long)((200)*(8000000/4000.0)));
   489  000980  0E03               	movlw	3
   490  000982  0100               	movlb	0	; () banked
   491  000984  6F67               	movwf	(??_main+1)& (0+255),b
   492  000986  0E08               	movlw	8
   493  000988  6F66               	movwf	??_main& (0+255),b
   494  00098A  0E77               	movlw	119
   495  00098C                     u1987:
   496  00098C  2EE8               	decfsz	wreg,f,c
   497  00098E  D7FE               	bra	u1987
   498  000990  2F66               	decfsz	??_main& (0+255),f,b
   499  000992  D7FC               	bra	u1987
   500  000994  2F67               	decfsz	(??_main+1)& (0+255),f,b
   501  000996  D7FA               	bra	u1987
   502  000998                     
   503                           ;main.c: 103:     PORTDbits.RD0=0x00;
   504  000998  9083               	bcf	131,0,c	;volatile
   505  00099A                     l2046:
   506                           
   507                           ;main.c: 111:    {;main.c: 113:     min_pos = neutral_pos - (neutral_pos*0.30);
   508  00099A  0E9A               	movlw	154
   509  00099C  6E1B               	movwf	___flmul@a^0,c
   510  00099E  0E99               	movlw	153
   511  0009A0  6E1C               	movwf	(___flmul@a+1)^0,c
   512  0009A2  0E99               	movlw	153
   513  0009A4  6E1D               	movwf	(___flmul@a+2)^0,c
   514  0009A6  0E3E               	movlw	62
   515  0009A8  6E1E               	movwf	(___flmul@a+3)^0,c
   516  0009AA  C054  F009         	movff	_neutral_pos,___xxtofl@val
   517  0009AE  C055  F00A         	movff	_neutral_pos+1,___xxtofl@val+1
   518  0009B2  6A0B               	clrf	(___xxtofl@val+2)^0,c
   519  0009B4  6A0C               	clrf	(___xxtofl@val+3)^0,c
   520  0009B6  0E00               	movlw	0
   521  0009B8  EC92  F005         	call	___xxtofl
   522  0009BC  C009  F017         	movff	?___xxtofl,___flmul@b
   523  0009C0  C00A  F018         	movff	?___xxtofl+1,___flmul@b+1
   524  0009C4  C00B  F019         	movff	?___xxtofl+2,___flmul@b+2
   525  0009C8  C00C  F01A         	movff	?___xxtofl+3,___flmul@b+3
   526  0009CC  EC75  F002         	call	___flmul	;wreg free
   527  0009D0  C017  F044         	movff	?___flmul,___flsub@a
   528  0009D4  C018  F045         	movff	?___flmul+1,___flsub@a+1
   529  0009D8  C019  F046         	movff	?___flmul+2,___flsub@a+2
   530  0009DC  C01A  F047         	movff	?___flmul+3,___flsub@a+3
   531  0009E0  C054  F009         	movff	_neutral_pos,___xxtofl@val
   532  0009E4  C055  F00A         	movff	_neutral_pos+1,___xxtofl@val+1
   533  0009E8  6A0B               	clrf	(___xxtofl@val+2)^0,c
   534  0009EA  6A0C               	clrf	(___xxtofl@val+3)^0,c
   535  0009EC  0E00               	movlw	0
   536  0009EE  EC92  F005         	call	___xxtofl
   537  0009F2  C009  F040         	movff	?___xxtofl,___flsub@b
   538  0009F6  C00A  F041         	movff	?___xxtofl+1,___flsub@b+1
   539  0009FA  C00B  F042         	movff	?___xxtofl+2,___flsub@b+2
   540  0009FE  C00C  F043         	movff	?___xxtofl+3,___flsub@b+3
   541  000A02  EC40  F008         	call	___flsub	;wreg free
   542  000A06  C040  F048         	movff	?___flsub,___fltol@f1
   543  000A0A  C041  F049         	movff	?___flsub+1,___fltol@f1+1
   544  000A0E  C042  F04A         	movff	?___flsub+2,___fltol@f1+2
   545  000A12  C043  F04B         	movff	?___flsub+3,___fltol@f1+3
   546  000A16  EC87  F007         	call	___fltol	;wreg free
   547  000A1A  C048  F04E         	movff	?___fltol,_min_pos
   548  000A1E  C049  F04F         	movff	?___fltol+1,_min_pos+1
   549  000A22                     
   550                           ;main.c: 114:     max_pos = neutral_pos + (neutral_pos*0.30);
   551  000A22  0E9A               	movlw	154
   552  000A24  6E1B               	movwf	___flmul@a^0,c
   553  000A26  0E99               	movlw	153
   554  000A28  6E1C               	movwf	(___flmul@a+1)^0,c
   555  000A2A  0E99               	movlw	153
   556  000A2C  6E1D               	movwf	(___flmul@a+2)^0,c
   557  000A2E  0E3E               	movlw	62
   558  000A30  6E1E               	movwf	(___flmul@a+3)^0,c
   559  000A32  C054  F009         	movff	_neutral_pos,___xxtofl@val
   560  000A36  C055  F00A         	movff	_neutral_pos+1,___xxtofl@val+1
   561  000A3A  6A0B               	clrf	(___xxtofl@val+2)^0,c
   562  000A3C  6A0C               	clrf	(___xxtofl@val+3)^0,c
   563  000A3E  0E00               	movlw	0
   564  000A40  EC92  F005         	call	___xxtofl
   565  000A44  C009  F017         	movff	?___xxtofl,___flmul@b
   566  000A48  C00A  F018         	movff	?___xxtofl+1,___flmul@b+1
   567  000A4C  C00B  F019         	movff	?___xxtofl+2,___flmul@b+2
   568  000A50  C00C  F01A         	movff	?___xxtofl+3,___flmul@b+3
   569  000A54  EC75  F002         	call	___flmul	;wreg free
   570  000A58  C017  F034         	movff	?___flmul,___fladd@a
   571  000A5C  C018  F035         	movff	?___flmul+1,___fladd@a+1
   572  000A60  C019  F036         	movff	?___flmul+2,___fladd@a+2
   573  000A64  C01A  F037         	movff	?___flmul+3,___fladd@a+3
   574  000A68  C054  F009         	movff	_neutral_pos,___xxtofl@val
   575  000A6C  C055  F00A         	movff	_neutral_pos+1,___xxtofl@val+1
   576  000A70  6A0B               	clrf	(___xxtofl@val+2)^0,c
   577  000A72  6A0C               	clrf	(___xxtofl@val+3)^0,c
   578  000A74  0E00               	movlw	0
   579  000A76  EC92  F005         	call	___xxtofl
   580  000A7A  C009  F030         	movff	?___xxtofl,___fladd@b
   581  000A7E  C00A  F031         	movff	?___xxtofl+1,___fladd@b+1
   582  000A82  C00B  F032         	movff	?___xxtofl+2,___fladd@b+2
   583  000A86  C00C  F033         	movff	?___xxtofl+3,___fladd@b+3
   584  000A8A  EC15  F000         	call	___fladd	;wreg free
   585  000A8E  C030  F048         	movff	?___fladd,___fltol@f1
   586  000A92  C031  F049         	movff	?___fladd+1,___fltol@f1+1
   587  000A96  C032  F04A         	movff	?___fladd+2,___fltol@f1+2
   588  000A9A  C033  F04B         	movff	?___fladd+3,___fltol@f1+3
   589  000A9E  EC87  F007         	call	___fltol	;wreg free
   590  000AA2  C048  F050         	movff	?___fltol,_max_pos
   591  000AA6  C049  F051         	movff	?___fltol+1,_max_pos+1
   592  000AAA                     
   593                           ;main.c: 116:     real_pos = ADCRead_Pos();
   594  000AAA  EC96  F008         	call	_ADCRead_Pos	;wreg free
   595  000AAE  C009  F052         	movff	?_ADCRead_Pos,_real_pos
   596  000AB2  C00A  F053         	movff	?_ADCRead_Pos+1,_real_pos+1
   597  000AB6                     
   598                           ;main.c: 118:      if ((real_pos>=min_pos)&&(real_pos<=max_pos)){
   599  000AB6  504E               	movf	_min_pos^0,w,c
   600  000AB8  5C52               	subwf	_real_pos^0,w,c
   601  000ABA  504F               	movf	(_min_pos+1)^0,w,c
   602  000ABC  5853               	subwfb	(_real_pos+1)^0,w,c
   603  000ABE  A0D8               	btfss	status,0,c
   604  000AC0  EF64  F005         	goto	u1941
   605  000AC4  EF66  F005         	goto	u1940
   606  000AC8                     u1941:
   607  000AC8  EF7A  F005         	goto	l72
   608  000ACC                     u1940:
   609  000ACC  5052               	movf	_real_pos^0,w,c
   610  000ACE  5C50               	subwf	_max_pos^0,w,c
   611  000AD0  5053               	movf	(_real_pos+1)^0,w,c
   612  000AD2  5851               	subwfb	(_max_pos+1)^0,w,c
   613  000AD4  A0D8               	btfss	status,0,c
   614  000AD6  EF6F  F005         	goto	u1951
   615  000ADA  EF71  F005         	goto	u1950
   616  000ADE                     u1951:
   617  000ADE  EF7A  F005         	goto	l72
   618  000AE2                     u1950:
   619  000AE2                     
   620                           ;main.c: 120:       PORTDbits.RD0=0;
   621  000AE2  9083               	bcf	131,0,c	;volatile
   622  000AE4                     
   623                           ;main.c: 122:       Vibration_ON(0);
   624  000AE4  0E00               	movlw	0
   625  000AE6  6E23               	movwf	(Vibration_ON@percentage+1)^0,c
   626  000AE8  0E00               	movlw	0
   627  000AEA  6E22               	movwf	Vibration_ON@percentage^0,c
   628  000AEC  ECD9  F008         	call	_Vibration_ON	;wreg free
   629                           
   630                           ;main.c: 124:      }
   631  000AF0  EFCD  F004         	goto	l2046
   632  000AF4                     l72:
   633                           
   634                           ;main.c: 128:          unsigned int percentage ;;main.c: 131:          PORTDbits.RD0=1;
   635  000AF4  8083               	bsf	131,0,c	;volatile
   636  000AF6                     
   637                           ;main.c: 132:         _delay((unsigned long)((100)*(8000000/4000.0)));
   638  000AF6  0E02               	movlw	2
   639  000AF8  0100               	movlb	0	; () banked
   640  000AFA  6F67               	movwf	(??_main+1)& (0+255),b
   641  000AFC  0E04               	movlw	4
   642  000AFE  6F66               	movwf	??_main& (0+255),b
   643  000B00  0EBA               	movlw	186
   644  000B02                     u1997:
   645  000B02  2EE8               	decfsz	wreg,f,c
   646  000B04  D7FE               	bra	u1997
   647  000B06  2F66               	decfsz	??_main& (0+255),f,b
   648  000B08  D7FC               	bra	u1997
   649  000B0A  2F67               	decfsz	(??_main+1)& (0+255),f,b
   650  000B0C  D7FA               	bra	u1997
   651  000B0E  F000               	nop	
   652  000B10                     
   653                           ;main.c: 134:         Vibration_ON(40);
   654  000B10  0E00               	movlw	0
   655  000B12  6E23               	movwf	(Vibration_ON@percentage+1)^0,c
   656  000B14  0E28               	movlw	40
   657  000B16  6E22               	movwf	Vibration_ON@percentage^0,c
   658  000B18  ECD9  F008         	call	_Vibration_ON	;wreg free
   659  000B1C  EFCD  F004         	goto	l2046
   660  000B20  EF13  F000         	goto	start
   661  000B24                     __end_of_main:
   662                           	callstack 0
   663                           
   664 ;; *************** function ___xxtofl *****************
   665 ;; Defined at:
   666 ;;		line 10 in file "C:\Program Files\Microchip\xc8\v2.30\pic\sources\c99\common\xxtofl.c"
   667 ;; Parameters:    Size  Location     Type
   668 ;;  sign            1    wreg     unsigned char 
   669 ;;  val             4    8[COMRAM] long 
   670 ;; Auto vars:     Size  Location     Type
   671 ;;  sign            1   16[COMRAM] unsigned char 
   672 ;;  arg             4   18[COMRAM] unsigned long 
   673 ;;  exp             1   17[COMRAM] unsigned char 
   674 ;; Return value:  Size  Location     Type
   675 ;;                  4    8[COMRAM] unsigned char 
   676 ;; Registers used:
   677 ;;		wreg, status,2, status,0
   678 ;; Tracked objects:
   679 ;;		On entry : 0/0
   680 ;;		On exit  : 0/0
   681 ;;		Unchanged: 0/0
   682 ;; Data sizes:     COMRAM   BANK0   BANK1   BANK2   BANK3   BANK4   BANK5
   683 ;;      Params:         4       0       0       0       0       0       0
   684 ;;      Locals:         6       0       0       0       0       0       0
   685 ;;      Temps:          4       0       0       0       0       0       0
   686 ;;      Totals:        14       0       0       0       0       0       0
   687 ;;Total ram usage:       14 bytes
   688 ;; Hardware stack levels used:    1
   689 ;; Hardware stack levels required when called:    3
   690 ;; This function calls:
   691 ;;		Nothing
   692 ;; This function is called by:
   693 ;;		_main
   694 ;; This function uses a non-reentrant model
   695 ;;
   696                           
   697                           	psect	text1
   698  000B24                     __ptext1:
   699                           	callstack 0
   700  000B24                     ___xxtofl:
   701                           	callstack 27
   702                           
   703                           ;incstack = 0
   704                           ;___xxtofl@sign stored from wreg
   705  000B24  6E11               	movwf	___xxtofl@sign^0,c
   706  000B26  5011               	movf	___xxtofl@sign^0,w,c
   707  000B28  B4D8               	btfsc	status,2,c
   708  000B2A  EF99  F005         	goto	u1741
   709  000B2E  EF9B  F005         	goto	u1740
   710  000B32                     u1741:
   711  000B32  EFBD  F005         	goto	l784
   712  000B36                     u1740:
   713  000B36  BE0C               	btfsc	(___xxtofl@val+3)^0,7,c
   714  000B38  EFA2  F005         	goto	u1750
   715  000B3C  EFA0  F005         	goto	u1751
   716  000B40                     u1751:
   717  000B40  EFBD  F005         	goto	l784
   718  000B44                     u1750:
   719  000B44  C009  F00D         	movff	___xxtofl@val,??___xxtofl
   720  000B48  C00A  F00E         	movff	___xxtofl@val+1,??___xxtofl+1
   721  000B4C  C00B  F00F         	movff	___xxtofl@val+2,??___xxtofl+2
   722  000B50  C00C  F010         	movff	___xxtofl@val+3,??___xxtofl+3
   723  000B54  1E0D               	comf	??___xxtofl^0,f,c
   724  000B56  1E0E               	comf	(??___xxtofl+1)^0,f,c
   725  000B58  1E0F               	comf	(??___xxtofl+2)^0,f,c
   726  000B5A  1E10               	comf	(??___xxtofl+3)^0,f,c
   727  000B5C  2A0D               	incf	??___xxtofl^0,f,c
   728  000B5E  0E00               	movlw	0
   729  000B60  220E               	addwfc	(??___xxtofl+1)^0,f,c
   730  000B62  220F               	addwfc	(??___xxtofl+2)^0,f,c
   731  000B64  2210               	addwfc	(??___xxtofl+3)^0,f,c
   732  000B66  C00D  F013         	movff	??___xxtofl,___xxtofl@arg
   733  000B6A  C00E  F014         	movff	??___xxtofl+1,___xxtofl@arg+1
   734  000B6E  C00F  F015         	movff	??___xxtofl+2,___xxtofl@arg+2
   735  000B72  C010  F016         	movff	??___xxtofl+3,___xxtofl@arg+3
   736  000B76  EFC5  F005         	goto	l1864
   737  000B7A                     l784:
   738  000B7A  C009  F013         	movff	___xxtofl@val,___xxtofl@arg
   739  000B7E  C00A  F014         	movff	___xxtofl@val+1,___xxtofl@arg+1
   740  000B82  C00B  F015         	movff	___xxtofl@val+2,___xxtofl@arg+2
   741  000B86  C00C  F016         	movff	___xxtofl@val+3,___xxtofl@arg+3
   742  000B8A                     l1864:
   743  000B8A  5009               	movf	___xxtofl@val^0,w,c
   744  000B8C  100A               	iorwf	(___xxtofl@val+1)^0,w,c
   745  000B8E  100B               	iorwf	(___xxtofl@val+2)^0,w,c
   746  000B90  100C               	iorwf	(___xxtofl@val+3)^0,w,c
   747  000B92  A4D8               	btfss	status,2,c
   748  000B94  EFCE  F005         	goto	u1761
   749  000B98  EFD0  F005         	goto	u1760
   750  000B9C                     u1761:
   751  000B9C  EFDA  F005         	goto	l1870
   752  000BA0                     u1760:
   753  000BA0  0E00               	movlw	0
   754  000BA2  6E09               	movwf	?___xxtofl^0,c
   755  000BA4  0E00               	movlw	0
   756  000BA6  6E0A               	movwf	(?___xxtofl+1)^0,c
   757  000BA8  0E00               	movlw	0
   758  000BAA  6E0B               	movwf	(?___xxtofl+2)^0,c
   759  000BAC  0E00               	movlw	0
   760  000BAE  6E0C               	movwf	(?___xxtofl+3)^0,c
   761  000BB0  EF6B  F006         	goto	l787
   762  000BB4                     l1870:
   763  000BB4  0E96               	movlw	150
   764  000BB6  6E12               	movwf	___xxtofl@exp^0,c
   765  000BB8  EFE4  F005         	goto	l1874
   766  000BBC                     l1872:
   767  000BBC  2A12               	incf	___xxtofl@exp^0,f,c
   768  000BBE  90D8               	bcf	status,0,c
   769  000BC0  3216               	rrcf	(___xxtofl@arg+3)^0,f,c
   770  000BC2  3215               	rrcf	(___xxtofl@arg+2)^0,f,c
   771  000BC4  3214               	rrcf	(___xxtofl@arg+1)^0,f,c
   772  000BC6  3213               	rrcf	___xxtofl@arg^0,f,c
   773  000BC8                     l1874:
   774  000BC8  0E00               	movlw	0
   775  000BCA  1413               	andwf	___xxtofl@arg^0,w,c
   776  000BCC  6E0D               	movwf	??___xxtofl^0,c
   777  000BCE  0E00               	movlw	0
   778  000BD0  1414               	andwf	(___xxtofl@arg+1)^0,w,c
   779  000BD2  6E0E               	movwf	(??___xxtofl+1)^0,c
   780  000BD4  0E00               	movlw	0
   781  000BD6  1415               	andwf	(___xxtofl@arg+2)^0,w,c
   782  000BD8  6E0F               	movwf	(??___xxtofl+2)^0,c
   783  000BDA  0EFE               	movlw	254
   784  000BDC  1416               	andwf	(___xxtofl@arg+3)^0,w,c
   785  000BDE  6E10               	movwf	(??___xxtofl+3)^0,c
   786  000BE0  500D               	movf	??___xxtofl^0,w,c
   787  000BE2  100E               	iorwf	(??___xxtofl+1)^0,w,c
   788  000BE4  100F               	iorwf	(??___xxtofl+2)^0,w,c
   789  000BE6  1010               	iorwf	(??___xxtofl+3)^0,w,c
   790  000BE8  A4D8               	btfss	status,2,c
   791  000BEA  EFF9  F005         	goto	u1771
   792  000BEE  EFFB  F005         	goto	u1770
   793  000BF2                     u1771:
   794  000BF2  EFDE  F005         	goto	l1872
   795  000BF6                     u1770:
   796  000BF6  EF09  F006         	goto	l791
   797  000BFA                     l1876:
   798  000BFA  2A12               	incf	___xxtofl@exp^0,f,c
   799  000BFC  0E01               	movlw	1
   800  000BFE  2613               	addwf	___xxtofl@arg^0,f,c
   801  000C00  0E00               	movlw	0
   802  000C02  2214               	addwfc	(___xxtofl@arg+1)^0,f,c
   803  000C04  2215               	addwfc	(___xxtofl@arg+2)^0,f,c
   804  000C06  2216               	addwfc	(___xxtofl@arg+3)^0,f,c
   805  000C08  90D8               	bcf	status,0,c
   806  000C0A  3216               	rrcf	(___xxtofl@arg+3)^0,f,c
   807  000C0C  3215               	rrcf	(___xxtofl@arg+2)^0,f,c
   808  000C0E  3214               	rrcf	(___xxtofl@arg+1)^0,f,c
   809  000C10  3213               	rrcf	___xxtofl@arg^0,f,c
   810  000C12                     l791:
   811  000C12  0E00               	movlw	0
   812  000C14  1413               	andwf	___xxtofl@arg^0,w,c
   813  000C16  6E0D               	movwf	??___xxtofl^0,c
   814  000C18  0E00               	movlw	0
   815  000C1A  1414               	andwf	(___xxtofl@arg+1)^0,w,c
   816  000C1C  6E0E               	movwf	(??___xxtofl+1)^0,c
   817  000C1E  0E00               	movlw	0
   818  000C20  1415               	andwf	(___xxtofl@arg+2)^0,w,c
   819  000C22  6E0F               	movwf	(??___xxtofl+2)^0,c
   820  000C24  0EFF               	movlw	255
   821  000C26  1416               	andwf	(___xxtofl@arg+3)^0,w,c
   822  000C28  6E10               	movwf	(??___xxtofl+3)^0,c
   823  000C2A  500D               	movf	??___xxtofl^0,w,c
   824  000C2C  100E               	iorwf	(??___xxtofl+1)^0,w,c
   825  000C2E  100F               	iorwf	(??___xxtofl+2)^0,w,c
   826  000C30  1010               	iorwf	(??___xxtofl+3)^0,w,c
   827  000C32  A4D8               	btfss	status,2,c
   828  000C34  EF1E  F006         	goto	u1781
   829  000C38  EF20  F006         	goto	u1780
   830  000C3C                     u1781:
   831  000C3C  EFFD  F005         	goto	l1876
   832  000C40                     u1780:
   833  000C40  EF28  F006         	goto	l1884
   834  000C44                     l1882:
   835  000C44  0612               	decf	___xxtofl@exp^0,f,c
   836  000C46  90D8               	bcf	status,0,c
   837  000C48  3613               	rlcf	___xxtofl@arg^0,f,c
   838  000C4A  3614               	rlcf	(___xxtofl@arg+1)^0,f,c
   839  000C4C  3615               	rlcf	(___xxtofl@arg+2)^0,f,c
   840  000C4E  3616               	rlcf	(___xxtofl@arg+3)^0,f,c
   841  000C50                     l1884:
   842  000C50  BE15               	btfsc	(___xxtofl@arg+2)^0,7,c
   843  000C52  EF2D  F006         	goto	u1791
   844  000C56  EF2F  F006         	goto	u1790
   845  000C5A                     u1791:
   846  000C5A  EF37  F006         	goto	l798
   847  000C5E                     u1790:
   848  000C5E  0E02               	movlw	2
   849  000C60  6012               	cpfslt	___xxtofl@exp^0,c
   850  000C62  EF35  F006         	goto	u1801
   851  000C66  EF37  F006         	goto	u1800
   852  000C6A                     u1801:
   853  000C6A  EF22  F006         	goto	l1882
   854  000C6E                     u1800:
   855  000C6E                     l798:
   856  000C6E  B012               	btfsc	___xxtofl@exp^0,0,c
   857  000C70  EF3C  F006         	goto	u1811
   858  000C74  EF3E  F006         	goto	u1810
   859  000C78                     u1811:
   860  000C78  EF3F  F006         	goto	l1890
   861  000C7C                     u1810:
   862  000C7C  9E15               	bcf	(___xxtofl@arg+2)^0,7,c
   863  000C7E                     l1890:
   864  000C7E  90D8               	bcf	status,0,c
   865  000C80  3212               	rrcf	___xxtofl@exp^0,f,c
   866  000C82  C012  F00D         	movff	___xxtofl@exp,??___xxtofl
   867  000C86  6A0E               	clrf	(??___xxtofl+1)^0,c
   868  000C88  6A0F               	clrf	(??___xxtofl+2)^0,c
   869  000C8A  6A10               	clrf	(??___xxtofl+3)^0,c
   870  000C8C  C00D  F010         	movff	??___xxtofl,??___xxtofl+3
   871  000C90  6A0F               	clrf	(??___xxtofl+2)^0,c
   872  000C92  6A0E               	clrf	(??___xxtofl+1)^0,c
   873  000C94  6A0D               	clrf	??___xxtofl^0,c
   874  000C96  500D               	movf	??___xxtofl^0,w,c
   875  000C98  1213               	iorwf	___xxtofl@arg^0,f,c
   876  000C9A  500E               	movf	(??___xxtofl+1)^0,w,c
   877  000C9C  1214               	iorwf	(___xxtofl@arg+1)^0,f,c
   878  000C9E  500F               	movf	(??___xxtofl+2)^0,w,c
   879  000CA0  1215               	iorwf	(___xxtofl@arg+2)^0,f,c
   880  000CA2  5010               	movf	(??___xxtofl+3)^0,w,c
   881  000CA4  1216               	iorwf	(___xxtofl@arg+3)^0,f,c
   882  000CA6  5011               	movf	___xxtofl@sign^0,w,c
   883  000CA8  B4D8               	btfsc	status,2,c
   884  000CAA  EF59  F006         	goto	u1821
   885  000CAE  EF5B  F006         	goto	u1820
   886  000CB2                     u1821:
   887  000CB2  EF63  F006         	goto	l1900
   888  000CB6                     u1820:
   889  000CB6  BE0C               	btfsc	(___xxtofl@val+3)^0,7,c
   890  000CB8  EF62  F006         	goto	u1830
   891  000CBC  EF60  F006         	goto	u1831
   892  000CC0                     u1831:
   893  000CC0  EF63  F006         	goto	l1900
   894  000CC4                     u1830:
   895  000CC4  8E16               	bsf	(___xxtofl@arg+3)^0,7,c
   896  000CC6                     l1900:
   897  000CC6  C013  F009         	movff	___xxtofl@arg,?___xxtofl
   898  000CCA  C014  F00A         	movff	___xxtofl@arg+1,?___xxtofl+1
   899  000CCE  C015  F00B         	movff	___xxtofl@arg+2,?___xxtofl+2
   900  000CD2  C016  F00C         	movff	___xxtofl@arg+3,?___xxtofl+3
   901  000CD6                     l787:
   902  000CD6  0012               	return		;funcret
   903  000CD8                     __end_of___xxtofl:
   904                           	callstack 0
   905                           
   906 ;; *************** function ___fltol *****************
   907 ;; Defined at:
   908 ;;		line 43 in file "C:\Program Files\Microchip\xc8\v2.30\pic\sources\c99\common\fltol.c"
   909 ;; Parameters:    Size  Location     Type
   910 ;;  f1              4   71[COMRAM] unsigned char 
   911 ;; Auto vars:     Size  Location     Type
   912 ;;  exp1            1    5[BANK0 ] unsigned char 
   913 ;;  sign1           1    4[BANK0 ] unsigned char 
   914 ;; Return value:  Size  Location     Type
   915 ;;                  4   71[COMRAM] long 
   916 ;; Registers used:
   917 ;;		wreg, status,2, status,0
   918 ;; Tracked objects:
   919 ;;		On entry : 0/0
   920 ;;		On exit  : 0/0
   921 ;;		Unchanged: 0/0
   922 ;; Data sizes:     COMRAM   BANK0   BANK1   BANK2   BANK3   BANK4   BANK5
   923 ;;      Params:         4       0       0       0       0       0       0
   924 ;;      Locals:         0       2       0       0       0       0       0
   925 ;;      Temps:          0       4       0       0       0       0       0
   926 ;;      Totals:         4       6       0       0       0       0       0
   927 ;;Total ram usage:       10 bytes
   928 ;; Hardware stack levels used:    1
   929 ;; Hardware stack levels required when called:    3
   930 ;; This function calls:
   931 ;;		Nothing
   932 ;; This function is called by:
   933 ;;		_main
   934 ;; This function uses a non-reentrant model
   935 ;;
   936                           
   937                           	psect	text2
   938  000F0E                     __ptext2:
   939                           	callstack 0
   940  000F0E                     ___fltol:
   941                           	callstack 27
   942  000F0E  344A               	rlcf	(___fltol@f1+2)^0,w,c
   943  000F10  344B               	rlcf	(___fltol@f1+3)^0,w,c
   944  000F12  0100               	movlb	0	; () banked
   945  000F14  6F65               	movwf	___fltol@exp1& (0+255),b
   946  000F16  5165               	movf	___fltol@exp1& (0+255),w,b
   947  000F18  A4D8               	btfss	status,2,c
   948  000F1A  EF91  F007         	goto	u1871
   949  000F1E  EF93  F007         	goto	u1870
   950  000F22                     u1871:
   951  000F22  EF9D  F007         	goto	l1978
   952  000F26                     u1870:
   953  000F26                     l1974:
   954                           
   955                           ; BSR set to: 0
   956  000F26  0E00               	movlw	0
   957  000F28  6E48               	movwf	?___fltol^0,c
   958  000F2A  0E00               	movlw	0
   959  000F2C  6E49               	movwf	(?___fltol+1)^0,c
   960  000F2E  0E00               	movlw	0
   961  000F30  6E4A               	movwf	(?___fltol+2)^0,c
   962  000F32  0E00               	movlw	0
   963  000F34  6E4B               	movwf	(?___fltol+3)^0,c
   964  000F36  EF0A  F008         	goto	l426
   965  000F3A                     l1978:
   966                           
   967                           ; BSR set to: 0
   968  000F3A  C048  F060         	movff	___fltol@f1,??___fltol
   969  000F3E  C049  F061         	movff	___fltol@f1+1,??___fltol+1
   970  000F42  C04A  F062         	movff	___fltol@f1+2,??___fltol+2
   971  000F46  C04B  F063         	movff	___fltol@f1+3,??___fltol+3
   972  000F4A  0E20               	movlw	32
   973  000F4C  EFAD  F007         	goto	u1880
   974  000F50                     u1885:
   975  000F50  90D8               	bcf	status,0,c
   976  000F52  3363               	rrcf	(??___fltol+3)& (0+255),f,b
   977  000F54  3362               	rrcf	(??___fltol+2)& (0+255),f,b
   978  000F56  3361               	rrcf	(??___fltol+1)& (0+255),f,b
   979  000F58  3360               	rrcf	??___fltol& (0+255),f,b
   980  000F5A                     u1880:
   981  000F5A  2EE8               	decfsz	wreg,f,c
   982  000F5C  EFA8  F007         	goto	u1885
   983  000F60  5160               	movf	??___fltol& (0+255),w,b
   984  000F62  6F64               	movwf	___fltol@sign1& (0+255),b
   985  000F64                     
   986                           ; BSR set to: 0
   987  000F64  8E4A               	bsf	(___fltol@f1+2)^0,7,c
   988  000F66                     
   989                           ; BSR set to: 0
   990  000F66  0EFF               	movlw	255
   991  000F68  1648               	andwf	___fltol@f1^0,f,c
   992  000F6A  0EFF               	movlw	255
   993  000F6C  1649               	andwf	(___fltol@f1+1)^0,f,c
   994  000F6E  0EFF               	movlw	255
   995  000F70  164A               	andwf	(___fltol@f1+2)^0,f,c
   996  000F72  0E00               	movlw	0
   997  000F74  164B               	andwf	(___fltol@f1+3)^0,f,c
   998  000F76                     
   999                           ; BSR set to: 0
  1000  000F76  0E96               	movlw	150
  1001  000F78  5F65               	subwf	___fltol@exp1& (0+255),f,b
  1002  000F7A                     
  1003                           ; BSR set to: 0
  1004  000F7A  BF65               	btfsc	___fltol@exp1& (0+255),7,b
  1005  000F7C  EFC4  F007         	goto	u1890
  1006  000F80  EFC2  F007         	goto	u1891
  1007  000F84                     u1891:
  1008  000F84  EFDA  F007         	goto	l1998
  1009  000F88                     u1890:
  1010  000F88                     
  1011                           ; BSR set to: 0
  1012  000F88  5165               	movf	___fltol@exp1& (0+255),w,b
  1013  000F8A  0A80               	xorlw	128
  1014  000F8C  0F97               	addlw	151
  1015  000F8E  B0D8               	btfsc	status,0,c
  1016  000F90  EFCC  F007         	goto	u1901
  1017  000F94  EFCE  F007         	goto	u1900
  1018  000F98                     u1901:
  1019  000F98  EFD0  F007         	goto	l1994
  1020  000F9C                     u1900:
  1021  000F9C  EF93  F007         	goto	l1974
  1022  000FA0                     l1994:
  1023                           
  1024                           ; BSR set to: 0
  1025  000FA0  90D8               	bcf	status,0,c
  1026  000FA2  324B               	rrcf	(___fltol@f1+3)^0,f,c
  1027  000FA4  324A               	rrcf	(___fltol@f1+2)^0,f,c
  1028  000FA6  3249               	rrcf	(___fltol@f1+1)^0,f,c
  1029  000FA8  3248               	rrcf	___fltol@f1^0,f,c
  1030  000FAA                     
  1031                           ; BSR set to: 0
  1032  000FAA  3F65               	incfsz	___fltol@exp1& (0+255),f,b
  1033  000FAC  EFD0  F007         	goto	l1994
  1034  000FB0  EFF2  F007         	goto	l2008
  1035  000FB4                     l1998:
  1036                           
  1037                           ; BSR set to: 0
  1038  000FB4  0E1F               	movlw	31
  1039  000FB6  6565               	cpfsgt	___fltol@exp1& (0+255),b
  1040  000FB8  EFE0  F007         	goto	u1911
  1041  000FBC  EFE2  F007         	goto	u1910
  1042  000FC0                     u1911:
  1043  000FC0  EFEA  F007         	goto	l2006
  1044  000FC4                     u1910:
  1045  000FC4  EF93  F007         	goto	l1974
  1046  000FC8                     l2004:
  1047                           
  1048                           ; BSR set to: 0
  1049  000FC8  90D8               	bcf	status,0,c
  1050  000FCA  3648               	rlcf	___fltol@f1^0,f,c
  1051  000FCC  3649               	rlcf	(___fltol@f1+1)^0,f,c
  1052  000FCE  364A               	rlcf	(___fltol@f1+2)^0,f,c
  1053  000FD0  364B               	rlcf	(___fltol@f1+3)^0,f,c
  1054  000FD2  0765               	decf	___fltol@exp1& (0+255),f,b
  1055  000FD4                     l2006:
  1056                           
  1057                           ; BSR set to: 0
  1058  000FD4  5165               	movf	___fltol@exp1& (0+255),w,b
  1059  000FD6  A4D8               	btfss	status,2,c
  1060  000FD8  EFF0  F007         	goto	u1921
  1061  000FDC  EFF2  F007         	goto	u1920
  1062  000FE0                     u1921:
  1063  000FE0  EFE4  F007         	goto	l2004
  1064  000FE4                     u1920:
  1065  000FE4                     l2008:
  1066                           
  1067                           ; BSR set to: 0
  1068  000FE4  5164               	movf	___fltol@sign1& (0+255),w,b
  1069  000FE6  B4D8               	btfsc	status,2,c
  1070  000FE8  EFF8  F007         	goto	u1931
  1071  000FEC  EFFA  F007         	goto	u1930
  1072  000FF0                     u1931:
  1073  000FF0  EF02  F008         	goto	l2012
  1074  000FF4                     u1930:
  1075  000FF4                     
  1076                           ; BSR set to: 0
  1077  000FF4  1E4B               	comf	(___fltol@f1+3)^0,f,c
  1078  000FF6  1E4A               	comf	(___fltol@f1+2)^0,f,c
  1079  000FF8  1E49               	comf	(___fltol@f1+1)^0,f,c
  1080  000FFA  6C48               	negf	___fltol@f1^0,c
  1081  000FFC  0E00               	movlw	0
  1082  000FFE  2249               	addwfc	(___fltol@f1+1)^0,f,c
  1083  001000  224A               	addwfc	(___fltol@f1+2)^0,f,c
  1084  001002  224B               	addwfc	(___fltol@f1+3)^0,f,c
  1085  001004                     l2012:
  1086                           
  1087                           ; BSR set to: 0
  1088  001004  C048  F048         	movff	___fltol@f1,?___fltol
  1089  001008  C049  F049         	movff	___fltol@f1+1,?___fltol+1
  1090  00100C  C04A  F04A         	movff	___fltol@f1+2,?___fltol+2
  1091  001010  C04B  F04B         	movff	___fltol@f1+3,?___fltol+3
  1092  001014                     l426:
  1093                           
  1094                           ; BSR set to: 0
  1095  001014  0012               	return		;funcret
  1096  001016                     __end_of___fltol:
  1097                           	callstack 0
  1098                           
  1099 ;; *************** function ___flsub *****************
  1100 ;; Defined at:
  1101 ;;		line 245 in file "C:\Program Files\Microchip\xc8\v2.30\pic\sources\c99\common\sprcadd.c"
  1102 ;; Parameters:    Size  Location     Type
  1103 ;;  b               4   63[COMRAM] long 
  1104 ;;  a               4   67[COMRAM] long 
  1105 ;; Auto vars:     Size  Location     Type
  1106 ;;		None
  1107 ;; Return value:  Size  Location     Type
  1108 ;;                  4   63[COMRAM] long 
  1109 ;; Registers used:
  1110 ;;		wreg, status,2, status,0, cstack
  1111 ;; Tracked objects:
  1112 ;;		On entry : 0/0
  1113 ;;		On exit  : 0/0
  1114 ;;		Unchanged: 0/0
  1115 ;; Data sizes:     COMRAM   BANK0   BANK1   BANK2   BANK3   BANK4   BANK5
  1116 ;;      Params:         8       0       0       0       0       0       0
  1117 ;;      Locals:         0       0       0       0       0       0       0
  1118 ;;      Temps:          0       0       0       0       0       0       0
  1119 ;;      Totals:         8       0       0       0       0       0       0
  1120 ;;Total ram usage:        8 bytes
  1121 ;; Hardware stack levels used:    1
  1122 ;; Hardware stack levels required when called:    4
  1123 ;; This function calls:
  1124 ;;		___fladd
  1125 ;; This function is called by:
  1126 ;;		_main
  1127 ;; This function uses a non-reentrant model
  1128 ;;
  1129                           
  1130                           	psect	text3
  1131  001080                     __ptext3:
  1132                           	callstack 0
  1133  001080                     ___flsub:
  1134                           	callstack 26
  1135  001080  0E00               	movlw	0
  1136  001082  1A44               	xorwf	___flsub@a^0,f,c
  1137  001084  0E00               	movlw	0
  1138  001086  1A45               	xorwf	(___flsub@a+1)^0,f,c
  1139  001088  0E00               	movlw	0
  1140  00108A  1A46               	xorwf	(___flsub@a+2)^0,f,c
  1141  00108C  0E80               	movlw	128
  1142  00108E  1A47               	xorwf	(___flsub@a+3)^0,f,c
  1143  001090  C040  F030         	movff	___flsub@b,___fladd@b
  1144  001094  C041  F031         	movff	___flsub@b+1,___fladd@b+1
  1145  001098  C042  F032         	movff	___flsub@b+2,___fladd@b+2
  1146  00109C  C043  F033         	movff	___flsub@b+3,___fladd@b+3
  1147  0010A0  C044  F034         	movff	___flsub@a,___fladd@a
  1148  0010A4  C045  F035         	movff	___flsub@a+1,___fladd@a+1
  1149  0010A8  C046  F036         	movff	___flsub@a+2,___fladd@a+2
  1150  0010AC  C047  F037         	movff	___flsub@a+3,___fladd@a+3
  1151  0010B0  EC15  F000         	call	___fladd	;wreg free
  1152  0010B4  C030  F040         	movff	?___fladd,?___flsub
  1153  0010B8  C031  F041         	movff	?___fladd+1,?___flsub+1
  1154  0010BC  C032  F042         	movff	?___fladd+2,?___flsub+2
  1155  0010C0  C033  F043         	movff	?___fladd+3,?___flsub+3
  1156  0010C4  0012               	return		;funcret
  1157  0010C6                     __end_of___flsub:
  1158                           	callstack 0
  1159                           
  1160 ;; *************** function ___fladd *****************
  1161 ;; Defined at:
  1162 ;;		line 10 in file "C:\Program Files\Microchip\xc8\v2.30\pic\sources\c99\common\sprcadd.c"
  1163 ;; Parameters:    Size  Location     Type
  1164 ;;  b               4   47[COMRAM] long 
  1165 ;;  a               4   51[COMRAM] long 
  1166 ;; Auto vars:     Size  Location     Type
  1167 ;;  grs             1   62[COMRAM] unsigned char 
  1168 ;;  bexp            1   61[COMRAM] unsigned char 
  1169 ;;  aexp            1   60[COMRAM] unsigned char 
  1170 ;;  signs           1   59[COMRAM] unsigned char 
  1171 ;; Return value:  Size  Location     Type
  1172 ;;                  4   47[COMRAM] unsigned char 
  1173 ;; Registers used:
  1174 ;;		wreg, status,2, status,0
  1175 ;; Tracked objects:
  1176 ;;		On entry : 0/0
  1177 ;;		On exit  : 0/0
  1178 ;;		Unchanged: 0/0
  1179 ;; Data sizes:     COMRAM   BANK0   BANK1   BANK2   BANK3   BANK4   BANK5
  1180 ;;      Params:         8       0       0       0       0       0       0
  1181 ;;      Locals:         4       0       0       0       0       0       0
  1182 ;;      Temps:          4       0       0       0       0       0       0
  1183 ;;      Totals:        16       0       0       0       0       0       0
  1184 ;;Total ram usage:       16 bytes
  1185 ;; Hardware stack levels used:    1
  1186 ;; Hardware stack levels required when called:    3
  1187 ;; This function calls:
  1188 ;;		Nothing
  1189 ;; This function is called by:
  1190 ;;		_main
  1191 ;;		___flsub
  1192 ;; This function uses a non-reentrant model
  1193 ;;
  1194                           
  1195                           	psect	text4
  1196  00002A                     __ptext4:
  1197                           	callstack 0
  1198  00002A                     ___fladd:
  1199                           	callstack 26
  1200  00002A  5033               	movf	(___fladd@b+3)^0,w,c
  1201  00002C  0B80               	andlw	128
  1202  00002E  6E3C               	movwf	___fladd@signs^0,c
  1203  000030  5033               	movf	(___fladd@b+3)^0,w,c
  1204  000032  2433               	addwf	(___fladd@b+3)^0,w,c
  1205  000034  6E3E               	movwf	___fladd@bexp^0,c
  1206  000036  AE32               	btfss	(___fladd@b+2)^0,7,c
  1207  000038  EF20  F000         	goto	u1091
  1208  00003C  EF22  F000         	goto	u1090
  1209  000040                     u1091:
  1210  000040  EF23  F000         	goto	l1472
  1211  000044                     u1090:
  1212  000044  803E               	bsf	___fladd@bexp^0,0,c
  1213  000046                     l1472:
  1214  000046  503E               	movf	___fladd@bexp^0,w,c
  1215  000048  B4D8               	btfsc	status,2,c
  1216  00004A  EF29  F000         	goto	u1101
  1217  00004E  EF2B  F000         	goto	u1100
  1218  000052                     u1101:
  1219  000052  EF40  F000         	goto	l1482
  1220  000056                     u1100:
  1221  000056  283E               	incf	___fladd@bexp^0,w,c
  1222  000058  A4D8               	btfss	status,2,c
  1223  00005A  EF31  F000         	goto	u1111
  1224  00005E  EF33  F000         	goto	u1110
  1225  000062                     u1111:
  1226  000062  EF3B  F000         	goto	l1478
  1227  000066                     u1110:
  1228  000066  0E00               	movlw	0
  1229  000068  6E30               	movwf	___fladd@b^0,c
  1230  00006A  0E00               	movlw	0
  1231  00006C  6E31               	movwf	(___fladd@b+1)^0,c
  1232  00006E  0E00               	movlw	0
  1233  000070  6E32               	movwf	(___fladd@b+2)^0,c
  1234  000072  0E00               	movlw	0
  1235  000074  6E33               	movwf	(___fladd@b+3)^0,c
  1236  000076                     l1478:
  1237  000076  8E32               	bsf	(___fladd@b+2)^0,7,c
  1238  000078  0E00               	movlw	0
  1239  00007A  6E33               	movwf	(___fladd@b+3)^0,c
  1240  00007C  EF48  F000         	goto	l1484
  1241  000080                     l1482:
  1242  000080  0E00               	movlw	0
  1243  000082  6E30               	movwf	___fladd@b^0,c
  1244  000084  0E00               	movlw	0
  1245  000086  6E31               	movwf	(___fladd@b+1)^0,c
  1246  000088  0E00               	movlw	0
  1247  00008A  6E32               	movwf	(___fladd@b+2)^0,c
  1248  00008C  0E00               	movlw	0
  1249  00008E  6E33               	movwf	(___fladd@b+3)^0,c
  1250  000090                     l1484:
  1251  000090  5037               	movf	(___fladd@a+3)^0,w,c
  1252  000092  0B80               	andlw	128
  1253  000094  6E3D               	movwf	___fladd@aexp^0,c
  1254  000096  503C               	movf	___fladd@signs^0,w,c
  1255  000098  183D               	xorwf	___fladd@aexp^0,w,c
  1256  00009A  B4D8               	btfsc	status,2,c
  1257  00009C  EF52  F000         	goto	u1121
  1258  0000A0  EF54  F000         	goto	u1120
  1259  0000A4                     u1121:
  1260  0000A4  EF55  F000         	goto	l1490
  1261  0000A8                     u1120:
  1262  0000A8  8C3C               	bsf	___fladd@signs^0,6,c
  1263  0000AA                     l1490:
  1264  0000AA  5037               	movf	(___fladd@a+3)^0,w,c
  1265  0000AC  2437               	addwf	(___fladd@a+3)^0,w,c
  1266  0000AE  6E3D               	movwf	___fladd@aexp^0,c
  1267  0000B0  AE36               	btfss	(___fladd@a+2)^0,7,c
  1268  0000B2  EF5D  F000         	goto	u1131
  1269  0000B6  EF5F  F000         	goto	u1130
  1270  0000BA                     u1131:
  1271  0000BA  EF60  F000         	goto	l1496
  1272  0000BE                     u1130:
  1273  0000BE  803D               	bsf	___fladd@aexp^0,0,c
  1274  0000C0                     l1496:
  1275  0000C0  503D               	movf	___fladd@aexp^0,w,c
  1276  0000C2  B4D8               	btfsc	status,2,c
  1277  0000C4  EF66  F000         	goto	u1141
  1278  0000C8  EF68  F000         	goto	u1140
  1279  0000CC                     u1141:
  1280  0000CC  EF7D  F000         	goto	l1506
  1281  0000D0                     u1140:
  1282  0000D0  283D               	incf	___fladd@aexp^0,w,c
  1283  0000D2  A4D8               	btfss	status,2,c
  1284  0000D4  EF6E  F000         	goto	u1151
  1285  0000D8  EF70  F000         	goto	u1150
  1286  0000DC                     u1151:
  1287  0000DC  EF78  F000         	goto	l1502
  1288  0000E0                     u1150:
  1289  0000E0  0E00               	movlw	0
  1290  0000E2  6E34               	movwf	___fladd@a^0,c
  1291  0000E4  0E00               	movlw	0
  1292  0000E6  6E35               	movwf	(___fladd@a+1)^0,c
  1293  0000E8  0E00               	movlw	0
  1294  0000EA  6E36               	movwf	(___fladd@a+2)^0,c
  1295  0000EC  0E00               	movlw	0
  1296  0000EE  6E37               	movwf	(___fladd@a+3)^0,c
  1297  0000F0                     l1502:
  1298  0000F0  8E36               	bsf	(___fladd@a+2)^0,7,c
  1299  0000F2  0E00               	movlw	0
  1300  0000F4  6E37               	movwf	(___fladd@a+3)^0,c
  1301  0000F6  EF85  F000         	goto	l1508
  1302  0000FA                     l1506:
  1303  0000FA  0E00               	movlw	0
  1304  0000FC  6E34               	movwf	___fladd@a^0,c
  1305  0000FE  0E00               	movlw	0
  1306  000100  6E35               	movwf	(___fladd@a+1)^0,c
  1307  000102  0E00               	movlw	0
  1308  000104  6E36               	movwf	(___fladd@a+2)^0,c
  1309  000106  0E00               	movlw	0
  1310  000108  6E37               	movwf	(___fladd@a+3)^0,c
  1311  00010A                     l1508:
  1312  00010A  503E               	movf	___fladd@bexp^0,w,c
  1313  00010C  5C3D               	subwf	___fladd@aexp^0,w,c
  1314  00010E  B0D8               	btfsc	status,0,c
  1315  000110  EF8C  F000         	goto	u1161
  1316  000114  EF8E  F000         	goto	u1160
  1317  000118                     u1161:
  1318  000118  EFB5  F000         	goto	l1544
  1319  00011C                     u1160:
  1320  00011C  AC3C               	btfss	___fladd@signs^0,6,c
  1321  00011E  EF93  F000         	goto	u1171
  1322  000122  EF95  F000         	goto	u1170
  1323  000126                     u1171:
  1324  000126  EF97  F000         	goto	l1514
  1325  00012A                     u1170:
  1326  00012A  0E80               	movlw	128
  1327  00012C  1A3C               	xorwf	___fladd@signs^0,f,c
  1328  00012E                     l1514:
  1329  00012E  C03E  F03F         	movff	___fladd@bexp,___fladd@grs
  1330  000132  C03D  F03E         	movff	___fladd@aexp,___fladd@bexp
  1331  000136  C03F  F03D         	movff	___fladd@grs,___fladd@aexp
  1332  00013A  C030  F03F         	movff	___fladd@b,___fladd@grs
  1333  00013E  C034  F030         	movff	___fladd@a,___fladd@b
  1334  000142  C03F  F034         	movff	___fladd@grs,___fladd@a
  1335  000146  C031  F03F         	movff	___fladd@b+1,___fladd@grs
  1336  00014A  C035  F031         	movff	___fladd@a+1,___fladd@b+1
  1337  00014E  C03F  F035         	movff	___fladd@grs,___fladd@a+1
  1338  000152  C032  F03F         	movff	___fladd@b+2,___fladd@grs
  1339  000156  C036  F032         	movff	___fladd@a+2,___fladd@b+2
  1340  00015A  C03F  F036         	movff	___fladd@grs,___fladd@a+2
  1341  00015E  C033  F03F         	movff	___fladd@b+3,___fladd@grs
  1342  000162  C037  F033         	movff	___fladd@a+3,___fladd@b+3
  1343  000166  C03F  F037         	movff	___fladd@grs,___fladd@a+3
  1344  00016A                     l1544:
  1345  00016A  0E00               	movlw	0
  1346  00016C  6E3F               	movwf	___fladd@grs^0,c
  1347  00016E  503E               	movf	___fladd@bexp^0,w,c
  1348  000170  C03D  F038         	movff	___fladd@aexp,??___fladd
  1349  000174  6A39               	clrf	(??___fladd+1)^0,c
  1350  000176  5E38               	subwf	??___fladd^0,f,c
  1351  000178  0E00               	movlw	0
  1352  00017A  5A39               	subwfb	(??___fladd+1)^0,f,c
  1353  00017C  BE39               	btfsc	(??___fladd+1)^0,7,c
  1354  00017E  EFCA  F000         	goto	u1181
  1355  000182  5039               	movf	(??___fladd+1)^0,w,c
  1356  000184  E109               	bnz	u1180
  1357  000186  0E1A               	movlw	26
  1358  000188  5C38               	subwf	??___fladd^0,w,c
  1359  00018A  A0D8               	btfss	status,0,c
  1360  00018C  EFCA  F000         	goto	u1181
  1361  000190  EFCC  F000         	goto	u1180
  1362  000194                     u1181:
  1363  000194  EF03  F001         	goto	l658
  1364  000198                     u1180:
  1365  000198  5030               	movf	___fladd@b^0,w,c
  1366  00019A  1031               	iorwf	(___fladd@b+1)^0,w,c
  1367  00019C  1032               	iorwf	(___fladd@b+2)^0,w,c
  1368  00019E  1033               	iorwf	(___fladd@b+3)^0,w,c
  1369  0001A0  A4D8               	btfss	status,2,c
  1370  0001A2  EFD5  F000         	goto	u1191
  1371  0001A6  EFD8  F000         	goto	u1190
  1372  0001AA                     u1191:
  1373  0001AA  0E01               	movlw	1
  1374  0001AC  EFD9  F000         	goto	u1200
  1375  0001B0                     u1190:
  1376  0001B0  0E00               	movlw	0
  1377  0001B2                     u1200:
  1378  0001B2  6E3F               	movwf	___fladd@grs^0,c
  1379  0001B4  0E00               	movlw	0
  1380  0001B6  6E30               	movwf	___fladd@b^0,c
  1381  0001B8  0E00               	movlw	0
  1382  0001BA  6E31               	movwf	(___fladd@b+1)^0,c
  1383  0001BC  0E00               	movlw	0
  1384  0001BE  6E32               	movwf	(___fladd@b+2)^0,c
  1385  0001C0  0E00               	movlw	0
  1386  0001C2  6E33               	movwf	(___fladd@b+3)^0,c
  1387  0001C4  C03D  F03E         	movff	___fladd@aexp,___fladd@bexp
  1388  0001C8  EF0C  F001         	goto	l657
  1389  0001CC                     l659:
  1390  0001CC  A03F               	btfss	___fladd@grs^0,0,c
  1391  0001CE  EFEB  F000         	goto	u1211
  1392  0001D2  EFED  F000         	goto	u1210
  1393  0001D6                     u1211:
  1394  0001D6  EFF3  F000         	goto	l1556
  1395  0001DA                     u1210:
  1396  0001DA  90D8               	bcf	status,0,c
  1397  0001DC  303F               	rrcf	___fladd@grs^0,w,c
  1398  0001DE  0901               	iorlw	1
  1399  0001E0  6E3F               	movwf	___fladd@grs^0,c
  1400  0001E2  EFF5  F000         	goto	l1558
  1401  0001E6                     l1556:
  1402  0001E6  90D8               	bcf	status,0,c
  1403  0001E8  323F               	rrcf	___fladd@grs^0,f,c
  1404  0001EA                     l1558:
  1405  0001EA  A030               	btfss	___fladd@b^0,0,c
  1406  0001EC  EFFA  F000         	goto	u1221
  1407  0001F0  EFFC  F000         	goto	u1220
  1408  0001F4                     u1221:
  1409  0001F4  EFFD  F000         	goto	l1562
  1410  0001F8                     u1220:
  1411  0001F8  8E3F               	bsf	___fladd@grs^0,7,c
  1412  0001FA                     l1562:
  1413  0001FA  3433               	rlcf	(___fladd@b+3)^0,w,c
  1414  0001FC  3233               	rrcf	(___fladd@b+3)^0,f,c
  1415  0001FE  3232               	rrcf	(___fladd@b+2)^0,f,c
  1416  000200  3231               	rrcf	(___fladd@b+1)^0,f,c
  1417  000202  3230               	rrcf	___fladd@b^0,f,c
  1418  000204  2A3E               	incf	___fladd@bexp^0,f,c
  1419  000206                     l658:
  1420  000206  503D               	movf	___fladd@aexp^0,w,c
  1421  000208  5C3E               	subwf	___fladd@bexp^0,w,c
  1422  00020A  A0D8               	btfss	status,0,c
  1423  00020C  EF0A  F001         	goto	u1231
  1424  000210  EF0C  F001         	goto	u1230
  1425  000214                     u1231:
  1426  000214  EFE6  F000         	goto	l659
  1427  000218                     u1230:
  1428  000218                     l657:
  1429  000218  BC3C               	btfsc	___fladd@signs^0,6,c
  1430  00021A  EF11  F001         	goto	u1241
  1431  00021E  EF13  F001         	goto	u1240
  1432  000222                     u1241:
  1433  000222  EF53  F001         	goto	l1590
  1434  000226                     u1240:
  1435  000226  503E               	movf	___fladd@bexp^0,w,c
  1436  000228  A4D8               	btfss	status,2,c
  1437  00022A  EF19  F001         	goto	u1251
  1438  00022E  EF1B  F001         	goto	u1250
  1439  000232                     u1251:
  1440  000232  EF25  F001         	goto	l1572
  1441  000236                     u1250:
  1442  000236  0E00               	movlw	0
  1443  000238  6E30               	movwf	?___fladd^0,c
  1444  00023A  0E00               	movlw	0
  1445  00023C  6E31               	movwf	(?___fladd+1)^0,c
  1446  00023E  0E00               	movlw	0
  1447  000240  6E32               	movwf	(?___fladd+2)^0,c
  1448  000242  0E00               	movlw	0
  1449  000244  6E33               	movwf	(?___fladd+3)^0,c
  1450  000246  EF74  F002         	goto	l666
  1451  00024A                     l1572:
  1452  00024A  5034               	movf	___fladd@a^0,w,c
  1453  00024C  2630               	addwf	___fladd@b^0,f,c
  1454  00024E  5035               	movf	(___fladd@a+1)^0,w,c
  1455  000250  2231               	addwfc	(___fladd@b+1)^0,f,c
  1456  000252  5036               	movf	(___fladd@a+2)^0,w,c
  1457  000254  2232               	addwfc	(___fladd@b+2)^0,f,c
  1458  000256  5037               	movf	(___fladd@a+3)^0,w,c
  1459  000258  2233               	addwfc	(___fladd@b+3)^0,f,c
  1460  00025A  A033               	btfss	(___fladd@b+3)^0,0,c
  1461  00025C  EF32  F001         	goto	u1261
  1462  000260  EF34  F001         	goto	u1260
  1463  000264                     u1261:
  1464  000264  EFE0  F001         	goto	l1626
  1465  000268                     u1260:
  1466  000268  A03F               	btfss	___fladd@grs^0,0,c
  1467  00026A  EF39  F001         	goto	u1271
  1468  00026E  EF3B  F001         	goto	u1270
  1469  000272                     u1271:
  1470  000272  EF41  F001         	goto	l1580
  1471  000276                     u1270:
  1472  000276  90D8               	bcf	status,0,c
  1473  000278  303F               	rrcf	___fladd@grs^0,w,c
  1474  00027A  0901               	iorlw	1
  1475  00027C  6E3F               	movwf	___fladd@grs^0,c
  1476  00027E  EF43  F001         	goto	l1582
  1477  000282                     l1580:
  1478  000282  90D8               	bcf	status,0,c
  1479  000284  323F               	rrcf	___fladd@grs^0,f,c
  1480  000286                     l1582:
  1481  000286  A030               	btfss	___fladd@b^0,0,c
  1482  000288  EF48  F001         	goto	u1281
  1483  00028C  EF4A  F001         	goto	u1280
  1484  000290                     u1281:
  1485  000290  EF4B  F001         	goto	l1586
  1486  000294                     u1280:
  1487  000294  8E3F               	bsf	___fladd@grs^0,7,c
  1488  000296                     l1586:
  1489  000296  3433               	rlcf	(___fladd@b+3)^0,w,c
  1490  000298  3233               	rrcf	(___fladd@b+3)^0,f,c
  1491  00029A  3232               	rrcf	(___fladd@b+2)^0,f,c
  1492  00029C  3231               	rrcf	(___fladd@b+1)^0,f,c
  1493  00029E  3230               	rrcf	___fladd@b^0,f,c
  1494  0002A0  2A3E               	incf	___fladd@bexp^0,f,c
  1495  0002A2  EFE0  F001         	goto	l1626
  1496  0002A6                     l1590:
  1497  0002A6  5034               	movf	___fladd@a^0,w,c
  1498  0002A8  5C30               	subwf	___fladd@b^0,w,c
  1499  0002AA  5035               	movf	(___fladd@a+1)^0,w,c
  1500  0002AC  5831               	subwfb	(___fladd@b+1)^0,w,c
  1501  0002AE  5036               	movf	(___fladd@a+2)^0,w,c
  1502  0002B0  5832               	subwfb	(___fladd@b+2)^0,w,c
  1503  0002B2  5033               	movf	(___fladd@b+3)^0,w,c
  1504  0002B4  0A80               	xorlw	128
  1505  0002B6  6E38               	movwf	??___fladd^0,c
  1506  0002B8  5037               	movf	(___fladd@a+3)^0,w,c
  1507  0002BA  0A80               	xorlw	128
  1508  0002BC  5838               	subwfb	??___fladd^0,w,c
  1509  0002BE  B0D8               	btfsc	status,0,c
  1510  0002C0  EF64  F001         	goto	u1291
  1511  0002C4  EF66  F001         	goto	u1290
  1512  0002C8                     u1291:
  1513  0002C8  EF91  F001         	goto	l1600
  1514  0002CC                     u1290:
  1515  0002CC  5030               	movf	___fladd@b^0,w,c
  1516  0002CE  5C34               	subwf	___fladd@a^0,w,c
  1517  0002D0  6E38               	movwf	??___fladd^0,c
  1518  0002D2  5031               	movf	(___fladd@b+1)^0,w,c
  1519  0002D4  5835               	subwfb	(___fladd@a+1)^0,w,c
  1520  0002D6  6E39               	movwf	(??___fladd+1)^0,c
  1521  0002D8  5032               	movf	(___fladd@b+2)^0,w,c
  1522  0002DA  5836               	subwfb	(___fladd@a+2)^0,w,c
  1523  0002DC  6E3A               	movwf	(??___fladd+2)^0,c
  1524  0002DE  5033               	movf	(___fladd@b+3)^0,w,c
  1525  0002E0  5837               	subwfb	(___fladd@a+3)^0,w,c
  1526  0002E2  6E3B               	movwf	(??___fladd+3)^0,c
  1527  0002E4  0EFF               	movlw	255
  1528  0002E6  2438               	addwf	??___fladd^0,w,c
  1529  0002E8  6E30               	movwf	___fladd@b^0,c
  1530  0002EA  0EFF               	movlw	255
  1531  0002EC  2039               	addwfc	(??___fladd+1)^0,w,c
  1532  0002EE  6E31               	movwf	(___fladd@b+1)^0,c
  1533  0002F0  0EFF               	movlw	255
  1534  0002F2  203A               	addwfc	(??___fladd+2)^0,w,c
  1535  0002F4  6E32               	movwf	(___fladd@b+2)^0,c
  1536  0002F6  0EFF               	movlw	255
  1537  0002F8  203B               	addwfc	(??___fladd+3)^0,w,c
  1538  0002FA  6E33               	movwf	(___fladd@b+3)^0,c
  1539  0002FC  0E80               	movlw	128
  1540  0002FE  1A3C               	xorwf	___fladd@signs^0,f,c
  1541  000300  6C3F               	negf	___fladd@grs^0,c
  1542  000302  503F               	movf	___fladd@grs^0,w,c
  1543  000304  A4D8               	btfss	status,2,c
  1544  000306  EF87  F001         	goto	u1301
  1545  00030A  EF89  F001         	goto	u1300
  1546  00030E                     u1301:
  1547  00030E  EF99  F001         	goto	l674
  1548  000312                     u1300:
  1549  000312  0E01               	movlw	1
  1550  000314  2630               	addwf	___fladd@b^0,f,c
  1551  000316  0E00               	movlw	0
  1552  000318  2231               	addwfc	(___fladd@b+1)^0,f,c
  1553  00031A  2232               	addwfc	(___fladd@b+2)^0,f,c
  1554  00031C  2233               	addwfc	(___fladd@b+3)^0,f,c
  1555  00031E  EF99  F001         	goto	l674
  1556  000322                     l1600:
  1557  000322  5034               	movf	___fladd@a^0,w,c
  1558  000324  5E30               	subwf	___fladd@b^0,f,c
  1559  000326  5035               	movf	(___fladd@a+1)^0,w,c
  1560  000328  5A31               	subwfb	(___fladd@b+1)^0,f,c
  1561  00032A  5036               	movf	(___fladd@a+2)^0,w,c
  1562  00032C  5A32               	subwfb	(___fladd@b+2)^0,f,c
  1563  00032E  5037               	movf	(___fladd@a+3)^0,w,c
  1564  000330  5A33               	subwfb	(___fladd@b+3)^0,f,c
  1565  000332                     l674:
  1566  000332  5030               	movf	___fladd@b^0,w,c
  1567  000334  1031               	iorwf	(___fladd@b+1)^0,w,c
  1568  000336  1032               	iorwf	(___fladd@b+2)^0,w,c
  1569  000338  1033               	iorwf	(___fladd@b+3)^0,w,c
  1570  00033A  A4D8               	btfss	status,2,c
  1571  00033C  EFA2  F001         	goto	u1311
  1572  000340  EFA4  F001         	goto	u1310
  1573  000344                     u1311:
  1574  000344  EFD9  F001         	goto	l1624
  1575  000348                     u1310:
  1576  000348  503F               	movf	___fladd@grs^0,w,c
  1577  00034A  A4D8               	btfss	status,2,c
  1578  00034C  EFAA  F001         	goto	u1321
  1579  000350  EFAC  F001         	goto	u1320
  1580  000354                     u1321:
  1581  000354  EFD9  F001         	goto	l1624
  1582  000358                     u1320:
  1583  000358  0E00               	movlw	0
  1584  00035A  6E30               	movwf	?___fladd^0,c
  1585  00035C  0E00               	movlw	0
  1586  00035E  6E31               	movwf	(?___fladd+1)^0,c
  1587  000360  0E00               	movlw	0
  1588  000362  6E32               	movwf	(?___fladd+2)^0,c
  1589  000364  0E00               	movlw	0
  1590  000366  6E33               	movwf	(?___fladd+3)^0,c
  1591  000368  EF74  F002         	goto	l666
  1592  00036C                     l1608:
  1593  00036C  90D8               	bcf	status,0,c
  1594  00036E  3630               	rlcf	___fladd@b^0,f,c
  1595  000370  3631               	rlcf	(___fladd@b+1)^0,f,c
  1596  000372  3632               	rlcf	(___fladd@b+2)^0,f,c
  1597  000374  3633               	rlcf	(___fladd@b+3)^0,f,c
  1598  000376  AE3F               	btfss	___fladd@grs^0,7,c
  1599  000378  EFC0  F001         	goto	u1331
  1600  00037C  EFC2  F001         	goto	u1330
  1601  000380                     u1331:
  1602  000380  EFC3  F001         	goto	l1614
  1603  000384                     u1330:
  1604  000384  8030               	bsf	___fladd@b^0,0,c
  1605  000386                     l1614:
  1606  000386  A03F               	btfss	___fladd@grs^0,0,c
  1607  000388  EFC8  F001         	goto	u1341
  1608  00038C  EFCA  F001         	goto	u1340
  1609  000390                     u1341:
  1610  000390  EFCE  F001         	goto	l1618
  1611  000394                     u1340:
  1612  000394  80D8               	bsf	status,0,c
  1613  000396  363F               	rlcf	___fladd@grs^0,f,c
  1614  000398  EFD0  F001         	goto	l1620
  1615  00039C                     l1618:
  1616  00039C  90D8               	bcf	status,0,c
  1617  00039E  363F               	rlcf	___fladd@grs^0,f,c
  1618  0003A0                     l1620:
  1619  0003A0  503E               	movf	___fladd@bexp^0,w,c
  1620  0003A2  B4D8               	btfsc	status,2,c
  1621  0003A4  EFD6  F001         	goto	u1351
  1622  0003A8  EFD8  F001         	goto	u1350
  1623  0003AC                     u1351:
  1624  0003AC  EFD9  F001         	goto	l1624
  1625  0003B0                     u1350:
  1626  0003B0  063E               	decf	___fladd@bexp^0,f,c
  1627  0003B2                     l1624:
  1628  0003B2  AE32               	btfss	(___fladd@b+2)^0,7,c
  1629  0003B4  EFDE  F001         	goto	u1361
  1630  0003B8  EFE0  F001         	goto	u1360
  1631  0003BC                     u1361:
  1632  0003BC  EFB6  F001         	goto	l1608
  1633  0003C0                     u1360:
  1634  0003C0                     l1626:
  1635  0003C0  0E00               	movlw	0
  1636  0003C2  6E3D               	movwf	___fladd@aexp^0,c
  1637  0003C4  AE3F               	btfss	___fladd@grs^0,7,c
  1638  0003C6  EFE7  F001         	goto	u1371
  1639  0003CA  EFE9  F001         	goto	u1370
  1640  0003CE                     u1371:
  1641  0003CE  EF01  F002         	goto	l683
  1642  0003D2                     u1370:
  1643  0003D2  C03F  F038         	movff	___fladd@grs,??___fladd
  1644  0003D6  0E7F               	movlw	127
  1645  0003D8  1638               	andwf	??___fladd^0,f,c
  1646  0003DA  B4D8               	btfsc	status,2,c
  1647  0003DC  EFF2  F001         	goto	u1381
  1648  0003E0  EFF4  F001         	goto	u1380
  1649  0003E4                     u1381:
  1650  0003E4  EFF8  F001         	goto	l684
  1651  0003E8                     u1380:
  1652  0003E8                     l1632:
  1653  0003E8  0E01               	movlw	1
  1654  0003EA  6E3D               	movwf	___fladd@aexp^0,c
  1655  0003EC  EF01  F002         	goto	l683
  1656  0003F0                     l684:
  1657  0003F0  A030               	btfss	___fladd@b^0,0,c
  1658  0003F2  EFFD  F001         	goto	u1391
  1659  0003F6  EFFF  F001         	goto	u1390
  1660  0003FA                     u1391:
  1661  0003FA  EF01  F002         	goto	l683
  1662  0003FE                     u1390:
  1663  0003FE  EFF4  F001         	goto	l1632
  1664  000402                     l683:
  1665  000402  503D               	movf	___fladd@aexp^0,w,c
  1666  000404  B4D8               	btfsc	status,2,c
  1667  000406  EF07  F002         	goto	u1401
  1668  00040A  EF09  F002         	goto	u1400
  1669  00040E                     u1401:
  1670  00040E  EF34  F002         	goto	l1644
  1671  000412                     u1400:
  1672  000412  0E01               	movlw	1
  1673  000414  2630               	addwf	___fladd@b^0,f,c
  1674  000416  0E00               	movlw	0
  1675  000418  2231               	addwfc	(___fladd@b+1)^0,f,c
  1676  00041A  2232               	addwfc	(___fladd@b+2)^0,f,c
  1677  00041C  2233               	addwfc	(___fladd@b+3)^0,f,c
  1678  00041E  A033               	btfss	(___fladd@b+3)^0,0,c
  1679  000420  EF14  F002         	goto	u1411
  1680  000424  EF16  F002         	goto	u1410
  1681  000428                     u1411:
  1682  000428  EF34  F002         	goto	l1644
  1683  00042C                     u1410:
  1684  00042C  C030  F038         	movff	___fladd@b,??___fladd
  1685  000430  C031  F039         	movff	___fladd@b+1,??___fladd+1
  1686  000434  C032  F03A         	movff	___fladd@b+2,??___fladd+2
  1687  000438  C033  F03B         	movff	___fladd@b+3,??___fladd+3
  1688  00043C  343B               	rlcf	(??___fladd+3)^0,w,c
  1689  00043E  323B               	rrcf	(??___fladd+3)^0,f,c
  1690  000440  323A               	rrcf	(??___fladd+2)^0,f,c
  1691  000442  3239               	rrcf	(??___fladd+1)^0,f,c
  1692  000444  3238               	rrcf	??___fladd^0,f,c
  1693  000446  C038  F030         	movff	??___fladd,___fladd@b
  1694  00044A  C039  F031         	movff	??___fladd+1,___fladd@b+1
  1695  00044E  C03A  F032         	movff	??___fladd+2,___fladd@b+2
  1696  000452  C03B  F033         	movff	??___fladd+3,___fladd@b+3
  1697  000456  283E               	incf	___fladd@bexp^0,w,c
  1698  000458  B4D8               	btfsc	status,2,c
  1699  00045A  EF31  F002         	goto	u1421
  1700  00045E  EF33  F002         	goto	u1420
  1701  000462                     u1421:
  1702  000462  EF34  F002         	goto	l1644
  1703  000466                     u1420:
  1704  000466  2A3E               	incf	___fladd@bexp^0,f,c
  1705  000468                     l1644:
  1706  000468  283E               	incf	___fladd@bexp^0,w,c
  1707  00046A  B4D8               	btfsc	status,2,c
  1708  00046C  EF3A  F002         	goto	u1431
  1709  000470  EF3C  F002         	goto	u1430
  1710  000474                     u1431:
  1711  000474  EF44  F002         	goto	l1648
  1712  000478                     u1430:
  1713  000478  503E               	movf	___fladd@bexp^0,w,c
  1714  00047A  A4D8               	btfss	status,2,c
  1715  00047C  EF42  F002         	goto	u1441
  1716  000480  EF44  F002         	goto	u1440
  1717  000484                     u1441:
  1718  000484  EF56  F002         	goto	l1652
  1719  000488                     u1440:
  1720  000488                     l1648:
  1721  000488  0E00               	movlw	0
  1722  00048A  6E30               	movwf	___fladd@b^0,c
  1723  00048C  0E00               	movlw	0
  1724  00048E  6E31               	movwf	(___fladd@b+1)^0,c
  1725  000490  0E00               	movlw	0
  1726  000492  6E32               	movwf	(___fladd@b+2)^0,c
  1727  000494  0E00               	movlw	0
  1728  000496  6E33               	movwf	(___fladd@b+3)^0,c
  1729  000498  503E               	movf	___fladd@bexp^0,w,c
  1730  00049A  A4D8               	btfss	status,2,c
  1731  00049C  EF52  F002         	goto	u1451
  1732  0004A0  EF54  F002         	goto	u1450
  1733  0004A4                     u1451:
  1734  0004A4  EF56  F002         	goto	l1652
  1735  0004A8                     u1450:
  1736  0004A8  0E00               	movlw	0
  1737  0004AA  6E3C               	movwf	___fladd@signs^0,c
  1738  0004AC                     l1652:
  1739  0004AC  A03E               	btfss	___fladd@bexp^0,0,c
  1740  0004AE  EF5B  F002         	goto	u1461
  1741  0004B2  EF5D  F002         	goto	u1460
  1742  0004B6                     u1461:
  1743  0004B6  EF60  F002         	goto	l1656
  1744  0004BA                     u1460:
  1745  0004BA  8E32               	bsf	(___fladd@b+2)^0,7,c
  1746  0004BC  EF61  F002         	goto	l1658
  1747  0004C0                     l1656:
  1748  0004C0  9E32               	bcf	(___fladd@b+2)^0,7,c
  1749  0004C2                     l1658:
  1750  0004C2  90D8               	bcf	status,0,c
  1751  0004C4  303E               	rrcf	___fladd@bexp^0,w,c
  1752  0004C6  6E33               	movwf	(___fladd@b+3)^0,c
  1753  0004C8  AE3C               	btfss	___fladd@signs^0,7,c
  1754  0004CA  EF69  F002         	goto	u1471
  1755  0004CE  EF6B  F002         	goto	u1470
  1756  0004D2                     u1471:
  1757  0004D2  EF6C  F002         	goto	l1664
  1758  0004D6                     u1470:
  1759  0004D6  8E33               	bsf	(___fladd@b+3)^0,7,c
  1760  0004D8                     l1664:
  1761  0004D8  C030  F030         	movff	___fladd@b,?___fladd
  1762  0004DC  C031  F031         	movff	___fladd@b+1,?___fladd+1
  1763  0004E0  C032  F032         	movff	___fladd@b+2,?___fladd+2
  1764  0004E4  C033  F033         	movff	___fladd@b+3,?___fladd+3
  1765  0004E8                     l666:
  1766  0004E8  0012               	return		;funcret
  1767  0004EA                     __end_of___fladd:
  1768                           	callstack 0
  1769                           
  1770 ;; *************** function ___flmul *****************
  1771 ;; Defined at:
  1772 ;;		line 8 in file "C:\Program Files\Microchip\xc8\v2.30\pic\sources\c99\common\sprcmul.c"
  1773 ;; Parameters:    Size  Location     Type
  1774 ;;  b               4   22[COMRAM] unsigned char 
  1775 ;;  a               4   26[COMRAM] unsigned char 
  1776 ;; Auto vars:     Size  Location     Type
  1777 ;;  prod            4   41[COMRAM] struct .
  1778 ;;  grs             4   35[COMRAM] unsigned long 
  1779 ;;  temp            2   45[COMRAM] struct .
  1780 ;;  bexp            1   40[COMRAM] unsigned char 
  1781 ;;  aexp            1   39[COMRAM] unsigned char 
  1782 ;;  sign            1   34[COMRAM] unsigned char 
  1783 ;; Return value:  Size  Location     Type
  1784 ;;                  4   22[COMRAM] unsigned char 
  1785 ;; Registers used:
  1786 ;;		wreg, status,2, status,0, prodl, prodh
  1787 ;; Tracked objects:
  1788 ;;		On entry : 0/0
  1789 ;;		On exit  : 0/0
  1790 ;;		Unchanged: 0/0
  1791 ;; Data sizes:     COMRAM   BANK0   BANK1   BANK2   BANK3   BANK4   BANK5
  1792 ;;      Params:         8       0       0       0       0       0       0
  1793 ;;      Locals:        13       0       0       0       0       0       0
  1794 ;;      Temps:          4       0       0       0       0       0       0
  1795 ;;      Totals:        25       0       0       0       0       0       0
  1796 ;;Total ram usage:       25 bytes
  1797 ;; Hardware stack levels used:    1
  1798 ;; Hardware stack levels required when called:    3
  1799 ;; This function calls:
  1800 ;;		Nothing
  1801 ;; This function is called by:
  1802 ;;		_main
  1803 ;; This function uses a non-reentrant model
  1804 ;;
  1805                           
  1806                           	psect	text5
  1807  0004EA                     __ptext5:
  1808                           	callstack 0
  1809  0004EA                     ___flmul:
  1810                           	callstack 27
  1811  0004EA  501A               	movf	(___flmul@b+3)^0,w,c
  1812  0004EC  0B80               	andlw	128
  1813  0004EE  6E23               	movwf	___flmul@sign^0,c
  1814  0004F0  501A               	movf	(___flmul@b+3)^0,w,c
  1815  0004F2  241A               	addwf	(___flmul@b+3)^0,w,c
  1816  0004F4  6E29               	movwf	___flmul@bexp^0,c
  1817  0004F6  AE19               	btfss	(___flmul@b+2)^0,7,c
  1818  0004F8  EF80  F002         	goto	u1481
  1819  0004FC  EF82  F002         	goto	u1480
  1820  000500                     u1481:
  1821  000500  EF83  F002         	goto	l1684
  1822  000504                     u1480:
  1823  000504  8029               	bsf	___flmul@bexp^0,0,c
  1824  000506                     l1684:
  1825  000506  5029               	movf	___flmul@bexp^0,w,c
  1826  000508  B4D8               	btfsc	status,2,c
  1827  00050A  EF89  F002         	goto	u1491
  1828  00050E  EF8B  F002         	goto	u1490
  1829  000512                     u1491:
  1830  000512  EF9E  F002         	goto	l1692
  1831  000516                     u1490:
  1832  000516  2829               	incf	___flmul@bexp^0,w,c
  1833  000518  A4D8               	btfss	status,2,c
  1834  00051A  EF91  F002         	goto	u1501
  1835  00051E  EF93  F002         	goto	u1500
  1836  000522                     u1501:
  1837  000522  EF9B  F002         	goto	l1690
  1838  000526                     u1500:
  1839  000526  0E00               	movlw	0
  1840  000528  6E17               	movwf	___flmul@b^0,c
  1841  00052A  0E00               	movlw	0
  1842  00052C  6E18               	movwf	(___flmul@b+1)^0,c
  1843  00052E  0E00               	movlw	0
  1844  000530  6E19               	movwf	(___flmul@b+2)^0,c
  1845  000532  0E00               	movlw	0
  1846  000534  6E1A               	movwf	(___flmul@b+3)^0,c
  1847  000536                     l1690:
  1848  000536  8E19               	bsf	(___flmul@b+2)^0,7,c
  1849  000538  EFA6  F002         	goto	l1694
  1850  00053C                     l1692:
  1851  00053C  0E00               	movlw	0
  1852  00053E  6E17               	movwf	___flmul@b^0,c
  1853  000540  0E00               	movlw	0
  1854  000542  6E18               	movwf	(___flmul@b+1)^0,c
  1855  000544  0E00               	movlw	0
  1856  000546  6E19               	movwf	(___flmul@b+2)^0,c
  1857  000548  0E00               	movlw	0
  1858  00054A  6E1A               	movwf	(___flmul@b+3)^0,c
  1859  00054C                     l1694:
  1860  00054C  501E               	movf	(___flmul@a+3)^0,w,c
  1861  00054E  0B80               	andlw	128
  1862  000550  1A23               	xorwf	___flmul@sign^0,f,c
  1863  000552  501E               	movf	(___flmul@a+3)^0,w,c
  1864  000554  241E               	addwf	(___flmul@a+3)^0,w,c
  1865  000556  6E28               	movwf	___flmul@aexp^0,c
  1866  000558  AE1D               	btfss	(___flmul@a+2)^0,7,c
  1867  00055A  EFB1  F002         	goto	u1511
  1868  00055E  EFB3  F002         	goto	u1510
  1869  000562                     u1511:
  1870  000562  EFB4  F002         	goto	l1702
  1871  000566                     u1510:
  1872  000566  8028               	bsf	___flmul@aexp^0,0,c
  1873  000568                     l1702:
  1874  000568  5028               	movf	___flmul@aexp^0,w,c
  1875  00056A  B4D8               	btfsc	status,2,c
  1876  00056C  EFBA  F002         	goto	u1521
  1877  000570  EFBC  F002         	goto	u1520
  1878  000574                     u1521:
  1879  000574  EFCF  F002         	goto	l1710
  1880  000578                     u1520:
  1881  000578  2828               	incf	___flmul@aexp^0,w,c
  1882  00057A  A4D8               	btfss	status,2,c
  1883  00057C  EFC2  F002         	goto	u1531
  1884  000580  EFC4  F002         	goto	u1530
  1885  000584                     u1531:
  1886  000584  EFCC  F002         	goto	l1708
  1887  000588                     u1530:
  1888  000588  0E00               	movlw	0
  1889  00058A  6E1B               	movwf	___flmul@a^0,c
  1890  00058C  0E00               	movlw	0
  1891  00058E  6E1C               	movwf	(___flmul@a+1)^0,c
  1892  000590  0E00               	movlw	0
  1893  000592  6E1D               	movwf	(___flmul@a+2)^0,c
  1894  000594  0E00               	movlw	0
  1895  000596  6E1E               	movwf	(___flmul@a+3)^0,c
  1896  000598                     l1708:
  1897  000598  8E1D               	bsf	(___flmul@a+2)^0,7,c
  1898  00059A  EFD7  F002         	goto	l743
  1899  00059E                     l1710:
  1900  00059E  0E00               	movlw	0
  1901  0005A0  6E1B               	movwf	___flmul@a^0,c
  1902  0005A2  0E00               	movlw	0
  1903  0005A4  6E1C               	movwf	(___flmul@a+1)^0,c
  1904  0005A6  0E00               	movlw	0
  1905  0005A8  6E1D               	movwf	(___flmul@a+2)^0,c
  1906  0005AA  0E00               	movlw	0
  1907  0005AC  6E1E               	movwf	(___flmul@a+3)^0,c
  1908  0005AE                     l743:
  1909  0005AE  5028               	movf	___flmul@aexp^0,w,c
  1910  0005B0  B4D8               	btfsc	status,2,c
  1911  0005B2  EFDD  F002         	goto	u1541
  1912  0005B6  EFDF  F002         	goto	u1540
  1913  0005BA                     u1541:
  1914  0005BA  EFE7  F002         	goto	l1714
  1915  0005BE                     u1540:
  1916  0005BE  5029               	movf	___flmul@bexp^0,w,c
  1917  0005C0  A4D8               	btfss	status,2,c
  1918  0005C2  EFE5  F002         	goto	u1551
  1919  0005C6  EFE7  F002         	goto	u1550
  1920  0005CA                     u1551:
  1921  0005CA  EFF1  F002         	goto	l1718
  1922  0005CE                     u1550:
  1923  0005CE                     l1714:
  1924  0005CE  0E00               	movlw	0
  1925  0005D0  6E17               	movwf	?___flmul^0,c
  1926  0005D2  0E00               	movlw	0
  1927  0005D4  6E18               	movwf	(?___flmul+1)^0,c
  1928  0005D6  0E00               	movlw	0
  1929  0005D8  6E19               	movwf	(?___flmul+2)^0,c
  1930  0005DA  0E00               	movlw	0
  1931  0005DC  6E1A               	movwf	(?___flmul+3)^0,c
  1932  0005DE  EF89  F004         	goto	l747
  1933  0005E2                     l1718:
  1934  0005E2  501D               	movf	(___flmul@a+2)^0,w,c
  1935  0005E4  0217               	mulwf	___flmul@b^0,c
  1936  0005E6  CFF3 F02E          	movff	prodl,___flmul@temp
  1937  0005EA  CFF4 F02F          	movff	prodh,___flmul@temp+1
  1938  0005EE  502E               	movf	___flmul@temp^0,w,c
  1939  0005F0  6E24               	movwf	___flmul@grs^0,c
  1940  0005F2  6A25               	clrf	(___flmul@grs+1)^0,c
  1941  0005F4  6A26               	clrf	(___flmul@grs+2)^0,c
  1942  0005F6  6A27               	clrf	(___flmul@grs+3)^0,c
  1943  0005F8  502F               	movf	(___flmul@temp+1)^0,w,c
  1944  0005FA  6E2A               	movwf	___flmul@prod^0,c
  1945  0005FC  6A2B               	clrf	(___flmul@prod+1)^0,c
  1946  0005FE  6A2C               	clrf	(___flmul@prod+2)^0,c
  1947  000600  6A2D               	clrf	(___flmul@prod+3)^0,c
  1948  000602  501C               	movf	(___flmul@a+1)^0,w,c
  1949  000604  0218               	mulwf	(___flmul@b+1)^0,c
  1950  000606  CFF3 F02E          	movff	prodl,___flmul@temp
  1951  00060A  CFF4 F02F          	movff	prodh,___flmul@temp+1
  1952  00060E  502E               	movf	___flmul@temp^0,w,c
  1953  000610  2624               	addwf	___flmul@grs^0,f,c
  1954  000612  0E00               	movlw	0
  1955  000614  2225               	addwfc	(___flmul@grs+1)^0,f,c
  1956  000616  2226               	addwfc	(___flmul@grs+2)^0,f,c
  1957  000618  2227               	addwfc	(___flmul@grs+3)^0,f,c
  1958  00061A  502F               	movf	(___flmul@temp+1)^0,w,c
  1959  00061C  262A               	addwf	___flmul@prod^0,f,c
  1960  00061E  0E00               	movlw	0
  1961  000620  222B               	addwfc	(___flmul@prod+1)^0,f,c
  1962  000622  222C               	addwfc	(___flmul@prod+2)^0,f,c
  1963  000624  222D               	addwfc	(___flmul@prod+3)^0,f,c
  1964  000626  501B               	movf	___flmul@a^0,w,c
  1965  000628  0219               	mulwf	(___flmul@b+2)^0,c
  1966  00062A  CFF3 F02E          	movff	prodl,___flmul@temp
  1967  00062E  CFF4 F02F          	movff	prodh,___flmul@temp+1
  1968  000632  502E               	movf	___flmul@temp^0,w,c
  1969  000634  2624               	addwf	___flmul@grs^0,f,c
  1970  000636  0E00               	movlw	0
  1971  000638  2225               	addwfc	(___flmul@grs+1)^0,f,c
  1972  00063A  2226               	addwfc	(___flmul@grs+2)^0,f,c
  1973  00063C  2227               	addwfc	(___flmul@grs+3)^0,f,c
  1974  00063E  502F               	movf	(___flmul@temp+1)^0,w,c
  1975  000640  262A               	addwf	___flmul@prod^0,f,c
  1976  000642  0E00               	movlw	0
  1977  000644  222B               	addwfc	(___flmul@prod+1)^0,f,c
  1978  000646  222C               	addwfc	(___flmul@prod+2)^0,f,c
  1979  000648  222D               	addwfc	(___flmul@prod+3)^0,f,c
  1980  00064A  C026  F027         	movff	___flmul@grs+2,___flmul@grs+3
  1981  00064E  C025  F026         	movff	___flmul@grs+1,___flmul@grs+2
  1982  000652  C024  F025         	movff	___flmul@grs,___flmul@grs+1
  1983  000656  6A24               	clrf	___flmul@grs^0,c
  1984  000658  501B               	movf	___flmul@a^0,w,c
  1985  00065A  0218               	mulwf	(___flmul@b+1)^0,c
  1986  00065C  CFF3 F02E          	movff	prodl,___flmul@temp
  1987  000660  CFF4 F02F          	movff	prodh,___flmul@temp+1
  1988  000664  502E               	movf	___flmul@temp^0,w,c
  1989  000666  2624               	addwf	___flmul@grs^0,f,c
  1990  000668  502F               	movf	(___flmul@temp+1)^0,w,c
  1991  00066A  2225               	addwfc	(___flmul@grs+1)^0,f,c
  1992  00066C  0E00               	movlw	0
  1993  00066E  2226               	addwfc	(___flmul@grs+2)^0,f,c
  1994  000670  0E00               	movlw	0
  1995  000672  2227               	addwfc	(___flmul@grs+3)^0,f,c
  1996  000674  501C               	movf	(___flmul@a+1)^0,w,c
  1997  000676  0217               	mulwf	___flmul@b^0,c
  1998  000678  CFF3 F02E          	movff	prodl,___flmul@temp
  1999  00067C  CFF4 F02F          	movff	prodh,___flmul@temp+1
  2000  000680  502E               	movf	___flmul@temp^0,w,c
  2001  000682  2624               	addwf	___flmul@grs^0,f,c
  2002  000684  502F               	movf	(___flmul@temp+1)^0,w,c
  2003  000686  2225               	addwfc	(___flmul@grs+1)^0,f,c
  2004  000688  0E00               	movlw	0
  2005  00068A  2226               	addwfc	(___flmul@grs+2)^0,f,c
  2006  00068C  0E00               	movlw	0
  2007  00068E  2227               	addwfc	(___flmul@grs+3)^0,f,c
  2008  000690  C026  F027         	movff	___flmul@grs+2,___flmul@grs+3
  2009  000694  C025  F026         	movff	___flmul@grs+1,___flmul@grs+2
  2010  000698  C024  F025         	movff	___flmul@grs,___flmul@grs+1
  2011  00069C  6A24               	clrf	___flmul@grs^0,c
  2012  00069E  501B               	movf	___flmul@a^0,w,c
  2013  0006A0  0217               	mulwf	___flmul@b^0,c
  2014  0006A2  CFF3 F02E          	movff	prodl,___flmul@temp
  2015  0006A6  CFF4 F02F          	movff	prodh,___flmul@temp+1
  2016  0006AA  502E               	movf	___flmul@temp^0,w,c
  2017  0006AC  2624               	addwf	___flmul@grs^0,f,c
  2018  0006AE  502F               	movf	(___flmul@temp+1)^0,w,c
  2019  0006B0  2225               	addwfc	(___flmul@grs+1)^0,f,c
  2020  0006B2  0E00               	movlw	0
  2021  0006B4  2226               	addwfc	(___flmul@grs+2)^0,f,c
  2022  0006B6  0E00               	movlw	0
  2023  0006B8  2227               	addwfc	(___flmul@grs+3)^0,f,c
  2024  0006BA  501D               	movf	(___flmul@a+2)^0,w,c
  2025  0006BC  0218               	mulwf	(___flmul@b+1)^0,c
  2026  0006BE  CFF3 F02E          	movff	prodl,___flmul@temp
  2027  0006C2  CFF4 F02F          	movff	prodh,___flmul@temp+1
  2028  0006C6  502E               	movf	___flmul@temp^0,w,c
  2029  0006C8  262A               	addwf	___flmul@prod^0,f,c
  2030  0006CA  502F               	movf	(___flmul@temp+1)^0,w,c
  2031  0006CC  222B               	addwfc	(___flmul@prod+1)^0,f,c
  2032  0006CE  0E00               	movlw	0
  2033  0006D0  222C               	addwfc	(___flmul@prod+2)^0,f,c
  2034  0006D2  0E00               	movlw	0
  2035  0006D4  222D               	addwfc	(___flmul@prod+3)^0,f,c
  2036  0006D6  501C               	movf	(___flmul@a+1)^0,w,c
  2037  0006D8  0219               	mulwf	(___flmul@b+2)^0,c
  2038  0006DA  CFF3 F02E          	movff	prodl,___flmul@temp
  2039  0006DE  CFF4 F02F          	movff	prodh,___flmul@temp+1
  2040  0006E2  502E               	movf	___flmul@temp^0,w,c
  2041  0006E4  262A               	addwf	___flmul@prod^0,f,c
  2042  0006E6  502F               	movf	(___flmul@temp+1)^0,w,c
  2043  0006E8  222B               	addwfc	(___flmul@prod+1)^0,f,c
  2044  0006EA  0E00               	movlw	0
  2045  0006EC  222C               	addwfc	(___flmul@prod+2)^0,f,c
  2046  0006EE  0E00               	movlw	0
  2047  0006F0  222D               	addwfc	(___flmul@prod+3)^0,f,c
  2048  0006F2  501D               	movf	(___flmul@a+2)^0,w,c
  2049  0006F4  0219               	mulwf	(___flmul@b+2)^0,c
  2050  0006F6  CFF3 F02E          	movff	prodl,___flmul@temp
  2051  0006FA  CFF4 F02F          	movff	prodh,___flmul@temp+1
  2052  0006FE  502E               	movf	___flmul@temp^0,w,c
  2053  000700  6E1F               	movwf	??___flmul^0,c
  2054  000702  502F               	movf	(___flmul@temp+1)^0,w,c
  2055  000704  6E20               	movwf	(??___flmul+1)^0,c
  2056  000706  6A21               	clrf	(??___flmul+2)^0,c
  2057  000708  6A22               	clrf	(??___flmul+3)^0,c
  2058  00070A  C021  F022         	movff	??___flmul+2,??___flmul+3
  2059  00070E  C020  F021         	movff	??___flmul+1,??___flmul+2
  2060  000712  C01F  F020         	movff	??___flmul,??___flmul+1
  2061  000716  6A1F               	clrf	??___flmul^0,c
  2062  000718  501F               	movf	??___flmul^0,w,c
  2063  00071A  262A               	addwf	___flmul@prod^0,f,c
  2064  00071C  5020               	movf	(??___flmul+1)^0,w,c
  2065  00071E  222B               	addwfc	(___flmul@prod+1)^0,f,c
  2066  000720  5021               	movf	(??___flmul+2)^0,w,c
  2067  000722  222C               	addwfc	(___flmul@prod+2)^0,f,c
  2068  000724  5022               	movf	(??___flmul+3)^0,w,c
  2069  000726  222D               	addwfc	(___flmul@prod+3)^0,f,c
  2070  000728  C024  F01F         	movff	___flmul@grs,??___flmul
  2071  00072C  C025  F020         	movff	___flmul@grs+1,??___flmul+1
  2072  000730  C026  F021         	movff	___flmul@grs+2,??___flmul+2
  2073  000734  C027  F022         	movff	___flmul@grs+3,??___flmul+3
  2074  000738  0E19               	movlw	25
  2075  00073A  EFA4  F003         	goto	u1560
  2076  00073E                     u1565:
  2077  00073E  90D8               	bcf	status,0,c
  2078  000740  3222               	rrcf	(??___flmul+3)^0,f,c
  2079  000742  3221               	rrcf	(??___flmul+2)^0,f,c
  2080  000744  3220               	rrcf	(??___flmul+1)^0,f,c
  2081  000746  321F               	rrcf	??___flmul^0,f,c
  2082  000748                     u1560:
  2083  000748  2EE8               	decfsz	wreg,f,c
  2084  00074A  EF9F  F003         	goto	u1565
  2085  00074E  501F               	movf	??___flmul^0,w,c
  2086  000750  262A               	addwf	___flmul@prod^0,f,c
  2087  000752  5020               	movf	(??___flmul+1)^0,w,c
  2088  000754  222B               	addwfc	(___flmul@prod+1)^0,f,c
  2089  000756  5021               	movf	(??___flmul+2)^0,w,c
  2090  000758  222C               	addwfc	(___flmul@prod+2)^0,f,c
  2091  00075A  5022               	movf	(??___flmul+3)^0,w,c
  2092  00075C  222D               	addwfc	(___flmul@prod+3)^0,f,c
  2093  00075E  C026  F027         	movff	___flmul@grs+2,___flmul@grs+3
  2094  000762  C025  F026         	movff	___flmul@grs+1,___flmul@grs+2
  2095  000766  C024  F025         	movff	___flmul@grs,___flmul@grs+1
  2096  00076A  6A24               	clrf	___flmul@grs^0,c
  2097  00076C  5028               	movf	___flmul@aexp^0,w,c
  2098  00076E  C029  F01F         	movff	___flmul@bexp,??___flmul
  2099  000772  6A20               	clrf	(??___flmul+1)^0,c
  2100  000774  261F               	addwf	??___flmul^0,f,c
  2101  000776  0E00               	movlw	0
  2102  000778  2220               	addwfc	(??___flmul+1)^0,f,c
  2103  00077A  0E82               	movlw	130
  2104  00077C  241F               	addwf	??___flmul^0,w,c
  2105  00077E  6E2E               	movwf	___flmul@temp^0,c
  2106  000780  0EFF               	movlw	255
  2107  000782  2020               	addwfc	(??___flmul+1)^0,w,c
  2108  000784  6E2F               	movwf	(___flmul@temp+1)^0,c
  2109  000786  EFDA  F003         	goto	l1766
  2110  00078A                     l1760:
  2111  00078A  90D8               	bcf	status,0,c
  2112  00078C  362A               	rlcf	___flmul@prod^0,f,c
  2113  00078E  362B               	rlcf	(___flmul@prod+1)^0,f,c
  2114  000790  362C               	rlcf	(___flmul@prod+2)^0,f,c
  2115  000792  362D               	rlcf	(___flmul@prod+3)^0,f,c
  2116  000794  AE27               	btfss	(___flmul@grs+3)^0,7,c
  2117  000796  EFCF  F003         	goto	u1571
  2118  00079A  EFD1  F003         	goto	u1570
  2119  00079E                     u1571:
  2120  00079E  EFD2  F003         	goto	l750
  2121  0007A2                     u1570:
  2122  0007A2  802A               	bsf	___flmul@prod^0,0,c
  2123  0007A4                     l750:
  2124  0007A4  90D8               	bcf	status,0,c
  2125  0007A6  3624               	rlcf	___flmul@grs^0,f,c
  2126  0007A8  3625               	rlcf	(___flmul@grs+1)^0,f,c
  2127  0007AA  3626               	rlcf	(___flmul@grs+2)^0,f,c
  2128  0007AC  3627               	rlcf	(___flmul@grs+3)^0,f,c
  2129  0007AE  062E               	decf	___flmul@temp^0,f,c
  2130  0007B0  A0D8               	btfss	status,0,c
  2131  0007B2  062F               	decf	(___flmul@temp+1)^0,f,c
  2132  0007B4                     l1766:
  2133  0007B4  AE2C               	btfss	(___flmul@prod+2)^0,7,c
  2134  0007B6  EFDF  F003         	goto	u1581
  2135  0007BA  EFE1  F003         	goto	u1580
  2136  0007BE                     u1581:
  2137  0007BE  EFC5  F003         	goto	l1760
  2138  0007C2                     u1580:
  2139  0007C2  0E00               	movlw	0
  2140  0007C4  6E28               	movwf	___flmul@aexp^0,c
  2141  0007C6  AE27               	btfss	(___flmul@grs+3)^0,7,c
  2142  0007C8  EFE8  F003         	goto	u1591
  2143  0007CC  EFEA  F003         	goto	u1590
  2144  0007D0                     u1591:
  2145  0007D0  EF0E  F004         	goto	l752
  2146  0007D4                     u1590:
  2147  0007D4  0EFF               	movlw	255
  2148  0007D6  1424               	andwf	___flmul@grs^0,w,c
  2149  0007D8  6E1F               	movwf	??___flmul^0,c
  2150  0007DA  0EFF               	movlw	255
  2151  0007DC  1425               	andwf	(___flmul@grs+1)^0,w,c
  2152  0007DE  6E20               	movwf	(??___flmul+1)^0,c
  2153  0007E0  0EFF               	movlw	255
  2154  0007E2  1426               	andwf	(___flmul@grs+2)^0,w,c
  2155  0007E4  6E21               	movwf	(??___flmul+2)^0,c
  2156  0007E6  0E7F               	movlw	127
  2157  0007E8  1427               	andwf	(___flmul@grs+3)^0,w,c
  2158  0007EA  6E22               	movwf	(??___flmul+3)^0,c
  2159  0007EC  501F               	movf	??___flmul^0,w,c
  2160  0007EE  1020               	iorwf	(??___flmul+1)^0,w,c
  2161  0007F0  1021               	iorwf	(??___flmul+2)^0,w,c
  2162  0007F2  1022               	iorwf	(??___flmul+3)^0,w,c
  2163  0007F4  B4D8               	btfsc	status,2,c
  2164  0007F6  EFFF  F003         	goto	u1601
  2165  0007FA  EF01  F004         	goto	u1600
  2166  0007FE                     u1601:
  2167  0007FE  EF05  F004         	goto	l753
  2168  000802                     u1600:
  2169  000802                     l1774:
  2170  000802  0E01               	movlw	1
  2171  000804  6E28               	movwf	___flmul@aexp^0,c
  2172  000806  EF0E  F004         	goto	l752
  2173  00080A                     l753:
  2174  00080A  A02A               	btfss	___flmul@prod^0,0,c
  2175  00080C  EF0A  F004         	goto	u1611
  2176  000810  EF0C  F004         	goto	u1610
  2177  000814                     u1611:
  2178  000814  EF0E  F004         	goto	l752
  2179  000818                     u1610:
  2180  000818  EF01  F004         	goto	l1774
  2181  00081C                     l752:
  2182  00081C  5028               	movf	___flmul@aexp^0,w,c
  2183  00081E  B4D8               	btfsc	status,2,c
  2184  000820  EF14  F004         	goto	u1621
  2185  000824  EF16  F004         	goto	u1620
  2186  000828                     u1621:
  2187  000828  EF3A  F004         	goto	l1786
  2188  00082C                     u1620:
  2189  00082C  0E01               	movlw	1
  2190  00082E  262A               	addwf	___flmul@prod^0,f,c
  2191  000830  0E00               	movlw	0
  2192  000832  222B               	addwfc	(___flmul@prod+1)^0,f,c
  2193  000834  222C               	addwfc	(___flmul@prod+2)^0,f,c
  2194  000836  222D               	addwfc	(___flmul@prod+3)^0,f,c
  2195  000838  A02D               	btfss	(___flmul@prod+3)^0,0,c
  2196  00083A  EF21  F004         	goto	u1631
  2197  00083E  EF23  F004         	goto	u1630
  2198  000842                     u1631:
  2199  000842  EF3A  F004         	goto	l1786
  2200  000846                     u1630:
  2201  000846  C02A  F01F         	movff	___flmul@prod,??___flmul
  2202  00084A  C02B  F020         	movff	___flmul@prod+1,??___flmul+1
  2203  00084E  C02C  F021         	movff	___flmul@prod+2,??___flmul+2
  2204  000852  C02D  F022         	movff	___flmul@prod+3,??___flmul+3
  2205  000856  3422               	rlcf	(??___flmul+3)^0,w,c
  2206  000858  3222               	rrcf	(??___flmul+3)^0,f,c
  2207  00085A  3221               	rrcf	(??___flmul+2)^0,f,c
  2208  00085C  3220               	rrcf	(??___flmul+1)^0,f,c
  2209  00085E  321F               	rrcf	??___flmul^0,f,c
  2210  000860  C01F  F02A         	movff	??___flmul,___flmul@prod
  2211  000864  C020  F02B         	movff	??___flmul+1,___flmul@prod+1
  2212  000868  C021  F02C         	movff	??___flmul+2,___flmul@prod+2
  2213  00086C  C022  F02D         	movff	??___flmul+3,___flmul@prod+3
  2214  000870  4A2E               	infsnz	___flmul@temp^0,f,c
  2215  000872  2A2F               	incf	(___flmul@temp+1)^0,f,c
  2216  000874                     l1786:
  2217  000874  BE2F               	btfsc	(___flmul@temp+1)^0,7,c
  2218  000876  EF45  F004         	goto	u1641
  2219  00087A  502F               	movf	(___flmul@temp+1)^0,w,c
  2220  00087C  E108               	bnz	u1640
  2221  00087E  282E               	incf	___flmul@temp^0,w,c
  2222  000880  A0D8               	btfss	status,0,c
  2223  000882  EF45  F004         	goto	u1641
  2224  000886  EF47  F004         	goto	u1640
  2225  00088A                     u1641:
  2226  00088A  EF51  F004         	goto	l1790
  2227  00088E                     u1640:
  2228  00088E  0E00               	movlw	0
  2229  000890  6E2A               	movwf	___flmul@prod^0,c
  2230  000892  0E00               	movlw	0
  2231  000894  6E2B               	movwf	(___flmul@prod+1)^0,c
  2232  000896  0E80               	movlw	128
  2233  000898  6E2C               	movwf	(___flmul@prod+2)^0,c
  2234  00089A  0E7F               	movlw	127
  2235  00089C  6E2D               	movwf	(___flmul@prod+3)^0,c
  2236  00089E  EF7F  F004         	goto	l1802
  2237  0008A2                     l1790:
  2238  0008A2  BE2F               	btfsc	(___flmul@temp+1)^0,7,c
  2239  0008A4  EF5E  F004         	goto	u1650
  2240  0008A8  502F               	movf	(___flmul@temp+1)^0,w,c
  2241  0008AA  E106               	bnz	u1651
  2242  0008AC  042E               	decf	___flmul@temp^0,w,c
  2243  0008AE  B0D8               	btfsc	status,0,c
  2244  0008B0  EF5C  F004         	goto	u1651
  2245  0008B4  EF5E  F004         	goto	u1650
  2246  0008B8                     u1651:
  2247  0008B8  EF6A  F004         	goto	l760
  2248  0008BC                     u1650:
  2249  0008BC  0E00               	movlw	0
  2250  0008BE  6E2A               	movwf	___flmul@prod^0,c
  2251  0008C0  0E00               	movlw	0
  2252  0008C2  6E2B               	movwf	(___flmul@prod+1)^0,c
  2253  0008C4  0E00               	movlw	0
  2254  0008C6  6E2C               	movwf	(___flmul@prod+2)^0,c
  2255  0008C8  0E00               	movlw	0
  2256  0008CA  6E2D               	movwf	(___flmul@prod+3)^0,c
  2257  0008CC  0E00               	movlw	0
  2258  0008CE  6E23               	movwf	___flmul@sign^0,c
  2259  0008D0  EF7F  F004         	goto	l1802
  2260  0008D4                     l760:
  2261  0008D4  C02E  F029         	movff	___flmul@temp,___flmul@bexp
  2262  0008D8  0EFF               	movlw	255
  2263  0008DA  162A               	andwf	___flmul@prod^0,f,c
  2264  0008DC  0EFF               	movlw	255
  2265  0008DE  162B               	andwf	(___flmul@prod+1)^0,f,c
  2266  0008E0  0E7F               	movlw	127
  2267  0008E2  162C               	andwf	(___flmul@prod+2)^0,f,c
  2268  0008E4  0E00               	movlw	0
  2269  0008E6  162D               	andwf	(___flmul@prod+3)^0,f,c
  2270  0008E8  A029               	btfss	___flmul@bexp^0,0,c
  2271  0008EA  EF79  F004         	goto	u1661
  2272  0008EE  EF7B  F004         	goto	u1660
  2273  0008F2                     u1661:
  2274  0008F2  EF7C  F004         	goto	l1800
  2275  0008F6                     u1660:
  2276  0008F6  8E2C               	bsf	(___flmul@prod+2)^0,7,c
  2277  0008F8                     l1800:
  2278  0008F8  90D8               	bcf	status,0,c
  2279  0008FA  3029               	rrcf	___flmul@bexp^0,w,c
  2280  0008FC  6E2D               	movwf	(___flmul@prod+3)^0,c
  2281  0008FE                     l1802:
  2282  0008FE  5023               	movf	___flmul@sign^0,w,c
  2283  000900  122D               	iorwf	(___flmul@prod+3)^0,f,c
  2284  000902  C02A  F017         	movff	___flmul@prod,?___flmul
  2285  000906  C02B  F018         	movff	___flmul@prod+1,?___flmul+1
  2286  00090A  C02C  F019         	movff	___flmul@prod+2,?___flmul+2
  2287  00090E  C02D  F01A         	movff	___flmul@prod+3,?___flmul+3
  2288  000912                     l747:
  2289  000912  0012               	return		;funcret
  2290  000914                     __end_of___flmul:
  2291                           	callstack 0
  2292                           
  2293 ;; *************** function _Vibration_ON *****************
  2294 ;; Defined at:
  2295 ;;		line 66 in file "main.c"
  2296 ;; Parameters:    Size  Location     Type
  2297 ;;  percentage      2   33[COMRAM] unsigned int 
  2298 ;; Auto vars:     Size  Location     Type
  2299 ;;		None
  2300 ;; Return value:  Size  Location     Type
  2301 ;;                  1    wreg      void 
  2302 ;; Registers used:
  2303 ;;		wreg, status,2, status,0, cstack
  2304 ;; Tracked objects:
  2305 ;;		On entry : 0/0
  2306 ;;		On exit  : 0/0
  2307 ;;		Unchanged: 0/0
  2308 ;; Data sizes:     COMRAM   BANK0   BANK1   BANK2   BANK3   BANK4   BANK5
  2309 ;;      Params:         2       0       0       0       0       0       0
  2310 ;;      Locals:         0       0       0       0       0       0       0
  2311 ;;      Temps:          0       0       0       0       0       0       0
  2312 ;;      Totals:         2       0       0       0       0       0       0
  2313 ;;Total ram usage:        2 bytes
  2314 ;; Hardware stack levels used:    1
  2315 ;; Hardware stack levels required when called:    5
  2316 ;; This function calls:
  2317 ;;		_PWMSetDutyCycle
  2318 ;; This function is called by:
  2319 ;;		_main
  2320 ;; This function uses a non-reentrant model
  2321 ;;
  2322                           
  2323                           	psect	text6
  2324  0011B2                     __ptext6:
  2325                           	callstack 0
  2326  0011B2                     _Vibration_ON:
  2327                           	callstack 25
  2328  0011B2                     
  2329                           ;main.c: 70:    PWMSetDutyCycle(percentage);
  2330  0011B2  C022  F017         	movff	Vibration_ON@percentage,PWMSetDutyCycle@percentage
  2331  0011B6  C023  F018         	movff	Vibration_ON@percentage+1,PWMSetDutyCycle@percentage+1
  2332  0011BA  EC6C  F006         	call	_PWMSetDutyCycle	;wreg free
  2333  0011BE  0012               	return		;funcret
  2334  0011C0                     __end_of_Vibration_ON:
  2335                           	callstack 0
  2336                           
  2337 ;; *************** function _PWMSetDutyCycle *****************
  2338 ;; Defined at:
  2339 ;;		line 44 in file "main.c"
  2340 ;; Parameters:    Size  Location     Type
  2341 ;;  percentage      2   22[COMRAM] unsigned int 
  2342 ;; Auto vars:     Size  Location     Type
  2343 ;;  output          4   29[COMRAM] long 
  2344 ;; Return value:  Size  Location     Type
  2345 ;;                  1    wreg      void 
  2346 ;; Registers used:
  2347 ;;		wreg, status,2, status,0, cstack
  2348 ;; Tracked objects:
  2349 ;;		On entry : 0/0
  2350 ;;		On exit  : 0/0
  2351 ;;		Unchanged: 0/0
  2352 ;; Data sizes:     COMRAM   BANK0   BANK1   BANK2   BANK3   BANK4   BANK5
  2353 ;;      Params:         2       0       0       0       0       0       0
  2354 ;;      Locals:         4       0       0       0       0       0       0
  2355 ;;      Temps:          5       0       0       0       0       0       0
  2356 ;;      Totals:        11       0       0       0       0       0       0
  2357 ;;Total ram usage:       11 bytes
  2358 ;; Hardware stack levels used:    1
  2359 ;; Hardware stack levels required when called:    4
  2360 ;; This function calls:
  2361 ;;		___aldiv
  2362 ;;		___lmul
  2363 ;; This function is called by:
  2364 ;;		_Vibration_ON
  2365 ;; This function uses a non-reentrant model
  2366 ;;
  2367                           
  2368                           	psect	text7
  2369  000CD8                     __ptext7:
  2370                           	callstack 0
  2371  000CD8                     _PWMSetDutyCycle:
  2372                           	callstack 25
  2373  000CD8                     
  2374                           ;main.c: 46:     long output;;main.c: 48:     if (percentage > 100) {
  2375  000CD8  5018               	movf	(PWMSetDutyCycle@percentage+1)^0,w,c
  2376  000CDA  E109               	bnz	u1020
  2377  000CDC  0E65               	movlw	101
  2378  000CDE  5C17               	subwf	PWMSetDutyCycle@percentage^0,w,c
  2379  000CE0  A0D8               	btfss	status,0,c
  2380  000CE2  EF75  F006         	goto	u1021
  2381  000CE6  EF77  F006         	goto	u1020
  2382  000CEA                     u1021:
  2383  000CEA  EF79  F006         	goto	l1458
  2384  000CEE                     u1020:
  2385  000CEE  EF00  F007         	goto	l63
  2386  000CF2                     l1458:
  2387                           
  2388                           ;main.c: 52:     output = ((long) (PR2 + 1)) << 2;
  2389  000CF2  0E01               	movlw	1
  2390  000CF4  24CB               	addwf	203,w,c	;volatile
  2391  000CF6  6E19               	movwf	??_PWMSetDutyCycle^0,c
  2392  000CF8  6A1A               	clrf	(??_PWMSetDutyCycle+1)^0,c
  2393  000CFA  0E00               	movlw	0
  2394  000CFC  221A               	addwfc	(??_PWMSetDutyCycle+1)^0,f,c
  2395  000CFE  6A1B               	clrf	(??_PWMSetDutyCycle+2)^0,c
  2396  000D00  BE1A               	btfsc	(??_PWMSetDutyCycle+1)^0,7,c
  2397  000D02  061B               	decf	(??_PWMSetDutyCycle+2)^0,f,c
  2398  000D04  501B               	movf	(??_PWMSetDutyCycle+2)^0,w,c
  2399  000D06  6E1C               	movwf	(??_PWMSetDutyCycle+3)^0,c
  2400  000D08  0E02               	movlw	2
  2401  000D0A                     u1035:
  2402  000D0A  90D8               	bcf	status,0,c
  2403  000D0C  3619               	rlcf	??_PWMSetDutyCycle^0,f,c
  2404  000D0E  361A               	rlcf	(??_PWMSetDutyCycle+1)^0,f,c
  2405  000D10  361B               	rlcf	(??_PWMSetDutyCycle+2)^0,f,c
  2406  000D12  361C               	rlcf	(??_PWMSetDutyCycle+3)^0,f,c
  2407  000D14  2EE8               	decfsz	wreg,f,c
  2408  000D16  EF85  F006         	goto	u1035
  2409  000D1A  C019  F01E         	movff	??_PWMSetDutyCycle,PWMSetDutyCycle@output
  2410  000D1E  C01A  F01F         	movff	??_PWMSetDutyCycle+1,PWMSetDutyCycle@output+1
  2411  000D22  C01B  F020         	movff	??_PWMSetDutyCycle+2,PWMSetDutyCycle@output+2
  2412  000D26  C01C  F021         	movff	??_PWMSetDutyCycle+3,PWMSetDutyCycle@output+3
  2413  000D2A                     
  2414                           ;main.c: 53:     output= output * ((long) percentage);
  2415  000D2A  C017  F009         	movff	PWMSetDutyCycle@percentage,___lmul@multiplier
  2416  000D2E  C018  F00A         	movff	PWMSetDutyCycle@percentage+1,___lmul@multiplier+1
  2417  000D32  6A0B               	clrf	(___lmul@multiplier+2)^0,c
  2418  000D34  6A0C               	clrf	(___lmul@multiplier+3)^0,c
  2419  000D36  C01E  F00D         	movff	PWMSetDutyCycle@output,___lmul@multiplicand
  2420  000D3A  C01F  F00E         	movff	PWMSetDutyCycle@output+1,___lmul@multiplicand+1
  2421  000D3E  C020  F00F         	movff	PWMSetDutyCycle@output+2,___lmul@multiplicand+2
  2422  000D42  C021  F010         	movff	PWMSetDutyCycle@output+3,___lmul@multiplicand+3
  2423  000D46  EC0B  F008         	call	___lmul	;wreg free
  2424  000D4A  C009  F01E         	movff	?___lmul,PWMSetDutyCycle@output
  2425  000D4E  C00A  F01F         	movff	?___lmul+1,PWMSetDutyCycle@output+1
  2426  000D52  C00B  F020         	movff	?___lmul+2,PWMSetDutyCycle@output+2
  2427  000D56  C00C  F021         	movff	?___lmul+3,PWMSetDutyCycle@output+3
  2428  000D5A                     
  2429                           ;main.c: 54:     output = output / 100;
  2430  000D5A  C01E  F009         	movff	PWMSetDutyCycle@output,___aldiv@dividend
  2431  000D5E  C01F  F00A         	movff	PWMSetDutyCycle@output+1,___aldiv@dividend+1
  2432  000D62  C020  F00B         	movff	PWMSetDutyCycle@output+2,___aldiv@dividend+2
  2433  000D66  C021  F00C         	movff	PWMSetDutyCycle@output+3,___aldiv@dividend+3
  2434  000D6A  0E64               	movlw	100
  2435  000D6C  6E0D               	movwf	___aldiv@divisor^0,c
  2436  000D6E  0E00               	movlw	0
  2437  000D70  6E0E               	movwf	(___aldiv@divisor+1)^0,c
  2438  000D72  0E00               	movlw	0
  2439  000D74  6E0F               	movwf	(___aldiv@divisor+2)^0,c
  2440  000D76  0E00               	movlw	0
  2441  000D78  6E10               	movwf	(___aldiv@divisor+3)^0,c
  2442  000D7A  EC01  F007         	call	___aldiv	;wreg free
  2443  000D7E  C009  F01E         	movff	?___aldiv,PWMSetDutyCycle@output
  2444  000D82  C00A  F01F         	movff	?___aldiv+1,PWMSetDutyCycle@output+1
  2445  000D86  C00B  F020         	movff	?___aldiv+2,PWMSetDutyCycle@output+2
  2446  000D8A  C00C  F021         	movff	?___aldiv+3,PWMSetDutyCycle@output+3
  2447                           
  2448                           ;main.c: 56:     CCPR1L = output >> 2;
  2449  000D8E  0E02               	movlw	2
  2450  000D90  6E19               	movwf	??_PWMSetDutyCycle^0,c
  2451  000D92  C01E  F01A         	movff	PWMSetDutyCycle@output,??_PWMSetDutyCycle+1
  2452  000D96  C01F  F01B         	movff	PWMSetDutyCycle@output+1,??_PWMSetDutyCycle+2
  2453  000D9A  C020  F01C         	movff	PWMSetDutyCycle@output+2,??_PWMSetDutyCycle+3
  2454  000D9E  C021  F01D         	movff	PWMSetDutyCycle@output+3,??_PWMSetDutyCycle+4
  2455  000DA2                     u1045:
  2456  000DA2  6619               	tstfsz	??_PWMSetDutyCycle^0,c
  2457  000DA4  EFD6  F006         	goto	u1046
  2458  000DA8  EFDE  F006         	goto	u1047
  2459  000DAC                     u1046:
  2460  000DAC  341D               	rlcf	(??_PWMSetDutyCycle+4)^0,w,c
  2461  000DAE  321D               	rrcf	(??_PWMSetDutyCycle+4)^0,f,c
  2462  000DB0  321C               	rrcf	(??_PWMSetDutyCycle+3)^0,f,c
  2463  000DB2  321B               	rrcf	(??_PWMSetDutyCycle+2)^0,f,c
  2464  000DB4  321A               	rrcf	(??_PWMSetDutyCycle+1)^0,f,c
  2465  000DB6  2E19               	decfsz	??_PWMSetDutyCycle^0,f,c
  2466  000DB8  EFD1  F006         	goto	u1045
  2467  000DBC                     u1047:
  2468  000DBC  501A               	movf	(??_PWMSetDutyCycle+1)^0,w,c
  2469  000DBE  6EBE               	movwf	190,c	;volatile
  2470                           
  2471                           ;main.c: 57:     DC1B1 = (output & 2) >> 1;
  2472  000DC0  C01E  F019         	movff	PWMSetDutyCycle@output,??_PWMSetDutyCycle
  2473  000DC4  C01F  F01A         	movff	PWMSetDutyCycle@output+1,??_PWMSetDutyCycle+1
  2474  000DC8  C020  F01B         	movff	PWMSetDutyCycle@output+2,??_PWMSetDutyCycle+2
  2475  000DCC  C021  F01C         	movff	PWMSetDutyCycle@output+3,??_PWMSetDutyCycle+3
  2476  000DD0  341C               	rlcf	(??_PWMSetDutyCycle+3)^0,w,c
  2477  000DD2  321C               	rrcf	(??_PWMSetDutyCycle+3)^0,f,c
  2478  000DD4  321B               	rrcf	(??_PWMSetDutyCycle+2)^0,f,c
  2479  000DD6  321A               	rrcf	(??_PWMSetDutyCycle+1)^0,f,c
  2480  000DD8  3219               	rrcf	??_PWMSetDutyCycle^0,f,c
  2481  000DDA  3019               	rrcf	??_PWMSetDutyCycle^0,w,c
  2482  000DDC  B0D8               	btfsc	status,0,c
  2483  000DDE  EFF3  F006         	goto	u1051
  2484  000DE2  EFF6  F006         	goto	u1050
  2485  000DE6                     u1051:
  2486  000DE6  8ABD               	bsf	4029,5,c	;volatile
  2487  000DE8  EFF7  F006         	goto	u1065
  2488  000DEC                     u1050:
  2489  000DEC  9ABD               	bcf	4029,5,c	;volatile
  2490  000DEE                     u1065:
  2491  000DEE                     
  2492                           ;main.c: 58:     DC1B0 = (output & 1);
  2493  000DEE  B01E               	btfsc	PWMSetDutyCycle@output^0,0,c
  2494  000DF0  EFFC  F006         	goto	u1071
  2495  000DF4  EFFF  F006         	goto	u1070
  2496  000DF8                     u1071:
  2497  000DF8  88BD               	bsf	4029,4,c	;volatile
  2498  000DFA  EF00  F007         	goto	u1085
  2499  000DFE                     u1070:
  2500  000DFE  98BD               	bcf	4029,4,c	;volatile
  2501  000E00                     u1085:
  2502  000E00                     l63:
  2503  000E00  0012               	return		;funcret
  2504  000E02                     __end_of_PWMSetDutyCycle:
  2505                           	callstack 0
  2506                           
  2507 ;; *************** function ___lmul *****************
  2508 ;; Defined at:
  2509 ;;		line 15 in file "C:\Program Files\Microchip\xc8\v2.30\pic\sources\c99\common\Umul32.c"
  2510 ;; Parameters:    Size  Location     Type
  2511 ;;  multiplier      4    8[COMRAM] unsigned long 
  2512 ;;  multiplicand    4   12[COMRAM] unsigned long 
  2513 ;; Auto vars:     Size  Location     Type
  2514 ;;  product         4   16[COMRAM] unsigned long 
  2515 ;; Return value:  Size  Location     Type
  2516 ;;                  4    8[COMRAM] unsigned long 
  2517 ;; Registers used:
  2518 ;;		wreg, status,2, status,0
  2519 ;; Tracked objects:
  2520 ;;		On entry : 0/0
  2521 ;;		On exit  : 0/0
  2522 ;;		Unchanged: 0/0
  2523 ;; Data sizes:     COMRAM   BANK0   BANK1   BANK2   BANK3   BANK4   BANK5
  2524 ;;      Params:         8       0       0       0       0       0       0
  2525 ;;      Locals:         4       0       0       0       0       0       0
  2526 ;;      Temps:          0       0       0       0       0       0       0
  2527 ;;      Totals:        12       0       0       0       0       0       0
  2528 ;;Total ram usage:       12 bytes
  2529 ;; Hardware stack levels used:    1
  2530 ;; Hardware stack levels required when called:    3
  2531 ;; This function calls:
  2532 ;;		Nothing
  2533 ;; This function is called by:
  2534 ;;		_PWMSetDutyCycle
  2535 ;; This function uses a non-reentrant model
  2536 ;;
  2537                           
  2538                           	psect	text8
  2539  001016                     __ptext8:
  2540                           	callstack 0
  2541  001016                     ___lmul:
  2542                           	callstack 25
  2543  001016  0E00               	movlw	0
  2544  001018  6E11               	movwf	___lmul@product^0,c
  2545  00101A  0E00               	movlw	0
  2546  00101C  6E12               	movwf	(___lmul@product+1)^0,c
  2547  00101E  0E00               	movlw	0
  2548  001020  6E13               	movwf	(___lmul@product+2)^0,c
  2549  001022  0E00               	movlw	0
  2550  001024  6E14               	movwf	(___lmul@product+3)^0,c
  2551  001026                     l1402:
  2552  001026  A009               	btfss	___lmul@multiplier^0,0,c
  2553  001028  EF18  F008         	goto	u941
  2554  00102C  EF1A  F008         	goto	u940
  2555  001030                     u941:
  2556  001030  EF22  F008         	goto	l1406
  2557  001034                     u940:
  2558  001034  500D               	movf	___lmul@multiplicand^0,w,c
  2559  001036  2611               	addwf	___lmul@product^0,f,c
  2560  001038  500E               	movf	(___lmul@multiplicand+1)^0,w,c
  2561  00103A  2212               	addwfc	(___lmul@product+1)^0,f,c
  2562  00103C  500F               	movf	(___lmul@multiplicand+2)^0,w,c
  2563  00103E  2213               	addwfc	(___lmul@product+2)^0,f,c
  2564  001040  5010               	movf	(___lmul@multiplicand+3)^0,w,c
  2565  001042  2214               	addwfc	(___lmul@product+3)^0,f,c
  2566  001044                     l1406:
  2567  001044  90D8               	bcf	status,0,c
  2568  001046  360D               	rlcf	___lmul@multiplicand^0,f,c
  2569  001048  360E               	rlcf	(___lmul@multiplicand+1)^0,f,c
  2570  00104A  360F               	rlcf	(___lmul@multiplicand+2)^0,f,c
  2571  00104C  3610               	rlcf	(___lmul@multiplicand+3)^0,f,c
  2572  00104E  90D8               	bcf	status,0,c
  2573  001050  320C               	rrcf	(___lmul@multiplier+3)^0,f,c
  2574  001052  320B               	rrcf	(___lmul@multiplier+2)^0,f,c
  2575  001054  320A               	rrcf	(___lmul@multiplier+1)^0,f,c
  2576  001056  3209               	rrcf	___lmul@multiplier^0,f,c
  2577  001058  5009               	movf	___lmul@multiplier^0,w,c
  2578  00105A  100A               	iorwf	(___lmul@multiplier+1)^0,w,c
  2579  00105C  100B               	iorwf	(___lmul@multiplier+2)^0,w,c
  2580  00105E  100C               	iorwf	(___lmul@multiplier+3)^0,w,c
  2581  001060  A4D8               	btfss	status,2,c
  2582  001062  EF35  F008         	goto	u951
  2583  001066  EF37  F008         	goto	u950
  2584  00106A                     u951:
  2585  00106A  EF13  F008         	goto	l1402
  2586  00106E                     u950:
  2587  00106E  C011  F009         	movff	___lmul@product,?___lmul
  2588  001072  C012  F00A         	movff	___lmul@product+1,?___lmul+1
  2589  001076  C013  F00B         	movff	___lmul@product+2,?___lmul+2
  2590  00107A  C014  F00C         	movff	___lmul@product+3,?___lmul+3
  2591  00107E  0012               	return		;funcret
  2592  001080                     __end_of___lmul:
  2593                           	callstack 0
  2594                           
  2595 ;; *************** function ___aldiv *****************
  2596 ;; Defined at:
  2597 ;;		line 7 in file "C:\Program Files\Microchip\xc8\v2.30\pic\sources\c99\common\aldiv.c"
  2598 ;; Parameters:    Size  Location     Type
  2599 ;;  dividend        4    8[COMRAM] long 
  2600 ;;  divisor         4   12[COMRAM] long 
  2601 ;; Auto vars:     Size  Location     Type
  2602 ;;  quotient        4   18[COMRAM] long 
  2603 ;;  sign            1   17[COMRAM] unsigned char 
  2604 ;;  counter         1   16[COMRAM] unsigned char 
  2605 ;; Return value:  Size  Location     Type
  2606 ;;                  4    8[COMRAM] long 
  2607 ;; Registers used:
  2608 ;;		wreg, status,2, status,0
  2609 ;; Tracked objects:
  2610 ;;		On entry : 0/0
  2611 ;;		On exit  : 0/0
  2612 ;;		Unchanged: 0/0
  2613 ;; Data sizes:     COMRAM   BANK0   BANK1   BANK2   BANK3   BANK4   BANK5
  2614 ;;      Params:         8       0       0       0       0       0       0
  2615 ;;      Locals:         6       0       0       0       0       0       0
  2616 ;;      Temps:          0       0       0       0       0       0       0
  2617 ;;      Totals:        14       0       0       0       0       0       0
  2618 ;;Total ram usage:       14 bytes
  2619 ;; Hardware stack levels used:    1
  2620 ;; Hardware stack levels required when called:    3
  2621 ;; This function calls:
  2622 ;;		Nothing
  2623 ;; This function is called by:
  2624 ;;		_PWMSetDutyCycle
  2625 ;; This function uses a non-reentrant model
  2626 ;;
  2627                           
  2628                           	psect	text9
  2629  000E02                     __ptext9:
  2630                           	callstack 0
  2631  000E02                     ___aldiv:
  2632                           	callstack 25
  2633  000E02  0E00               	movlw	0
  2634  000E04  6E12               	movwf	___aldiv@sign^0,c
  2635  000E06  BE10               	btfsc	(___aldiv@divisor+3)^0,7,c
  2636  000E08  EF0A  F007         	goto	u960
  2637  000E0C  EF08  F007         	goto	u961
  2638  000E10                     u961:
  2639  000E10  EF14  F007         	goto	l1418
  2640  000E14                     u960:
  2641  000E14  1E10               	comf	(___aldiv@divisor+3)^0,f,c
  2642  000E16  1E0F               	comf	(___aldiv@divisor+2)^0,f,c
  2643  000E18  1E0E               	comf	(___aldiv@divisor+1)^0,f,c
  2644  000E1A  6C0D               	negf	___aldiv@divisor^0,c
  2645  000E1C  0E00               	movlw	0
  2646  000E1E  220E               	addwfc	(___aldiv@divisor+1)^0,f,c
  2647  000E20  220F               	addwfc	(___aldiv@divisor+2)^0,f,c
  2648  000E22  2210               	addwfc	(___aldiv@divisor+3)^0,f,c
  2649  000E24  0E01               	movlw	1
  2650  000E26  6E12               	movwf	___aldiv@sign^0,c
  2651  000E28                     l1418:
  2652  000E28  BE0C               	btfsc	(___aldiv@dividend+3)^0,7,c
  2653  000E2A  EF1B  F007         	goto	u970
  2654  000E2E  EF19  F007         	goto	u971
  2655  000E32                     u971:
  2656  000E32  EF25  F007         	goto	l1424
  2657  000E36                     u970:
  2658  000E36  1E0C               	comf	(___aldiv@dividend+3)^0,f,c
  2659  000E38  1E0B               	comf	(___aldiv@dividend+2)^0,f,c
  2660  000E3A  1E0A               	comf	(___aldiv@dividend+1)^0,f,c
  2661  000E3C  6C09               	negf	___aldiv@dividend^0,c
  2662  000E3E  0E00               	movlw	0
  2663  000E40  220A               	addwfc	(___aldiv@dividend+1)^0,f,c
  2664  000E42  220B               	addwfc	(___aldiv@dividend+2)^0,f,c
  2665  000E44  220C               	addwfc	(___aldiv@dividend+3)^0,f,c
  2666  000E46  0E01               	movlw	1
  2667  000E48  1A12               	xorwf	___aldiv@sign^0,f,c
  2668  000E4A                     l1424:
  2669  000E4A  0E00               	movlw	0
  2670  000E4C  6E13               	movwf	___aldiv@quotient^0,c
  2671  000E4E  0E00               	movlw	0
  2672  000E50  6E14               	movwf	(___aldiv@quotient+1)^0,c
  2673  000E52  0E00               	movlw	0
  2674  000E54  6E15               	movwf	(___aldiv@quotient+2)^0,c
  2675  000E56  0E00               	movlw	0
  2676  000E58  6E16               	movwf	(___aldiv@quotient+3)^0,c
  2677  000E5A  500D               	movf	___aldiv@divisor^0,w,c
  2678  000E5C  100E               	iorwf	(___aldiv@divisor+1)^0,w,c
  2679  000E5E  100F               	iorwf	(___aldiv@divisor+2)^0,w,c
  2680  000E60  1010               	iorwf	(___aldiv@divisor+3)^0,w,c
  2681  000E62  B4D8               	btfsc	status,2,c
  2682  000E64  EF36  F007         	goto	u981
  2683  000E68  EF38  F007         	goto	u980
  2684  000E6C                     u981:
  2685  000E6C  EF6E  F007         	goto	l1446
  2686  000E70                     u980:
  2687  000E70  0E01               	movlw	1
  2688  000E72  6E11               	movwf	___aldiv@counter^0,c
  2689  000E74  EF42  F007         	goto	l1432
  2690  000E78                     l1430:
  2691  000E78  90D8               	bcf	status,0,c
  2692  000E7A  360D               	rlcf	___aldiv@divisor^0,f,c
  2693  000E7C  360E               	rlcf	(___aldiv@divisor+1)^0,f,c
  2694  000E7E  360F               	rlcf	(___aldiv@divisor+2)^0,f,c
  2695  000E80  3610               	rlcf	(___aldiv@divisor+3)^0,f,c
  2696  000E82  2A11               	incf	___aldiv@counter^0,f,c
  2697  000E84                     l1432:
  2698  000E84  AE10               	btfss	(___aldiv@divisor+3)^0,7,c
  2699  000E86  EF47  F007         	goto	u991
  2700  000E8A  EF49  F007         	goto	u990
  2701  000E8E                     u991:
  2702  000E8E  EF3C  F007         	goto	l1430
  2703  000E92                     u990:
  2704  000E92                     l1434:
  2705  000E92  90D8               	bcf	status,0,c
  2706  000E94  3613               	rlcf	___aldiv@quotient^0,f,c
  2707  000E96  3614               	rlcf	(___aldiv@quotient+1)^0,f,c
  2708  000E98  3615               	rlcf	(___aldiv@quotient+2)^0,f,c
  2709  000E9A  3616               	rlcf	(___aldiv@quotient+3)^0,f,c
  2710  000E9C  500D               	movf	___aldiv@divisor^0,w,c
  2711  000E9E  5C09               	subwf	___aldiv@dividend^0,w,c
  2712  000EA0  500E               	movf	(___aldiv@divisor+1)^0,w,c
  2713  000EA2  580A               	subwfb	(___aldiv@dividend+1)^0,w,c
  2714  000EA4  500F               	movf	(___aldiv@divisor+2)^0,w,c
  2715  000EA6  580B               	subwfb	(___aldiv@dividend+2)^0,w,c
  2716  000EA8  5010               	movf	(___aldiv@divisor+3)^0,w,c
  2717  000EAA  580C               	subwfb	(___aldiv@dividend+3)^0,w,c
  2718  000EAC  A0D8               	btfss	status,0,c
  2719  000EAE  EF5B  F007         	goto	u1001
  2720  000EB2  EF5D  F007         	goto	u1000
  2721  000EB6                     u1001:
  2722  000EB6  EF66  F007         	goto	l1442
  2723  000EBA                     u1000:
  2724  000EBA  500D               	movf	___aldiv@divisor^0,w,c
  2725  000EBC  5E09               	subwf	___aldiv@dividend^0,f,c
  2726  000EBE  500E               	movf	(___aldiv@divisor+1)^0,w,c
  2727  000EC0  5A0A               	subwfb	(___aldiv@dividend+1)^0,f,c
  2728  000EC2  500F               	movf	(___aldiv@divisor+2)^0,w,c
  2729  000EC4  5A0B               	subwfb	(___aldiv@dividend+2)^0,f,c
  2730  000EC6  5010               	movf	(___aldiv@divisor+3)^0,w,c
  2731  000EC8  5A0C               	subwfb	(___aldiv@dividend+3)^0,f,c
  2732  000ECA  8013               	bsf	___aldiv@quotient^0,0,c
  2733  000ECC                     l1442:
  2734  000ECC  90D8               	bcf	status,0,c
  2735  000ECE  3210               	rrcf	(___aldiv@divisor+3)^0,f,c
  2736  000ED0  320F               	rrcf	(___aldiv@divisor+2)^0,f,c
  2737  000ED2  320E               	rrcf	(___aldiv@divisor+1)^0,f,c
  2738  000ED4  320D               	rrcf	___aldiv@divisor^0,f,c
  2739  000ED6  2E11               	decfsz	___aldiv@counter^0,f,c
  2740  000ED8  EF49  F007         	goto	l1434
  2741  000EDC                     l1446:
  2742  000EDC  5012               	movf	___aldiv@sign^0,w,c
  2743  000EDE  B4D8               	btfsc	status,2,c
  2744  000EE0  EF74  F007         	goto	u1011
  2745  000EE4  EF76  F007         	goto	u1010
  2746  000EE8                     u1011:
  2747  000EE8  EF7E  F007         	goto	l1450
  2748  000EEC                     u1010:
  2749  000EEC  1E16               	comf	(___aldiv@quotient+3)^0,f,c
  2750  000EEE  1E15               	comf	(___aldiv@quotient+2)^0,f,c
  2751  000EF0  1E14               	comf	(___aldiv@quotient+1)^0,f,c
  2752  000EF2  6C13               	negf	___aldiv@quotient^0,c
  2753  000EF4  0E00               	movlw	0
  2754  000EF6  2214               	addwfc	(___aldiv@quotient+1)^0,f,c
  2755  000EF8  2215               	addwfc	(___aldiv@quotient+2)^0,f,c
  2756  000EFA  2216               	addwfc	(___aldiv@quotient+3)^0,f,c
  2757  000EFC                     l1450:
  2758  000EFC  C013  F009         	movff	___aldiv@quotient,?___aldiv
  2759  000F00  C014  F00A         	movff	___aldiv@quotient+1,?___aldiv+1
  2760  000F04  C015  F00B         	movff	___aldiv@quotient+2,?___aldiv+2
  2761  000F08  C016  F00C         	movff	___aldiv@quotient+3,?___aldiv+3
  2762  000F0C  0012               	return		;funcret
  2763  000F0E                     __end_of___aldiv:
  2764                           	callstack 0
  2765                           
  2766 ;; *************** function _Init_ADC *****************
  2767 ;; Defined at:
  2768 ;;		line 8 in file "ADC.c"
  2769 ;; Parameters:    Size  Location     Type
  2770 ;;		None
  2771 ;; Auto vars:     Size  Location     Type
  2772 ;;		None
  2773 ;; Return value:  Size  Location     Type
  2774 ;;                  1    wreg      void 
  2775 ;; Registers used:
  2776 ;;		None
  2777 ;; Tracked objects:
  2778 ;;		On entry : 0/0
  2779 ;;		On exit  : 0/0
  2780 ;;		Unchanged: 0/0
  2781 ;; Data sizes:     COMRAM   BANK0   BANK1   BANK2   BANK3   BANK4   BANK5
  2782 ;;      Params:         0       0       0       0       0       0       0
  2783 ;;      Locals:         0       0       0       0       0       0       0
  2784 ;;      Temps:          0       0       0       0       0       0       0
  2785 ;;      Totals:         0       0       0       0       0       0       0
  2786 ;;Total ram usage:        0 bytes
  2787 ;; Hardware stack levels used:    1
  2788 ;; Hardware stack levels required when called:    3
  2789 ;; This function calls:
  2790 ;;		Nothing
  2791 ;; This function is called by:
  2792 ;;		_main
  2793 ;; This function uses a non-reentrant model
  2794 ;;
  2795                           
  2796                           	psect	text10
  2797  001174                     __ptext10:
  2798                           	callstack 0
  2799  001174                     _Init_ADC:
  2800                           	callstack 27
  2801  001174                     
  2802                           ;ADC.c: 10:     TRISAbits.RA0 = 1;
  2803  001174  8092               	bsf	146,0,c	;volatile
  2804                           
  2805                           ;ADC.c: 12:     ANSELbits.ANS0 = 1;
  2806  001176  807E               	bsf	126,0,c	;volatile
  2807                           
  2808                           ;ADC.c: 13:     ADCON2bits.ADFM = 0;
  2809  001178  9EC0               	bcf	192,7,c	;volatile
  2810                           
  2811                           ;ADC.c: 15:     ADCON2bits.ACQT2 = 1;
  2812  00117A  8AC0               	bsf	192,5,c	;volatile
  2813                           
  2814                           ;ADC.c: 16:     ADCON2bits.ACQT1 = 0;
  2815  00117C  98C0               	bcf	192,4,c	;volatile
  2816                           
  2817                           ;ADC.c: 17:     ADCON2bits.ACQT0 = 1;
  2818  00117E  86C0               	bsf	192,3,c	;volatile
  2819                           
  2820                           ;ADC.c: 19:     ADCON2bits.ADCS2 = 0;
  2821  001180  94C0               	bcf	192,2,c	;volatile
  2822                           
  2823                           ;ADC.c: 20:     ADCON2bits.ADCS1 = 1;
  2824  001182  82C0               	bsf	192,1,c	;volatile
  2825                           
  2826                           ;ADC.c: 21:     ADCON2bits.ADCS0 = 1;
  2827  001184  80C0               	bsf	192,0,c	;volatile
  2828                           
  2829                           ;ADC.c: 23:     ADCON1bits.VCFG1 = 0;
  2830  001186  9AC1               	bcf	193,5,c	;volatile
  2831                           
  2832                           ;ADC.c: 24:     ADCON1bits.VCFG0 = 0;
  2833  001188  98C1               	bcf	193,4,c	;volatile
  2834                           
  2835                           ;ADC.c: 26:     ADCON0bits.CHS3=0;
  2836  00118A  9AC2               	bcf	194,5,c	;volatile
  2837                           
  2838                           ;ADC.c: 27:     ADCON0bits.CHS2=0;
  2839  00118C  98C2               	bcf	194,4,c	;volatile
  2840                           
  2841                           ;ADC.c: 28:     ADCON0bits.CHS1=0;
  2842  00118E  96C2               	bcf	194,3,c	;volatile
  2843                           
  2844                           ;ADC.c: 29:     ADCON0bits.CHS0=0;
  2845  001190  94C2               	bcf	194,2,c	;volatile
  2846                           
  2847                           ;ADC.c: 31:     ADCON0bits.ADON = 1;
  2848  001192  80C2               	bsf	194,0,c	;volatile
  2849  001194  0012               	return		;funcret
  2850  001196                     __end_of_Init_ADC:
  2851                           	callstack 0
  2852                           
  2853 ;; *************** function _InitApp *****************
  2854 ;; Defined at:
  2855 ;;		line 28 in file "user.c"
  2856 ;; Parameters:    Size  Location     Type
  2857 ;;		None
  2858 ;; Auto vars:     Size  Location     Type
  2859 ;;		None
  2860 ;; Return value:  Size  Location     Type
  2861 ;;                  1    wreg      void 
  2862 ;; Registers used:
  2863 ;;		wreg, status,2
  2864 ;; Tracked objects:
  2865 ;;		On entry : 0/0
  2866 ;;		On exit  : 0/0
  2867 ;;		Unchanged: 0/0
  2868 ;; Data sizes:     COMRAM   BANK0   BANK1   BANK2   BANK3   BANK4   BANK5
  2869 ;;      Params:         0       0       0       0       0       0       0
  2870 ;;      Locals:         0       0       0       0       0       0       0
  2871 ;;      Temps:          0       0       0       0       0       0       0
  2872 ;;      Totals:         0       0       0       0       0       0       0
  2873 ;;Total ram usage:        0 bytes
  2874 ;; Hardware stack levels used:    1
  2875 ;; Hardware stack levels required when called:    3
  2876 ;; This function calls:
  2877 ;;		Nothing
  2878 ;; This function is called by:
  2879 ;;		_main
  2880 ;; This function uses a non-reentrant model
  2881 ;;
  2882                           
  2883                           	psect	text11
  2884  0010C6                     __ptext11:
  2885                           	callstack 0
  2886  0010C6                     _InitApp:
  2887                           	callstack 27
  2888  0010C6                     
  2889                           ;user.c: 34:     TRISDbits.RD0 = 0;
  2890  0010C6  9095               	bcf	149,0,c	;volatile
  2891                           
  2892                           ;user.c: 35:     TRISDbits.RD1 = 0;
  2893  0010C8  9295               	bcf	149,1,c	;volatile
  2894                           
  2895                           ;user.c: 36:     TRISDbits.RD7 = 0;
  2896  0010CA  9E95               	bcf	149,7,c	;volatile
  2897                           
  2898                           ;user.c: 37:     TRISAbits.RA0 = 1;
  2899  0010CC  8092               	bsf	146,0,c	;volatile
  2900                           
  2901                           ;user.c: 38:     TRISBbits.RB0 = 1;
  2902  0010CE  8093               	bsf	147,0,c	;volatile
  2903                           
  2904                           ;user.c: 44:     T2CONbits.T2CKPS1 = 1;
  2905  0010D0  82CA               	bsf	202,1,c	;volatile
  2906                           
  2907                           ;user.c: 45:     T2CONbits.TMR2ON = 1;
  2908  0010D2  84CA               	bsf	202,2,c	;volatile
  2909  0010D4                     
  2910                           ;user.c: 46:     PR2 = 194;
  2911  0010D4  0EC2               	movlw	194
  2912  0010D6  6ECB               	movwf	203,c	;volatile
  2913                           
  2914                           ;user.c: 48:     CCP1CONbits.CCP1M = 0x0c;
  2915  0010D8  50BD               	movf	189,w,c	;volatile
  2916  0010DA  0BF0               	andlw	-16
  2917  0010DC  090C               	iorlw	12
  2918  0010DE  6EBD               	movwf	189,c	;volatile
  2919  0010E0                     
  2920                           ;user.c: 50:     CCP1CONbits.P1M1 = 0;
  2921  0010E0  9EBD               	bcf	189,7,c	;volatile
  2922  0010E2                     
  2923                           ;user.c: 51:     CCP1CONbits.P1M0 = 1;
  2924  0010E2  8CBD               	bsf	189,6,c	;volatile
  2925                           
  2926                           ;user.c: 53:     CCPR1L = 0x61;
  2927  0010E4  0E61               	movlw	97
  2928  0010E6  6EBE               	movwf	190,c	;volatile
  2929  0010E8                     
  2930                           ;user.c: 54:     CCP1CONbits.DC1B1 = 1;
  2931  0010E8  8ABD               	bsf	189,5,c	;volatile
  2932  0010EA                     
  2933                           ;user.c: 55:     CCP1CONbits.DC1B0 = 0;
  2934  0010EA  98BD               	bcf	189,4,c	;volatile
  2935  0010EC                     
  2936                           ;user.c: 59:     ANSELHbits.ANS12 = 0;
  2937  0010EC  987F               	bcf	127,4,c	;volatile
  2938  0010EE                     
  2939                           ;user.c: 60:     RCONbits.IPEN = 1;
  2940  0010EE  8ED0               	bsf	208,7,c	;volatile
  2941  0010F0                     
  2942                           ;user.c: 61:     INTCONbits.GIE = 1;
  2943  0010F0  8EF2               	bsf	242,7,c	;volatile
  2944  0010F2                     
  2945                           ;user.c: 62:     INTCONbits.INT0IE=1;
  2946  0010F2  88F2               	bsf	242,4,c	;volatile
  2947  0010F4                     
  2948                           ;user.c: 63:     INTCONbits.INT0IF=0;
  2949  0010F4  92F2               	bcf	242,1,c	;volatile
  2950  0010F6                     
  2951                           ;user.c: 64:     INTCON2bits.INTEDG0 = 1;
  2952  0010F6  8CF1               	bsf	241,6,c	;volatile
  2953  0010F8  0012               	return		;funcret
  2954  0010FA                     __end_of_InitApp:
  2955                           	callstack 0
  2956                           
  2957 ;; *************** function _ConfigureOscillator *****************
  2958 ;; Defined at:
  2959 ;;		line 24 in file "system.c"
  2960 ;; Parameters:    Size  Location     Type
  2961 ;;		None
  2962 ;; Auto vars:     Size  Location     Type
  2963 ;;		None
  2964 ;; Return value:  Size  Location     Type
  2965 ;;                  1    wreg      void 
  2966 ;; Registers used:
  2967 ;;		None
  2968 ;; Tracked objects:
  2969 ;;		On entry : 0/0
  2970 ;;		On exit  : 0/0
  2971 ;;		Unchanged: 0/0
  2972 ;; Data sizes:     COMRAM   BANK0   BANK1   BANK2   BANK3   BANK4   BANK5
  2973 ;;      Params:         0       0       0       0       0       0       0
  2974 ;;      Locals:         0       0       0       0       0       0       0
  2975 ;;      Temps:          0       0       0       0       0       0       0
  2976 ;;      Totals:         0       0       0       0       0       0       0
  2977 ;;Total ram usage:        0 bytes
  2978 ;; Hardware stack levels used:    1
  2979 ;; Hardware stack levels required when called:    3
  2980 ;; This function calls:
  2981 ;;		Nothing
  2982 ;; This function is called by:
  2983 ;;		_main
  2984 ;; This function uses a non-reentrant model
  2985 ;;
  2986                           
  2987                           	psect	text12
  2988  0011C0                     __ptext12:
  2989                           	callstack 0
  2990  0011C0                     _ConfigureOscillator:
  2991                           	callstack 27
  2992  0011C0  0012               	return		;funcret
  2993  0011C2                     __end_of_ConfigureOscillator:
  2994                           	callstack 0
  2995                           
  2996 ;; *************** function _ADCRead_Pos *****************
  2997 ;; Defined at:
  2998 ;;		line 41 in file "ADC.c"
  2999 ;; Parameters:    Size  Location     Type
  3000 ;;		None
  3001 ;; Auto vars:     Size  Location     Type
  3002 ;;  temp            2   12[COMRAM] unsigned int 
  3003 ;; Return value:  Size  Location     Type
  3004 ;;                  2    8[COMRAM] unsigned int 
  3005 ;; Registers used:
  3006 ;;		wreg, status,2, status,0
  3007 ;; Tracked objects:
  3008 ;;		On entry : 0/0
  3009 ;;		On exit  : 0/0
  3010 ;;		Unchanged: 0/0
  3011 ;; Data sizes:     COMRAM   BANK0   BANK1   BANK2   BANK3   BANK4   BANK5
  3012 ;;      Params:         2       0       0       0       0       0       0
  3013 ;;      Locals:         2       0       0       0       0       0       0
  3014 ;;      Temps:          2       0       0       0       0       0       0
  3015 ;;      Totals:         6       0       0       0       0       0       0
  3016 ;;Total ram usage:        6 bytes
  3017 ;; Hardware stack levels used:    1
  3018 ;; Hardware stack levels required when called:    3
  3019 ;; This function calls:
  3020 ;;		Nothing
  3021 ;; This function is called by:
  3022 ;;		_main
  3023 ;; This function uses a non-reentrant model
  3024 ;;
  3025                           
  3026                           	psect	text13
  3027  00112C                     __ptext13:
  3028                           	callstack 0
  3029  00112C                     _ADCRead_Pos:
  3030                           	callstack 27
  3031  00112C                     
  3032                           ;ADC.c: 44:   GO = 1;
  3033  00112C  82C2               	bsf	4034,1,c	;volatile
  3034                           
  3035                           ;ADC.c: 45:   unsigned int temp;;ADC.c: 47:   temp = ADRESL;
  3036  00112E  CFC3 F00D          	movff	4035,ADCRead_Pos@temp	;volatile
  3037  001132  6A0E               	clrf	(ADCRead_Pos@temp+1)^0,c
  3038  001134                     
  3039                           ;ADC.c: 48:   temp = temp + (ADRESH << 8);
  3040  001134  50C4               	movf	196,w,c	;volatile
  3041  001136  6E0C               	movwf	(??_ADCRead_Pos+1)^0,c
  3042  001138  6A0B               	clrf	??_ADCRead_Pos^0,c
  3043  00113A  500D               	movf	ADCRead_Pos@temp^0,w,c
  3044  00113C  240B               	addwf	??_ADCRead_Pos^0,w,c
  3045  00113E  6E0D               	movwf	ADCRead_Pos@temp^0,c
  3046  001140  500E               	movf	(ADCRead_Pos@temp+1)^0,w,c
  3047  001142  200C               	addwfc	(??_ADCRead_Pos+1)^0,w,c
  3048  001144  6E0E               	movwf	(ADCRead_Pos@temp+1)^0,c
  3049  001146                     
  3050                           ;ADC.c: 49:   return temp;
  3051  001146  C00D  F009         	movff	ADCRead_Pos@temp,?_ADCRead_Pos
  3052  00114A  C00E  F00A         	movff	ADCRead_Pos@temp+1,?_ADCRead_Pos+1
  3053  00114E  0012               	return		;funcret
  3054  001150                     __end_of_ADCRead_Pos:
  3055                           	callstack 0
  3056                           
  3057 ;; *************** function _low_isr *****************
  3058 ;; Defined at:
  3059 ;;		line 88 in file "interrupts.c"
  3060 ;; Parameters:    Size  Location     Type
  3061 ;;		None
  3062 ;; Auto vars:     Size  Location     Type
  3063 ;;		None
  3064 ;; Return value:  Size  Location     Type
  3065 ;;                  1    wreg      void 
  3066 ;; Registers used:
  3067 ;;		None
  3068 ;; Tracked objects:
  3069 ;;		On entry : 0/0
  3070 ;;		On exit  : 0/0
  3071 ;;		Unchanged: 0/0
  3072 ;; Data sizes:     COMRAM   BANK0   BANK1   BANK2   BANK3   BANK4   BANK5
  3073 ;;      Params:         0       0       0       0       0       0       0
  3074 ;;      Locals:         0       0       0       0       0       0       0
  3075 ;;      Temps:          1       0       0       0       0       0       0
  3076 ;;      Totals:         1       0       0       0       0       0       0
  3077 ;;Total ram usage:        1 bytes
  3078 ;; Hardware stack levels used:    1
  3079 ;; Hardware stack levels required when called:    2
  3080 ;; This function calls:
  3081 ;;		Nothing
  3082 ;; This function is called by:
  3083 ;;		Interrupt level 1
  3084 ;; This function uses a non-reentrant model
  3085 ;;
  3086                           
  3087                           	psect	intcodelo
  3088  000018                     __pintcodelo:
  3089                           	callstack 0
  3090  000018                     _low_isr:
  3091                           	callstack 25
  3092                           
  3093                           ;incstack = 0
  3094  000018  8056               	bsf	int$flags,0,c	;set compiler interrupt flag (level 1)
  3095  00001A  CFE0 F008          	movff	bsr,??_low_isr
  3096  00001E  C008  FFE0         	movff	??_low_isr,bsr
  3097  000022  9056               	bcf	int$flags,0,c	;clear compiler interrupt flag (level 1)
  3098  000024  0010               	retfie	
  3099  000026                     __end_of_low_isr:
  3100                           	callstack 0
  3101                           
  3102 ;; *************** function _high_isr *****************
  3103 ;; Defined at:
  3104 ;;		line 35 in file "interrupts.c"
  3105 ;; Parameters:    Size  Location     Type
  3106 ;;		None
  3107 ;; Auto vars:     Size  Location     Type
  3108 ;;		None
  3109 ;; Return value:  Size  Location     Type
  3110 ;;                  1    wreg      void 
  3111 ;; Registers used:
  3112 ;;		wreg, status,2, status,0, cstack
  3113 ;; Tracked objects:
  3114 ;;		On entry : 0/0
  3115 ;;		On exit  : 0/0
  3116 ;;		Unchanged: 0/0
  3117 ;; Data sizes:     COMRAM   BANK0   BANK1   BANK2   BANK3   BANK4   BANK5
  3118 ;;      Params:         0       0       0       0       0       0       0
  3119 ;;      Locals:         0       0       0       0       0       0       0
  3120 ;;      Temps:          1       0       0       0       0       0       0
  3121 ;;      Totals:         1       0       0       0       0       0       0
  3122 ;;Total ram usage:        1 bytes
  3123 ;; Hardware stack levels used:    1
  3124 ;; Hardware stack levels required when called:    1
  3125 ;; This function calls:
  3126 ;;		i2_ADCRead_Pos
  3127 ;; This function is called by:
  3128 ;;		Interrupt level 2
  3129 ;; This function uses a non-reentrant model
  3130 ;;
  3131                           
  3132                           	psect	intcode
  3133  000008                     __pintcode:
  3134                           	callstack 0
  3135  000008                     _high_isr:
  3136                           	callstack 25
  3137                           
  3138                           ;incstack = 0
  3139  000008  8256               	bsf	int$flags,1,c	;set compiler interrupt flag (level 2)
  3140  00000A  EF7D  F008         	goto	int_func
  3141                           
  3142                           	psect	intcode_body
  3143  0010FA                     __pintcode_body:
  3144                           	callstack 25
  3145  0010FA                     int_func:
  3146                           	callstack 25
  3147  0010FA                     
  3148                           ;interrupts.c: 48:     if(INTCONbits.INT0IF==1){
  3149  0010FA  A2F2               	btfss	242,1,c	;volatile
  3150  0010FC  EF82  F008         	goto	i2u184_41
  3151  001100  EF84  F008         	goto	i2u184_40
  3152  001104                     i2u184_41:
  3153  001104  EF94  F008         	goto	i2l22
  3154  001108                     i2u184_40:
  3155  001108                     
  3156                           ;interrupts.c: 50:         PORTDbits.RD1=1;
  3157  001108  8283               	bsf	131,1,c	;volatile
  3158  00110A                     
  3159                           ;interrupts.c: 51:         _delay((unsigned long)((20)*(8000000/4000.0)));
  3160  00110A  0E34               	movlw	52
  3161  00110C  6E07               	movwf	??_high_isr^0,c
  3162  00110E  0EF2               	movlw	242
  3163  001110                     i2u200_47:
  3164  001110  2EE8               	decfsz	wreg,f,c
  3165  001112  D7FE               	bra	i2u200_47
  3166  001114  2E07               	decfsz	??_high_isr^0,f,c
  3167  001116  D7FC               	bra	i2u200_47
  3168  001118                     
  3169                           ;interrupts.c: 52:         neutral_pos = ADCRead_Pos();
  3170  001118  ECA8  F008         	call	i2_ADCRead_Pos	;wreg free
  3171  00111C  C001  F054         	movff	?i2_ADCRead_Pos,_neutral_pos
  3172  001120  C002  F055         	movff	?i2_ADCRead_Pos+1,_neutral_pos+1
  3173  001124                     
  3174                           ;interrupts.c: 53:         PORTDbits.RD1=0;
  3175  001124  9283               	bcf	131,1,c	;volatile
  3176  001126                     
  3177                           ;interrupts.c: 54:         INTCONbits.INT0IF=0;
  3178  001126  92F2               	bcf	242,1,c	;volatile
  3179  001128                     i2l22:
  3180  001128  9256               	bcf	int$flags,1,c	;clear compiler interrupt flag (level 2)
  3181  00112A  0011               	retfie		f
  3182  00112C                     __end_of_high_isr:
  3183                           	callstack 0
  3184                           
  3185 ;; *************** function i2_ADCRead_Pos *****************
  3186 ;; Defined at:
  3187 ;;		line 41 in file "ADC.c"
  3188 ;; Parameters:    Size  Location     Type
  3189 ;;		None
  3190 ;; Auto vars:     Size  Location     Type
  3191 ;;  temp            2    4[COMRAM] unsigned int 
  3192 ;; Return value:  Size  Location     Type
  3193 ;;                  2    0[COMRAM] unsigned int 
  3194 ;; Registers used:
  3195 ;;		wreg, status,2, status,0
  3196 ;; Tracked objects:
  3197 ;;		On entry : 0/0
  3198 ;;		On exit  : 0/0
  3199 ;;		Unchanged: 0/0
  3200 ;; Data sizes:     COMRAM   BANK0   BANK1   BANK2   BANK3   BANK4   BANK5
  3201 ;;      Params:         2       0       0       0       0       0       0
  3202 ;;      Locals:         2       0       0       0       0       0       0
  3203 ;;      Temps:          2       0       0       0       0       0       0
  3204 ;;      Totals:         6       0       0       0       0       0       0
  3205 ;;Total ram usage:        6 bytes
  3206 ;; Hardware stack levels used:    1
  3207 ;; This function calls:
  3208 ;;		Nothing
  3209 ;; This function is called by:
  3210 ;;		_high_isr
  3211 ;; This function uses a non-reentrant model
  3212 ;;
  3213                           
  3214                           	psect	text16
  3215  001150                     __ptext16:
  3216                           	callstack 0
  3217  001150                     i2_ADCRead_Pos:
  3218                           	callstack 25
  3219  001150                     
  3220                           ;ADC.c: 44:   GO = 1;
  3221  001150  82C2               	bsf	4034,1,c	;volatile
  3222                           
  3223                           ;ADC.c: 45:   unsigned int temp;;ADC.c: 47:   temp = ADRESL;
  3224  001152  CFC3 F005          	movff	4035,i2ADCRead_Pos@temp	;volatile
  3225  001156  6A06               	clrf	(i2ADCRead_Pos@temp+1)^0,c
  3226  001158                     
  3227                           ;ADC.c: 48:   temp = temp + (ADRESH << 8);
  3228  001158  50C4               	movf	196,w,c	;volatile
  3229  00115A  6E04               	movwf	(??i2_ADCRead_Pos+1)^0,c
  3230  00115C  6A03               	clrf	??i2_ADCRead_Pos^0,c
  3231  00115E  5005               	movf	i2ADCRead_Pos@temp^0,w,c
  3232  001160  2403               	addwf	??i2_ADCRead_Pos^0,w,c
  3233  001162  6E05               	movwf	i2ADCRead_Pos@temp^0,c
  3234  001164  5006               	movf	(i2ADCRead_Pos@temp+1)^0,w,c
  3235  001166  2004               	addwfc	(??i2_ADCRead_Pos+1)^0,w,c
  3236  001168  6E06               	movwf	(i2ADCRead_Pos@temp+1)^0,c
  3237  00116A                     
  3238                           ;ADC.c: 49:   return temp;
  3239  00116A  C005  F001         	movff	i2ADCRead_Pos@temp,?i2_ADCRead_Pos
  3240  00116E  C006  F002         	movff	i2ADCRead_Pos@temp+1,?i2_ADCRead_Pos+1
  3241  001172  0012               	return		;funcret
  3242  001174                     __end_ofi2_ADCRead_Pos:
  3243                           	callstack 0
  3244  0000                     
  3245                           	psect	rparam
  3246  0000                     
  3247                           	psect	temp
  3248  000056                     btemp:
  3249                           	callstack 0
  3250  000056                     	ds	1
  3251  0000                     int$flags	set	btemp
  3252  0000                     wtemp8	set	btemp+1
  3253  0000                     ttemp5	set	btemp+1
  3254  0000                     ttemp6	set	btemp+4
  3255  0000                     ttemp7	set	btemp+8
  3256                           
  3257                           	psect	idloc
  3258                           
  3259                           ;Config register IDLOC0 @ 0x200000
  3260                           ;	unspecified, using default values
  3261  200000                     	org	2097152
  3262  200000  FF                 	db	255
  3263                           
  3264                           ;Config register IDLOC1 @ 0x200001
  3265                           ;	unspecified, using default values
  3266  200001                     	org	2097153
  3267  200001  FF                 	db	255
  3268                           
  3269                           ;Config register IDLOC2 @ 0x200002
  3270                           ;	unspecified, using default values
  3271  200002                     	org	2097154
  3272  200002  FF                 	db	255
  3273                           
  3274                           ;Config register IDLOC3 @ 0x200003
  3275                           ;	unspecified, using default values
  3276  200003                     	org	2097155
  3277  200003  FF                 	db	255
  3278                           
  3279                           ;Config register IDLOC4 @ 0x200004
  3280                           ;	unspecified, using default values
  3281  200004                     	org	2097156
  3282  200004  FF                 	db	255
  3283                           
  3284                           ;Config register IDLOC5 @ 0x200005
  3285                           ;	unspecified, using default values
  3286  200005                     	org	2097157
  3287  200005  FF                 	db	255
  3288                           
  3289                           ;Config register IDLOC6 @ 0x200006
  3290                           ;	unspecified, using default values
  3291  200006                     	org	2097158
  3292  200006  FF                 	db	255
  3293                           
  3294                           ;Config register IDLOC7 @ 0x200007
  3295                           ;	unspecified, using default values
  3296  200007                     	org	2097159
  3297  200007  FF                 	db	255
  3298                           
  3299                           	psect	config
  3300                           
  3301                           ; Padding undefined space
  3302  300000                     	org	3145728
  3303  300000  FF                 	db	255
  3304                           
  3305                           ;Config register CONFIG1H @ 0x300001
  3306                           ;	Oscillator Selection bits
  3307                           ;	FOSC = INTIO67, Internal oscillator block, port function on RA6 and RA7
  3308                           ;	Fail-Safe Clock Monitor Enable bit
  3309                           ;	FCMEN = OFF, Fail-Safe Clock Monitor disabled
  3310                           ;	Internal/External Oscillator Switchover bit
  3311                           ;	IESO = OFF, Oscillator Switchover mode disabled
  3312  300001                     	org	3145729
  3313  300001  08                 	db	8
  3314                           
  3315                           ;Config register CONFIG2L @ 0x300002
  3316                           ;	Power-up Timer Enable bit
  3317                           ;	PWRT = OFF, PWRT disabled
  3318                           ;	Brown-out Reset Enable bits
  3319                           ;	BOREN = SBORDIS, Brown-out Reset enabled in hardware only (SBOREN is disabled)
  3320                           ;	Brown Out Reset Voltage bits
  3321                           ;	BORV = 18, VBOR set to 1.8 V nominal
  3322  300002                     	org	3145730
  3323  300002  1F                 	db	31
  3324                           
  3325                           ;Config register CONFIG2H @ 0x300003
  3326                           ;	Watchdog Timer Enable bit
  3327                           ;	WDTEN = OFF, WDT is controlled by SWDTEN bit of the WDTCON register
  3328                           ;	Watchdog Timer Postscale Select bits
  3329                           ;	WDTPS = 32768, 1:32768
  3330  300003                     	org	3145731
  3331  300003  1E                 	db	30
  3332                           
  3333                           ; Padding undefined space
  3334  300004                     	org	3145732
  3335  300004  FF                 	db	255
  3336                           
  3337                           ;Config register CONFIG3H @ 0x300005
  3338                           ;	CCP2 MUX bit
  3339                           ;	CCP2MX = PORTC, CCP2 input/output is multiplexed with RC1
  3340                           ;	PORTB A/D Enable bit
  3341                           ;	PBADEN = ON, PORTB<4:0> pins are configured as analog input channels on Reset
  3342                           ;	Low-Power Timer1 Oscillator Enable bit
  3343                           ;	LPT1OSC = OFF, Timer1 configured for higher power operation
  3344                           ;	HFINTOSC Fast Start-up
  3345                           ;	HFOFST = ON, HFINTOSC starts clocking the CPU without waiting for the oscillator to st
      +                          ablize.
  3346                           ;	MCLR Pin Enable bit
  3347                           ;	MCLRE = ON, MCLR pin enabled; RE3 input pin disabled
  3348  300005                     	org	3145733
  3349  300005  8B                 	db	139
  3350                           
  3351                           ;Config register CONFIG4L @ 0x300006
  3352                           ;	Stack Full/Underflow Reset Enable bit
  3353                           ;	STVREN = ON, Stack full/underflow will cause Reset
  3354                           ;	Single-Supply ICSP Enable bit
  3355                           ;	LVP = OFF, Single-Supply ICSP disabled
  3356                           ;	Extended Instruction Set Enable bit
  3357                           ;	XINST = OFF, Instruction set extension and Indexed Addressing mode disabled (Legacy mo
      +                          de)
  3358                           ;	Background Debugger Enable bit
  3359                           ;	DEBUG = 0x1, unprogrammed default
  3360  300006                     	org	3145734
  3361  300006  81                 	db	129
  3362                           
  3363                           ; Padding undefined space
  3364  300007                     	org	3145735
  3365  300007  FF                 	db	255
  3366                           
  3367                           ;Config register CONFIG5L @ 0x300008
  3368                           ;	Code Protection Block 0
  3369                           ;	CP0 = OFF, Block 0 (000800-001FFFh) not code-protected
  3370                           ;	Code Protection Block 1
  3371                           ;	CP1 = OFF, Block 1 (002000-003FFFh) not code-protected
  3372                           ;	Code Protection Block 2
  3373                           ;	CP2 = OFF, Block 2 (004000-005FFFh) not code-protected
  3374                           ;	Code Protection Block 3
  3375                           ;	CP3 = OFF, Block 3 (006000-007FFFh) not code-protected
  3376  300008                     	org	3145736
  3377  300008  0F                 	db	15
  3378                           
  3379                           ;Config register CONFIG5H @ 0x300009
  3380                           ;	Boot Block Code Protection bit
  3381                           ;	CPB = OFF, Boot block (000000-0007FFh) not code-protected
  3382                           ;	Data EEPROM Code Protection bit
  3383                           ;	CPD = OFF, Data EEPROM not code-protected
  3384  300009                     	org	3145737
  3385  300009  C0                 	db	192
  3386                           
  3387                           ;Config register CONFIG6L @ 0x30000A
  3388                           ;	Write Protection Block 0
  3389                           ;	WRT0 = OFF, Block 0 (000800-001FFFh) not write-protected
  3390                           ;	Write Protection Block 1
  3391                           ;	WRT1 = OFF, Block 1 (002000-003FFFh) not write-protected
  3392                           ;	Write Protection Block 2
  3393                           ;	WRT2 = OFF, Block 2 (004000-005FFFh) not write-protected
  3394                           ;	Write Protection Block 3
  3395                           ;	WRT3 = OFF, Block 3 (006000-007FFFh) not write-protected
  3396  30000A                     	org	3145738
  3397  30000A  0F                 	db	15
  3398                           
  3399                           ;Config register CONFIG6H @ 0x30000B
  3400                           ;	Configuration Register Write Protection bit
  3401                           ;	WRTC = OFF, Configuration registers (300000-3000FFh) not write-protected
  3402                           ;	Boot Block Write Protection bit
  3403                           ;	WRTB = OFF, Boot Block (000000-0007FFh) not write-protected
  3404                           ;	Data EEPROM Write Protection bit
  3405                           ;	WRTD = OFF, Data EEPROM not write-protected
  3406  30000B                     	org	3145739
  3407  30000B  E0                 	db	224
  3408                           
  3409                           ;Config register CONFIG7L @ 0x30000C
  3410                           ;	Table Read Protection Block 0
  3411                           ;	EBTR0 = OFF, Block 0 (000800-001FFFh) not protected from table reads executed in other
      +                           blocks
  3412                           ;	Table Read Protection Block 1
  3413                           ;	EBTR1 = OFF, Block 1 (002000-003FFFh) not protected from table reads executed in other
      +                           blocks
  3414                           ;	Table Read Protection Block 2
  3415                           ;	EBTR2 = OFF, Block 2 (004000-005FFFh) not protected from table reads executed in other
      +                           blocks
  3416                           ;	Table Read Protection Block 3
  3417                           ;	EBTR3 = OFF, Block 3 (006000-007FFFh) not protected from table reads executed in other
      +                           blocks
  3418  30000C                     	org	3145740
  3419  30000C  0F                 	db	15
  3420                           
  3421                           ;Config register CONFIG7H @ 0x30000D
  3422                           ;	Boot Block Table Read Protection bit
  3423                           ;	EBTRB = OFF, Boot Block (000000-0007FFh) not protected from table reads executed in ot
      +                          her blocks
  3424  30000D                     	org	3145741
  3425  30000D  40                 	db	64
  3426                           tosu	equ	0xFFF
  3427                           tosh	equ	0xFFE
  3428                           tosl	equ	0xFFD
  3429                           stkptr	equ	0xFFC
  3430                           pclatu	equ	0xFFB
  3431                           pclath	equ	0xFFA
  3432                           pcl	equ	0xFF9
  3433                           tblptru	equ	0xFF8
  3434                           tblptrh	equ	0xFF7
  3435                           tblptrl	equ	0xFF6
  3436                           tablat	equ	0xFF5
  3437                           prodh	equ	0xFF4
  3438                           prodl	equ	0xFF3
  3439                           indf0	equ	0xFEF
  3440                           postinc0	equ	0xFEE
  3441                           postdec0	equ	0xFED
  3442                           preinc0	equ	0xFEC
  3443                           plusw0	equ	0xFEB
  3444                           fsr0h	equ	0xFEA
  3445                           fsr0l	equ	0xFE9
  3446                           wreg	equ	0xFE8
  3447                           indf1	equ	0xFE7
  3448                           postinc1	equ	0xFE6
  3449                           postdec1	equ	0xFE5
  3450                           preinc1	equ	0xFE4
  3451                           plusw1	equ	0xFE3
  3452                           fsr1h	equ	0xFE2
  3453                           fsr1l	equ	0xFE1
  3454                           bsr	equ	0xFE0
  3455                           indf2	equ	0xFDF
  3456                           postinc2	equ	0xFDE
  3457                           postdec2	equ	0xFDD
  3458                           preinc2	equ	0xFDC
  3459                           plusw2	equ	0xFDB
  3460                           fsr2h	equ	0xFDA
  3461                           fsr2l	equ	0xFD9
  3462                           status	equ	0xFD8

Data Sizes:
    Strings     0
    Constant    0
    Data        0
    BSS         12
    Persistent  0
    Stack       0

Auto Spaces:
    Space          Size  Autos    Used
    COMRAM           94     75      85
    BANK0           160      8      10
    BANK1           256      0       0
    BANK2           256      0       0
    BANK3           256      0       0
    BANK4           256      0       0
    BANK5           256      0       0

Pointer List with Targets:

    None.

Critical Paths under _main in COMRAM

    _main->___fltol
    ___fltol->___flsub
    ___flsub->___fladd
    ___fladd->___flmul
    ___flmul->___xxtofl
    _Vibration_ON->_PWMSetDutyCycle
    _PWMSetDutyCycle->___aldiv

Critical Paths under _low_isr in COMRAM

    None.

Critical Paths under _high_isr in COMRAM

    _high_isr->i2_ADCRead_Pos

Critical Paths under _main in BANK0

    _main->___fltol

Critical Paths under _low_isr in BANK0

    None.

Critical Paths under _high_isr in BANK0

    None.

Critical Paths under _main in BANK1

    None.

Critical Paths under _low_isr in BANK1

    None.

Critical Paths under _high_isr in BANK1

    None.

Critical Paths under _main in BANK2

    None.

Critical Paths under _low_isr in BANK2

    None.

Critical Paths under _high_isr in BANK2

    None.

Critical Paths under _main in BANK3

    None.

Critical Paths under _low_isr in BANK3

    None.

Critical Paths under _high_isr in BANK3

    None.

Critical Paths under _main in BANK4

    None.

Critical Paths under _low_isr in BANK4

    None.

Critical Paths under _high_isr in BANK4

    None.

Critical Paths under _main in BANK5

    None.

Critical Paths under _low_isr in BANK5

    None.

Critical Paths under _high_isr in BANK5

    None.

Call Graph Tables:

 ---------------------------------------------------------------------------------
 (Depth) Function   	        Calls       Base Space   Used Autos Params    Refs
 ---------------------------------------------------------------------------------
 (0) _main                                                 4     4      0    9541
                                              6 BANK0      2     2      0
                        _ADCRead_Pos
                _ConfigureOscillator
                            _InitApp
                           _Init_ADC
                       _Vibration_ON
                            ___fladd
                            ___flmul
                            ___flsub
                            ___fltol
                           ___xxtofl
 ---------------------------------------------------------------------------------
 (1) ___xxtofl                                            14    10      4     626
                                              8 COMRAM    14    10      4
 ---------------------------------------------------------------------------------
 (1) ___fltol                                             10     6      4     517
                                             71 COMRAM     4     0      4
                                              0 BANK0      6     6      0
                            ___fladd (ARG)
                            ___flmul (ARG)
                            ___flsub (ARG)
                           ___xxtofl (ARG)
 ---------------------------------------------------------------------------------
 (1) ___flsub                                              8     0      8    2737
                                             63 COMRAM     8     0      8
                            ___fladd
                            ___flmul (ARG)
                           ___xxtofl (ARG)
 ---------------------------------------------------------------------------------
 (2) ___fladd                                             16     8      8    2414
                                             47 COMRAM    16     8      8
                            ___flmul (ARG)
                           ___xxtofl (ARG)
 ---------------------------------------------------------------------------------
 (1) ___flmul                                             25    17      8    1896
                                             22 COMRAM    25    17      8
                           ___xxtofl (ARG)
 ---------------------------------------------------------------------------------
 (1) _Vibration_ON                                         2     0      2    1305
                                             33 COMRAM     2     0      2
                    _PWMSetDutyCycle
 ---------------------------------------------------------------------------------
 (2) _PWMSetDutyCycle                                     11     9      2    1055
                                             22 COMRAM    11     9      2
                            ___aldiv
                             ___lmul
 ---------------------------------------------------------------------------------
 (3) ___lmul                                              12     4      8     370
                                              8 COMRAM    12     4      8
 ---------------------------------------------------------------------------------
 (3) ___aldiv                                             14     6      8     452
                                              8 COMRAM    14     6      8
 ---------------------------------------------------------------------------------
 (1) _Init_ADC                                             0     0      0       0
 ---------------------------------------------------------------------------------
 (1) _InitApp                                              0     0      0       0
 ---------------------------------------------------------------------------------
 (1) _ConfigureOscillator                                  0     0      0       0
 ---------------------------------------------------------------------------------
 (1) _ADCRead_Pos                                          6     4      2      46
                                              8 COMRAM     6     4      2
 ---------------------------------------------------------------------------------
 Estimated maximum stack depth 3
 ---------------------------------------------------------------------------------
 (Depth) Function   	        Calls       Base Space   Used Autos Params    Refs
 ---------------------------------------------------------------------------------
 (4) _low_isr                                              1     1      0       0
                                              7 COMRAM     1     1      0
 ---------------------------------------------------------------------------------
 Estimated maximum stack depth 4
 ---------------------------------------------------------------------------------
 (Depth) Function   	        Calls       Base Space   Used Autos Params    Refs
 ---------------------------------------------------------------------------------
 (5) _high_isr                                             1     1      0      46
                                              6 COMRAM     1     1      0
                      i2_ADCRead_Pos
 ---------------------------------------------------------------------------------
 (6) i2_ADCRead_Pos                                        6     4      2      46
                                              0 COMRAM     6     4      2
 ---------------------------------------------------------------------------------
 Estimated maximum stack depth 6
 ---------------------------------------------------------------------------------

 Call Graph Graphs:

 _main (ROOT)
   _ADCRead_Pos
   _ConfigureOscillator
   _InitApp
   _Init_ADC
   _Vibration_ON
     _PWMSetDutyCycle
       ___aldiv
       ___lmul
   ___fladd
     ___flmul (ARG)
       ___xxtofl (ARG)
     ___xxtofl (ARG)
   ___flmul
     ___xxtofl (ARG)
   ___flsub
     ___fladd
       ___flmul (ARG)
         ___xxtofl (ARG)
       ___xxtofl (ARG)
     ___flmul (ARG)
       ___xxtofl (ARG)
     ___xxtofl (ARG)
   ___fltol
     ___fladd (ARG)
       ___flmul (ARG)
         ___xxtofl (ARG)
       ___xxtofl (ARG)
     ___flmul (ARG)
       ___xxtofl (ARG)
     ___flsub (ARG)
       ___fladd
         ___flmul (ARG)
           ___xxtofl (ARG)
         ___xxtofl (ARG)
       ___flmul (ARG)
         ___xxtofl (ARG)
       ___xxtofl (ARG)
     ___xxtofl (ARG)
   ___xxtofl

 _low_isr (ROOT)

 _high_isr (ROOT)
   i2_ADCRead_Pos

 Address spaces:
Name               Size   Autos  Total    Cost      Usage
BIGRAM             5FF      0       0      17        0.0%
EEDATA             100      0       0       0        0.0%
BITBANK5           100      0       0      16        0.0%
BANK5              100      0       0      14        0.0%
BITBANK4           100      0       0      12        0.0%
BANK4              100      0       0      13        0.0%
BITBANK3           100      0       0      10        0.0%
BANK3              100      0       0      11        0.0%
BITBANK2           100      0       0       8        0.0%
BANK2              100      0       0       9        0.0%
BITBANK1           100      0       0       6        0.0%
BANK1              100      0       0       7        0.0%
BITBANK0            A0      0       0       4        0.0%
BANK0               A0      8       A       5        6.2%
BITCOMRAM           5E      0       0       0        0.0%
COMRAM              5E     4B      55       1       90.4%
BITSFR               0      0       0     200        0.0%
SFR                  0      0       0     200        0.0%
STACK                0      0       0       2        0.0%
NULL                 0      0       0       0        0.0%
ABS                  0      0      5F      15        0.0%
DATA                 0      0      5F       3        0.0%
CODE                 0      0       0       0        0.0%


Microchip Technology PIC18 Macro Assembler V2.30 build 20200825195618 
Symbol Table                                                                                   Thu Apr 08 14:44:49 2021

                          l63 0E00                            l72 0AF4                            l66 11BE  
                          l79 11C0                            _GO 007E11                            bsr 000FE0  
                         l104 10F8                           l123 1194                           l140 106E  
                         l141 107E                           l126 114E                           l208 0F0C  
                         l426 1014                           l750 07A4                           l743 05AE  
                         l760 08D4                           l752 081C                           l753 080A  
                         l657 0218                           l674 0332                           l666 04E8  
                         l658 0206                           l747 0912                           l683 0402  
                         l659 01CC                           l684 03F0                           l791 0C12  
                         l784 0B7A                           l699 10C4                           l787 0CD6  
                         l798 0C6E                           _PR2 000FCB                           u940 1034  
                         u941 1030                           u950 106E                           u951 106A  
                         u960 0E14                           u961 0E10                           u970 0E36  
                         u971 0E32                           u980 0E70                           u981 0E6C  
                         u990 0E92                           u991 0E8E                           wreg 000FE8  
                ___flmul@aexp 0028                  ___flmul@bexp 0029          __size_of_ADCRead_Pos 0024  
                ___flmul@sign 0023                  ___flmul@temp 002E                  ___flmul@prod 002A  
                ___fltol@exp1 0065                          l1100 10F4                          l1102 10F6  
                        l1104 1174                          l2010 0FF4                          l2012 1004  
                        l2004 0FC8                          l2020 091C                          l2006 0FD4  
                        l2030 093E                          l2022 0920                          l1080 10C6  
                        l1400 1016                          l2008 0FE4                          l2040 097E  
                        l2032 094A                          l2024 0928                          l2016 0914  
                        l1090 10EA                          l1082 10D4                          l1410 0E02  
                        l1402 1026                          l2050 0AAA                          l2042 0980  
                        l2034 094C                          l2026 0930                          l2018 0918  
                        l1092 10EC                          l1084 10E0                          l1420 0E36  
                        l1412 0E06                          l1404 1034                          l1500 00E0  
                        l2060 0AF6                          l2052 0AB6                          l2044 0998  
                        l2036 0964                          l2028 0932                          l1094 10EE  
                        l1086 10E2                          l1430 0E78                          l1422 0E46  
                        l1414 0E14                          l1406 1044                          l1510 011C  
                        l1502 00F0                          l2062 0B10                          l2054 0ACC  
                        l2046 099A                          l2038 0966                          l1096 10F0  
                        l1088 10E8                          l1440 0ECA                          l1432 0E84  
                        l1424 0E4A                          l1416 0E24                          l1408 104E  
                        l1600 0322                          l1520 013A                          l1512 012A  
                        l1504 00F2                          l2056 0AE2                          l2048 0A22  
                        l1098 10F2                          l1450 0EFC                          l1442 0ECC  
                        l1434 0E92                          l1426 0E5A                          l1418 0E28  
                        l1610 0376                          l1602 0348                          l1530 014E  
                        l1522 013E                          l1514 012E                          l1506 00FA  
                        l2058 0AE4                          l1444 0ED6                          l1436 0E9C  
                        l1428 0E70                          l1460 0D2A                          l1700 0566  
                        l1620 03A0                          l1612 0384                          l1604 0358  
                        l1540 0162                          l1532 0152                          l1524 0142  
                        l1516 0132                          l1508 010A                          l1438 0EBA  
                        l1446 0EDC                          l1462 0D5A                          l1454 0CD8  
                        l1710 059E                          l1702 0568                          l1630 03D2  
                        l1622 03B0                          l1614 0386                          l1550 01B4  
                        l1542 0166                          l1534 0156                          l1526 0146  
                        l1518 0136                          l1470 0044                          l1448 0EEC  
                        l1464 0DEE                          l1800 08F8                          l1720 05EE  
                        l1712 05BE                          l1704 0578                          l1640 042C  
                        l1632 03E8                          l1616 0394                          l1608 036C  
                        l1624 03B2                          l1560 01F8                          l1552 01C4  
                        l1536 015A                          l1528 014A                          l1544 016A  
                        l1480 0078                          l1472 0046                          l1458 0CF2  
                        l1802 08FE                          l1730 063E                          l1722 05F8  
                        l1714 05CE                          l1706 0588                          l1650 04A8  
                        l1642 0466                          l1618 039C                          l1626 03C0  
                        l1562 01FA                          l1554 01DA                          l1546 016E  
                        l1538 015E                          l1490 00AA                          l1474 0056  
                        l1482 0080                          l1466 002A                          l1810 1090  
                        l1804 0902                          l1740 0680                          l1732 064A  
                        l1724 060E                          l1708 0598                          l1660 04C8  
                        l1652 04AC                          l1636 0412                          l1644 0468  
                        l1628 03C4                          l1580 0282                          l1572 024A  
                        l1564 0204                          l1556 01E6                          l1548 0198  
                        l1492 00B0                          l1484 0090                          l1476 0066  
                        l1468 0036                          l1900 0CC6                          l1670 1134  
                        l1750 06E2                          l1742 0690                          l1734 0658  
                        l1726 061A                          l1718 05E2                          l1662 04D6  
                        l1654 04BA                          l1646 0478                          l1638 041E  
                        l1582 0286                          l1574 025A                          l1566 0226  
                        l1590 02A6                          l1558 01EA                          l1494 00BE  
                        l1486 0096                          l1478 0076                          l1672 1146  
                        l1760 078A                          l1752 06FE                          l1744 06AA  
                        l1736 0664                          l1728 0632                          l1680 04F6  
                        l1664 04D8                          l1656 04C0                          l1648 0488  
                        l1592 02CC                          l1584 0294                          l1576 0268  
                        l1568 0236                          l1496 00C0                          l1488 00A8  
                        l1808 1080                          l1770 07C6                          l1762 0794  
                        l1754 0728                          l1746 06BA                          l1738 0674  
                        l1690 0536                          l1682 0504                          l1658 04C2  
                        l1594 0300                          l1586 0296                          l1578 0276  
                        l1498 00D0                          l1668 112C                          l1676 11B2  
                        l1780 0838                          l1772 07D4                          l1764 07A2  
                        l1756 075E                          l1748 06D6                          l1692 053C  
                        l1684 0506                          l1596 0302                          l1588 02A0  
                        l1860 0B36                          l1790 08A2                          l1782 0846  
                        l1774 0802                          l1766 07B4                          l1758 076C  
                        l1694 054C                          l1686 0516                          l1678 04EA  
                        l1598 0312                          l1870 0BB4                          l1862 0B44  
                        l1792 08BC                          l1784 0870                          l1768 07C2  
                        l1696 0552                          l1688 0526                          l1880 0C08  
                        l1872 0BBC                          l1864 0B8A                          l1794 08D8  
                        l1778 082C                          l1786 0874                          l1698 0558  
                        l1890 0C7E                          l1882 0C44                          l1874 0BC8  
                        l1866 0BA0                          l1858 0B26                          l1796 08E8  
                        l1788 088E                          l1980 0F64                          l1972 0F0E  
                        l1892 0C82                          l1884 0C50                          l1876 0BFA  
                        l1798 08F6                          l1982 0F66                          l1974 0F26  
                        l1894 0CA6                          l1886 0C5E                          l1878 0BFC  
                        l1984 0F76                          l1896 0CB6                          l1888 0C7C  
                        l1994 0FA0                          l1986 0F7A                          l1978 0F3A  
                        l1898 0CC4                          l1996 0FAA                          l1988 0F88  
                        l1998 0FB4                          u1000 0EBA                          u1001 0EB6  
                        u1010 0EEC                          u1011 0EE8                          u1020 0CEE  
                        u1100 0056                          u1021 0CEA                          u1101 0052  
                        u1110 0066                          u1111 0062                          u1200 01B2  
                        u1120 00A8                          u1121 00A4                          u1050 0DEC  
                        u1210 01DA                          u1130 00BE                          u1051 0DE6  
                        u1035 0D0A                          u1211 01D6                          u1131 00BA  
                        u1300 0312                          u1220 01F8                          u1140 00D0  
                        u1045 0DA2                          u1301 030E                          u1221 01F4  
                        u1141 00CC                          u1070 0DFE                          u1046 0DAC  
                        u1310 0348                          u1230 0218                          u1150 00E0  
                        u1071 0DF8                          u1047 0DBC                          u1311 0344  
                        u1231 0214                          u1151 00DC                          u1400 0412  
                        u1320 0358                          u1240 0226                          u1160 011C  
                        u1065 0DEE                          u1401 040E                          u1321 0354  
                        u1241 0222                          u1161 0118                          u1410 042C  
                        u1330 0384                          u1250 0236                          u1170 012A  
                        u1090 0044                          u1411 0428                          u1331 0380  
                        u1251 0232                          u1171 0126                          u1091 0040  
                        u1500 0526                          u1420 0466                          u1340 0394  
                        u1260 0268                          u1180 0198                          u1085 0E00  
                        u1501 0522                          u1421 0462                          u1341 0390  
                        u1261 0264                          u1181 0194                          u1510 0566  
                        u1430 0478                          u1350 03B0                          u1270 0276  
                        u1190 01B0                          u1511 0562                          u1431 0474  
                        u1351 03AC                          u1271 0272                          u1191 01AA  
                        u1600 0802                          u1520 0578                          u1440 0488  
                        u1360 03C0                          u1280 0294                          u1601 07FE  
                        u1521 0574                          u1441 0484                          u1361 03BC  
                        u1281 0290                          u1610 0818                          u1530 0588  
                        u1450 04A8                          u1370 03D2                          u1290 02CC  
                        u1611 0814                          u1531 0584                          u1451 04A4  
                        u1371 03CE                          u1291 02C8                          u1620 082C  
                        u1540 05BE                          u1460 04BA                          u1380 03E8  
                        u1621 0828                          u1541 05BA                          u1461 04B6  
                        u1381 03E4                          u1630 0846                          u1550 05CE  
                        u1470 04D6                          u1390 03FE                          u1631 0842  
                        u1551 05CA                          u1471 04D2                          u1391 03FA  
                        u1640 088E                          u1560 0748                          u1480 0504  
                        u1800 0C6E                          u1641 088A                          u1481 0500  
                        u1801 0C6A                          u1650 08BC                          u1570 07A2  
                        u1490 0516                          u1810 0C7C                          u1651 08B8  
                        u1571 079E                          u1491 0512                          u1811 0C78  
                        u1660 08F6                          u1580 07C2                          u1900 0F9C  
                        u1820 0CB6                          u1740 0B36                          u1661 08F2  
                        u1581 07BE                          u1565 073E                          u1901 0F98  
                        u1821 0CB2                          u1741 0B32                          u1590 07D4  
                        u1910 0FC4                          u1830 0CC4                          u1750 0B44  
                        u1591 07D0                          u1911 0FC0                          u1831 0CC0  
                        u1751 0B40                          u1920 0FE4                          u1760 0BA0  
                        u1921 0FE0                          u1761 0B9C                          u1930 0FF4  
                        u1770 0BF6                          u1931 0FF0                          u1771 0BF2  
                        u1780 0C40                          u1940 0ACC                          u1781 0C3C  
                        u1941 0AC8                          u1870 0F26                          u1790 0C5E  
                        u1950 0AE2                          u1871 0F22                          u1791 0C5A  
                        u1951 0ADE                          u1880 0F5A                          u1890 0F88  
                        u1891 0F84                          u1885 0F50                          u1967 0958  
                        u1977 0972                          i1l27 001E                          u1987 098C  
                        u1997 0B02                          i2l22 1128                          _main 0914  
                        _temp 0068                          btemp 0056                          prodh 000FF4  
                        prodl 000FF3                          start 0026        __size_ofi2_ADCRead_Pos 0024  
                ___param_bank 000000               __end_of_InitApp 10FA                         _DC1B0 007DEC  
                       _DC1B1 007DED                 ___fltol@sign1 0064               __end_of___aldiv 0F0E  
             __end_of___fladd 04EA                         ?_main 0001               __end_of___flmul 0914  
             __end_of___flsub 10C6               __end_of___fltol 1016                         i2l126 1172  
         _ConfigureOscillator 11C0           ___lmul@multiplicand 000D               __end_of_low_isr 0026  
                       ttemp5 0057                         ttemp6 005A                         ttemp7 005E  
                       status 000FD8                         wtemp8 0057          ?_ConfigureOscillator 0001  
             __initialization 1196                  __end_of_main 0B24              __end_of_Init_ADC 1196  
           ??_PWMSetDutyCycle 0019                        ??_main 0066                 __activetblptr 000000  
               i2_ADCRead_Pos 1150                        _ADRESH 000FC4                        _ADRESL 000FC3  
                      _CCPR1L 000FBE                        i2l1904 1150                        i2l1920 1124  
                      i2l1912 10FA                        i2l1906 1158                        i2l1922 1126  
                      i2l1914 1108                        i2l1908 116A                        i2l1916 110A  
                      i2l1918 1118              __end_of___xxtofl 0CD8                     ??_InitApp 0009  
       ??_ConfigureOscillator 0009              __end_of_high_isr 112C                        ___lmul 1016  
                   ??___aldiv 0011                     ??___fladd 0038                     ??___flmul 001F  
                   ??___flsub 0048                     ??___fltol 0060                        clear_0 11A2  
              ?i2_ADCRead_Pos 0001                     ??_low_isr 0008                  ___xxtofl@arg 0013  
                ___xxtofl@exp 0012                  ___xxtofl@val 0009                    __accesstop 0060  
     __end_of__initialization 11A8                 ___rparam_used 000001                    ___fltol@f1 0048  
              __pcstackCOMRAM 0001                    __pbssBANK0 0068                     ?_Init_ADC 0001  
                     ?___lmul 0009                ___lmul@product 0011               ??i2_ADCRead_Pos 0003  
               ??_ADCRead_Pos 000B                     ?___xxtofl 0009                     ?_high_isr 0001  
                  ??_Init_ADC 0009                       _InitApp 10C6               _PWMSetDutyCycle 0CD8  
                     __Hparam 0000                       __Lparam 0000                 ?_Vibration_ON 0022  
                     ___aldiv 0E02                       ___fladd 002A               __size_of___lmul 006A  
                     ___flmul 04EA                       ___flsub 1080                       ___fltol 0F0E  
                     __pcinit 1196                     _ANSELbits 000F7E                       __ramtop 0600  
                     __ptext0 0914                       __ptext1 0B24                       __ptext2 0F0E  
                     __ptext3 1080                       __ptext4 002A                       __ptext5 04EA  
                     __ptext6 11B2                       __ptext7 0CD8                       __ptext8 1016  
                     __ptext9 0E02                     _T2CONbits 000FCA                       _max_pos 0050  
                  ??___xxtofl 000D                       _min_pos 004E                    _duty_cycle 004C  
            ___aldiv@dividend 0009                       _low_isr 0018         PWMSetDutyCycle@output 001E  
         __end_of_ADCRead_Pos 1150                    ??_high_isr 0007                __pintcode_body 10FA  
        end_of_initialization 11A8                       int_func 10FA                ??_Vibration_ON 0024  
            ___aldiv@quotient 0013                       postinc0 000FEE     PWMSetDutyCycle@percentage 0017  
                   _PORTDbits 000F83                   ___fladd@grs 003F                 ___xxtofl@sign 0011  
                   _TRISAbits 000F92                     _TRISBbits 000F93                     _TRISDbits 000F95  
 __end_of_ConfigureOscillator 11C2       __end_of_PWMSetDutyCycle 0E02                   ___flmul@grs 0024  
                 _CCP1CONbits 000FBD                __end_of___lmul 1080                   _ADCRead_Pos 112C  
         start_initialization 1196             __size_of_Init_ADC 0022                      ??___lmul 0011  
                   ___fladd@a 0034                     ___fladd@b 0030                     ___flmul@a 001B  
                   ___flmul@b 0017                   __pbssCOMRAM 004C                     ___flsub@a 0044  
                   ___flsub@b 0040             i2ADCRead_Pos@temp 0005                 __pcstackBANK0 0060  
        __end_of_Vibration_ON 11C0             __size_of___xxtofl 01B4              ?_PWMSetDutyCycle 0017  
           __size_of_high_isr 1124                      ?_InitApp 0001                     __pintcode 0008  
                    ?___aldiv 0009                      ?___fladd 0030                      ?___flmul 0017  
                    ?___flsub 0040                      ?___fltol 0048                   __pintcodelo 0018  
       __end_ofi2_ADCRead_Pos 1174                      ?_low_isr 0001               ___aldiv@divisor 000D  
             ___aldiv@counter 0011                      i2u200_47 1110                      i2u184_40 1108  
                    i2u184_41 1104                      _RCONbits 000FD0                    _ADCON0bits 000FC2  
                  _ADCON1bits 000FC1                    _ADCON2bits 000FC0             ___lmul@multiplier 0009  
                 _INTCON2bits 000FF1                      _Init_ADC 1174              __size_of_InitApp 0034  
                    __Hrparam 0000                      __Lrparam 0000              __size_of___aldiv 010C  
            __size_of___fladd 04C0              __size_of___flmul 042A              __size_of___flsub 0046  
            __size_of___fltol 0108        Vibration_ON@percentage 0022         __size_of_Vibration_ON 000E  
                  _ANSELHbits 000F7F                  ?_ADCRead_Pos 0009                      ___xxtofl 0B24  
            __size_of_low_isr 000E                      __ptext10 1174                      __ptext11 10C6  
                    __ptext12 11C0                      __ptext13 112C                      __ptext16 1150  
                    _high_isr 0008                 __size_of_main 0210                      _real_pos 0052  
__size_of_ConfigureOscillator 0002                  _Vibration_ON 11B2                      int$flags 0056  
                  _INTCONbits 000FF2                   _neutral_pos 0054                      intlevel1 0000  
                    intlevel2 0000               ADCRead_Pos@temp 000D                  ___aldiv@sign 0012  
               ___fladd@signs 003C                  ___fladd@aexp 003D                  ___fladd@bexp 003E  
    __size_of_PWMSetDutyCycle 012A  
