

Microchip MPLAB XC8 Assembler V2.30 build 20200825195618 
                                                                                               Wed Apr 21 15:59:08 2021

Microchip MPLAB XC8 C Compiler v2.30 (Free license) build 20200825195618 Og1 
     1                           	processor	18F45K20
     2                           	fnconf	rparam,??,?,0
     3                           	pagewidth 120
     4                           	opt	flic
     5                           	psect	smallconst,global,reloc=2,class=SMALLCONST,delta=1,noexec
     6                           	psect	cinit,global,reloc=2,class=CODE,delta=1
     7                           	psect	bssCOMRAM,global,class=COMRAM,space=1,delta=1,lowdata,noexec
     8                           	psect	cstackBANK0,global,class=BANK0,space=1,delta=1,lowdata,noexec
     9                           	psect	cstackCOMRAM,global,class=COMRAM,space=1,delta=1,lowdata,noexec
    10                           	psect	text0,global,reloc=2,class=CODE,delta=1
    11                           	psect	text1,global,reloc=2,class=CODE,delta=1
    12                           	psect	text2,global,reloc=2,class=CODE,delta=1,group=1
    13                           	psect	text3,global,reloc=2,class=CODE,delta=1,group=1
    14                           	psect	text4,global,reloc=2,class=CODE,delta=1,group=1
    15                           	psect	text5,global,reloc=2,class=CODE,delta=1,group=1
    16                           	psect	text6,global,reloc=2,class=CODE,delta=1,group=1
    17                           	psect	text7,global,reloc=2,class=CODE,delta=1
    18                           	psect	text8,global,reloc=2,class=CODE,delta=1,group=1
    19                           	psect	text9,global,reloc=2,class=CODE,delta=1,group=1
    20                           	psect	text10,global,reloc=2,class=CODE,delta=1
    21                           	psect	text11,global,reloc=2,class=CODE,delta=1
    22                           	psect	text12,global,reloc=2,class=CODE,delta=1
    23                           	psect	text13,global,reloc=2,class=CODE,delta=1
    24                           	psect	text14,global,reloc=2,class=CODE,delta=1
    25                           	psect	text15,global,reloc=2,class=CODE,delta=1
    26                           	psect	text16,global,reloc=2,class=CODE,delta=1
    27                           	psect	text17,global,reloc=2,class=CODE,delta=1
    28                           	psect	intcodelo,global,reloc=2,class=CODE,delta=1
    29                           	psect	intcode,global,reloc=2,class=CODE,delta=1
    30                           	psect	intcode_body,global,reloc=2,class=CODE,delta=1
    31                           	psect	intsave_regs,global,class=BIGRAM,space=1,delta=1,noexec
    32                           	psect	rparam,global,class=COMRAM,space=1,delta=1,noexec
    33                           	psect	temp,global,ovrld,common,class=COMRAM,space=1,delta=1
    34                           	psect	idloc,global,abs,ovrld,class=IDLOC,space=5,delta=1,noexec
    35                           	psect	config,global,abs,ovrld,class=CONFIG,space=4,delta=1,noexec
    36  0000                     
    37                           ; Version 2.20
    38                           ; Generated 05/05/2020 GMT
    39                           ; 
    40                           ; Copyright © 2020, Microchip Technology Inc. and its subsidiaries ("Microchip")
    41                           ; All rights reserved.
    42                           ; 
    43                           ; This software is developed by Microchip Technology Inc. and its subsidiaries ("Microch
      +                          ip").
    44                           ; 
    45                           ; Redistribution and use in source and binary forms, with or without modification, are
    46                           ; permitted provided that the following conditions are met:
    47                           ; 
    48                           ;     1. Redistributions of source code must retain the above copyright notice, this lis
      +                          t of
    49                           ;        conditions and the following disclaimer.
    50                           ; 
    51                           ;     2. Redistributions in binary form must reproduce the above copyright notice, this 
      +                          list
    52                           ;        of conditions and the following disclaimer in the documentation and/or other
    53                           ;        materials provided with the distribution.
    54                           ; 
    55                           ;     3. Microchip's name may not be used to endorse or promote products derived from th
      +                          is
    56                           ;        software without specific prior written permission.
    57                           ; 
    58                           ; THIS SOFTWARE IS PROVIDED BY MICROCHIP "AS IS" AND ANY EXPRESS OR IMPLIED WARRANTIES,
    59                           ; INCLUDING, BUT NOT LIMITED TO, THE IMPLIED WARRANTIES OF MERCHANTABILITY AND FITNESS F
      +                          OR
    60                           ; PURPOSE ARE DISCLAIMED.  IN NO EVENT SHALL MICROCHIP BE LIABLE FOR ANY DIRECT, INDIREC
      +                          T,
    61                           ; INCIDENTAL, SPECIAL, EXEMPLARY, OR CONSEQUENTIAL DAMAGES (INCLUDING BUT NOT LIMITED TO
    62                           ; PROCUREMENT OF SUBSTITUTE GOODS OR SERVICES; LOSS OF USE, DATA OR PROFITS; OR BUSINESS
    63                           ; INTERRUPTION) HOWSOEVER CAUSED AND ON ANY THEORY OF LIABILITY, WHETHER IN CONTRACT, ST
      +                          RICT
    64                           ; LIABILITY, OR TORT (INCLUDING NEGLIGENCE OR OTHERWISE) ARISING IN ANY WAY OUT OF THE U
      +                          SE OF
    65                           ; THIS SOFTWARE, EVEN IF ADVISED OF THE POSSIBILITY OF SUCH DAMAGE.
    66                           ; 
    67                           ; 
    68                           ; Code-generator required, PIC18F45K20 Definitions
    69                           ; 
    70                           ; SFR Addresses
    71  0000                     _TXREG	set	4013
    72  0000                     _PIE1bits	set	3997
    73  0000                     _SPBRG	set	4015
    74  0000                     _BAUDCONbits	set	4024
    75  0000                     _RCSTAbits	set	4011
    76  0000                     _TXSTAbits	set	4012
    77  0000                     _TRISCbits	set	3988
    78  0000                     _OSCCONbits	set	4051
    79  0000                     _CCPR1L	set	4030
    80  0000                     _CCP1CONbits	set	4029
    81  0000                     _PR2	set	4043
    82  0000                     _T2CONbits	set	4042
    83  0000                     _ADRESH	set	4036
    84  0000                     _ADRESL	set	4035
    85  0000                     _ADCON0bits	set	4034
    86  0000                     _ADCON1bits	set	4033
    87  0000                     _ADCON2bits	set	4032
    88  0000                     _ANSELbits	set	3966
    89  0000                     _TRISBbits	set	3987
    90  0000                     _TRISAbits	set	3986
    91  0000                     _TRISDbits	set	3989
    92  0000                     _RCREG	set	4014
    93  0000                     _PORTDbits	set	3971
    94  0000                     _PORTAbits	set	3968
    95  0000                     _PORTD	set	3971
    96  0000                     _CREN	set	32092
    97  0000                     _OERR	set	32089
    98  0000                     _TRMT	set	32097
    99  0000                     _TXIF	set	31988
   100  0000                     _PEIE	set	32662
   101  0000                     _DC1B0	set	32236
   102  0000                     _DC1B1	set	32237
   103  0000                     _GO	set	32273
   104  0000                     _RCIF	set	31989
   105                           
   106                           	psect	smallconst
   107  000600                     __psmallconst:
   108                           	callstack 0
   109  000600  00                 	db	0
   110  000601                     STR_2:
   111  000601  30                 	db	48	;'0'
   112  000602  00                 	db	0
   113  000603                     STR_1:
   114  000603  31                 	db	49	;'1'
   115  000604  00                 	db	0
   116  000605  00                 	db	0	; dummy byte at the end
   117  0000                     
   118                           ; #config settings
   119                           
   120                           	psect	cinit
   121  0017F8                     __pcinit:
   122                           	callstack 0
   123  0017F8                     start_initialization:
   124                           	callstack 0
   125  0017F8                     __initialization:
   126                           	callstack 0
   127                           
   128                           ; Clear objects allocated to COMRAM (18 bytes)
   129  0017F8  EE00  F04B         	lfsr	0,__pbssCOMRAM
   130  0017FC  0E12               	movlw	18
   131  0017FE                     clear_0:
   132  0017FE  6AEE               	clrf	postinc0,c
   133  001800  06E8               	decf	wreg,f,c
   134  001802  E1FD               	bnz	clear_0
   135  001804                     end_of_initialization:
   136                           	callstack 0
   137  001804                     __end_of__initialization:
   138                           	callstack 0
   139  001804  905D               	bcf	int$flags,0,c	;clear compiler interrupt flag (level 1)
   140  001806  925D               	bcf	int$flags,1,c	;clear compiler interrupt flag (level 2)
   141  001808  0E00               	movlw	low (__Lsmallconst shr (0+16))
   142  00180A  6EF8               	movwf	tblptru,c
   143  00180C  0E06               	movlw	high __Lsmallconst
   144  00180E  6EF7               	movwf	tblptrh,c
   145  001810  0100               	movlb	0
   146  001812  EF78  F007         	goto	_main	;jump to C main() function
   147                           
   148                           	psect	bssCOMRAM
   149  00004B                     __pbssCOMRAM:
   150                           	callstack 0
   151  00004B                     _get_value:
   152                           	callstack 0
   153  00004B                     	ds	2
   154  00004D                     _send_good_posture_msg_counter:
   155                           	callstack 0
   156  00004D                     	ds	2
   157  00004F                     _send_bad_posture_msg_counter:
   158                           	callstack 0
   159  00004F                     	ds	2
   160  000051                     _min_pos:
   161                           	callstack 0
   162  000051                     	ds	2
   163  000053                     _max_pos:
   164                           	callstack 0
   165  000053                     	ds	2
   166  000055                     _temp:
   167                           	callstack 0
   168  000055                     	ds	2
   169  000057                     _duty_cycle:
   170                           	callstack 0
   171  000057                     	ds	2
   172  000059                     _real_pos:
   173                           	callstack 0
   174  000059                     	ds	2
   175  00005B                     _neutral_pos:
   176                           	callstack 0
   177  00005B                     	ds	2
   178                           
   179                           	psect	cstackBANK0
   180  000060                     __pcstackBANK0:
   181                           	callstack 0
   182  000060                     ??_main:
   183                           
   184                           ; 1 bytes @ 0x0
   185  000060                     	ds	2
   186                           
   187                           	psect	cstackCOMRAM
   188  000001                     __pcstackCOMRAM:
   189                           	callstack 0
   190  000001                     ??_low_isr:
   191  000001                     
   192                           ; 1 bytes @ 0x0
   193  000001                     	ds	1
   194  000002                     ??_broadcast_BT:
   195  000002                     ?_ADCRead_Pos:
   196                           	callstack 0
   197  000002                     ?___lmul:
   198                           	callstack 0
   199  000002                     ?___aldiv:
   200                           	callstack 0
   201  000002                     ?___xxtofl:
   202                           	callstack 0
   203  000002                     BT_load_char@bt:
   204                           	callstack 0
   205  000002                     ___lmul@multiplier:
   206                           	callstack 0
   207  000002                     ___aldiv@dividend:
   208                           	callstack 0
   209  000002                     ___xxtofl@val:
   210                           	callstack 0
   211                           
   212                           ; 4 bytes @ 0x1
   213  000002                     	ds	1
   214  000003                     BT_load_string@string:
   215                           	callstack 0
   216                           
   217                           ; 2 bytes @ 0x2
   218  000003                     	ds	1
   219  000004                     ??_ADCRead_Pos:
   220                           
   221                           ; 1 bytes @ 0x3
   222  000004                     	ds	1
   223  000005                     
   224                           ; 1 bytes @ 0x4
   225  000005                     	ds	1
   226  000006                     ??___xxtofl:
   227  000006                     ADCRead_Pos@temp:
   228                           	callstack 0
   229  000006                     ___lmul@multiplicand:
   230                           	callstack 0
   231  000006                     ___aldiv@divisor:
   232                           	callstack 0
   233                           
   234                           ; 4 bytes @ 0x5
   235  000006                     	ds	4
   236  00000A                     ___aldiv@counter:
   237                           	callstack 0
   238  00000A                     ___xxtofl@sign:
   239                           	callstack 0
   240  00000A                     ___lmul@product:
   241                           	callstack 0
   242                           
   243                           ; 4 bytes @ 0x9
   244  00000A                     	ds	1
   245  00000B                     ___aldiv@sign:
   246                           	callstack 0
   247  00000B                     ___xxtofl@exp:
   248                           	callstack 0
   249                           
   250                           ; 1 bytes @ 0xA
   251  00000B                     	ds	1
   252  00000C                     ___aldiv@quotient:
   253                           	callstack 0
   254  00000C                     ___xxtofl@arg:
   255                           	callstack 0
   256                           
   257                           ; 4 bytes @ 0xB
   258  00000C                     	ds	4
   259  000010                     ?___flmul:
   260                           	callstack 0
   261  000010                     Vibration_ON@percentage:
   262                           	callstack 0
   263  000010                     ___flmul@b:
   264                           	callstack 0
   265                           
   266                           ; 4 bytes @ 0xF
   267  000010                     	ds	2
   268  000012                     ??_Vibration_ON:
   269                           
   270                           ; 1 bytes @ 0x11
   271  000012                     	ds	2
   272  000014                     ___flmul@a:
   273                           	callstack 0
   274                           
   275                           ; 4 bytes @ 0x13
   276  000014                     	ds	3
   277  000017                     Vibration_ON@output:
   278                           	callstack 0
   279                           
   280                           ; 4 bytes @ 0x16
   281  000017                     	ds	1
   282  000018                     ??___flmul:
   283                           
   284                           ; 1 bytes @ 0x17
   285  000018                     	ds	4
   286  00001C                     ___flmul@sign:
   287                           	callstack 0
   288                           
   289                           ; 1 bytes @ 0x1B
   290  00001C                     	ds	1
   291  00001D                     ___flmul@grs:
   292                           	callstack 0
   293                           
   294                           ; 4 bytes @ 0x1C
   295  00001D                     	ds	4
   296  000021                     ___flmul@aexp:
   297                           	callstack 0
   298                           
   299                           ; 1 bytes @ 0x20
   300  000021                     	ds	1
   301  000022                     ___flmul@bexp:
   302                           	callstack 0
   303                           
   304                           ; 1 bytes @ 0x21
   305  000022                     	ds	1
   306  000023                     ___flmul@prod:
   307                           	callstack 0
   308                           
   309                           ; 4 bytes @ 0x22
   310  000023                     	ds	4
   311  000027                     ___flmul@temp:
   312                           	callstack 0
   313                           
   314                           ; 2 bytes @ 0x26
   315  000027                     	ds	2
   316  000029                     ?___fladd:
   317                           	callstack 0
   318  000029                     ___fladd@b:
   319                           	callstack 0
   320                           
   321                           ; 4 bytes @ 0x28
   322  000029                     	ds	4
   323  00002D                     ___fladd@a:
   324                           	callstack 0
   325                           
   326                           ; 4 bytes @ 0x2C
   327  00002D                     	ds	4
   328  000031                     ??___fladd:
   329                           
   330                           ; 1 bytes @ 0x30
   331  000031                     	ds	4
   332  000035                     ___fladd@signs:
   333                           	callstack 0
   334                           
   335                           ; 1 bytes @ 0x34
   336  000035                     	ds	1
   337  000036                     ___fladd@aexp:
   338                           	callstack 0
   339                           
   340                           ; 1 bytes @ 0x35
   341  000036                     	ds	1
   342  000037                     ___fladd@bexp:
   343                           	callstack 0
   344                           
   345                           ; 1 bytes @ 0x36
   346  000037                     	ds	1
   347  000038                     ___fladd@grs:
   348                           	callstack 0
   349                           
   350                           ; 1 bytes @ 0x37
   351  000038                     	ds	1
   352  000039                     ?___flsub:
   353                           	callstack 0
   354  000039                     ___flsub@b:
   355                           	callstack 0
   356                           
   357                           ; 4 bytes @ 0x38
   358  000039                     	ds	4
   359  00003D                     ___flsub@a:
   360                           	callstack 0
   361                           
   362                           ; 4 bytes @ 0x3C
   363  00003D                     	ds	4
   364  000041                     ?___fltol:
   365                           	callstack 0
   366  000041                     ___fltol@f1:
   367                           	callstack 0
   368                           
   369                           ; 4 bytes @ 0x40
   370  000041                     	ds	4
   371  000045                     ??___fltol:
   372                           
   373                           ; 1 bytes @ 0x44
   374  000045                     	ds	4
   375  000049                     ___fltol@sign1:
   376                           	callstack 0
   377                           
   378                           ; 1 bytes @ 0x48
   379  000049                     	ds	1
   380  00004A                     ___fltol@exp1:
   381                           	callstack 0
   382                           
   383                           ; 1 bytes @ 0x49
   384  00004A                     	ds	1
   385                           
   386 ;;
   387 ;;Main: autosize = 0, tempsize = 2, incstack = 0, save=0
   388 ;;
   389 ;; *************** function _main *****************
   390 ;; Defined at:
   391 ;;		line 48 in file "main.c"
   392 ;; Parameters:    Size  Location     Type
   393 ;;		None
   394 ;; Auto vars:     Size  Location     Type
   395 ;;		None
   396 ;; Return value:  Size  Location     Type
   397 ;;                  1    wreg      void 
   398 ;; Registers used:
   399 ;;		wreg, status,2, status,0, tblptrl, tblptrh, tblptru, prodl, prodh, cstack
   400 ;; Tracked objects:
   401 ;;		On entry : 0/0
   402 ;;		On exit  : 0/0
   403 ;;		Unchanged: 0/0
   404 ;; Data sizes:     COMRAM   BANK0   BANK1   BANK2   BANK3   BANK4   BANK5
   405 ;;      Params:         0       0       0       0       0       0       0
   406 ;;      Locals:         0       0       0       0       0       0       0
   407 ;;      Temps:          0       2       0       0       0       0       0
   408 ;;      Totals:         0       2       0       0       0       0       0
   409 ;;Total ram usage:        2 bytes
   410 ;; Hardware stack levels required when called:    4
   411 ;; This function calls:
   412 ;;		_ADCRead_Pos
   413 ;;		_BT_load_string
   414 ;;		_ConfigureOscillator
   415 ;;		_InitApp
   416 ;;		_Init_ADC
   417 ;;		_Init_EUSART
   418 ;;		_Init_PWM
   419 ;;		_Vibration_ON
   420 ;;		___fladd
   421 ;;		___flmul
   422 ;;		___flsub
   423 ;;		___fltol
   424 ;;		___xxtofl
   425 ;;		_broadcast_BT
   426 ;; This function is called by:
   427 ;;		Startup code after reset
   428 ;; This function uses a non-reentrant model
   429 ;;
   430                           
   431                           	psect	text0
   432  000EF0                     __ptext0:
   433                           	callstack 0
   434  000EF0                     _main:
   435                           	callstack 27
   436  000EF0                     
   437                           ;main.c: 51:     ConfigureOscillator();
   438  000EF0  EC30  F00C         	call	_ConfigureOscillator	;wreg free
   439                           
   440                           ;main.c: 55:     InitApp();
   441  000EF4  EC28  F00C         	call	_InitApp	;wreg free
   442                           
   443                           ;main.c: 56:     Init_ADC();
   444  000EF8  ECEB  F00B         	call	_Init_ADC	;wreg free
   445  000EFC                     
   446                           ;main.c: 57:     Init_PWM();
   447  000EFC  EC0B  F00C         	call	_Init_PWM	;wreg free
   448  000F00                     
   449                           ;main.c: 58:     Init_EUSART();
   450  000F00  ECB3  F00B         	call	_Init_EUSART	;wreg free
   451  000F04                     
   452                           ;main.c: 61:     neutral_pos = 0;
   453  000F04  0E00               	movlw	0
   454  000F06  6E5C               	movwf	(_neutral_pos+1)^0,c
   455  000F08  0E00               	movlw	0
   456  000F0A  6E5B               	movwf	_neutral_pos^0,c
   457  000F0C                     
   458                           ;main.c: 62:     real_pos =0;
   459  000F0C  0E00               	movlw	0
   460  000F0E  6E5A               	movwf	(_real_pos+1)^0,c
   461  000F10  0E00               	movlw	0
   462  000F12  6E59               	movwf	_real_pos^0,c
   463  000F14                     
   464                           ;main.c: 63:     send_bad_posture_msg_counter = 0;
   465  000F14  0E00               	movlw	0
   466  000F16  6E50               	movwf	(_send_bad_posture_msg_counter+1)^0,c
   467  000F18  0E00               	movlw	0
   468  000F1A  6E4F               	movwf	_send_bad_posture_msg_counter^0,c
   469  000F1C                     
   470                           ;main.c: 64:     send_good_posture_msg_counter = 0;
   471  000F1C  0E00               	movlw	0
   472  000F1E  6E4E               	movwf	(_send_good_posture_msg_counter+1)^0,c
   473  000F20  0E00               	movlw	0
   474  000F22  6E4D               	movwf	_send_good_posture_msg_counter^0,c
   475  000F24                     
   476                           ;main.c: 65:     PORTD =0x00;
   477  000F24  0E00               	movlw	0
   478  000F26  6E83               	movwf	131,c	;volatile
   479  000F28                     
   480                           ;main.c: 66:     PORTAbits.RA0 =0;
   481  000F28  9080               	bcf	128,0,c	;volatile
   482  000F2A                     
   483                           ;main.c: 67:     Vibration_ON(0);
   484  000F2A  0E00               	movlw	0
   485  000F2C  6E11               	movwf	(Vibration_ON@percentage+1)^0,c
   486  000F2E  0E00               	movlw	0
   487  000F30  6E10               	movwf	Vibration_ON@percentage^0,c
   488  000F32  ECA2  F009         	call	_Vibration_ON	;wreg free
   489  000F36                     l2109:
   490                           
   491                           ;main.c: 70:     neutral_pos = ADCRead_Pos();
   492  000F36  ECD9  F00B         	call	_ADCRead_Pos	;wreg free
   493  000F3A  C002  F05B         	movff	?_ADCRead_Pos,_neutral_pos
   494  000F3E  C003  F05C         	movff	?_ADCRead_Pos+1,_neutral_pos+1
   495  000F42                     l2111:
   496                           
   497                           ;main.c: 82:    {;main.c: 84:     min_pos = neutral_pos - (neutral_pos*0.10);
   498  000F42  0ECD               	movlw	205
   499  000F44  6E14               	movwf	___flmul@a^0,c
   500  000F46  0ECC               	movlw	204
   501  000F48  6E15               	movwf	(___flmul@a+1)^0,c
   502  000F4A  0ECC               	movlw	204
   503  000F4C  6E16               	movwf	(___flmul@a+2)^0,c
   504  000F4E  0E3D               	movlw	61
   505  000F50  6E17               	movwf	(___flmul@a+3)^0,c
   506  000F52  C05B  F002         	movff	_neutral_pos,___xxtofl@val
   507  000F56  C05C  F003         	movff	_neutral_pos+1,___xxtofl@val+1
   508  000F5A  6A04               	clrf	(___xxtofl@val+2)^0,c
   509  000F5C  6A05               	clrf	(___xxtofl@val+3)^0,c
   510  000F5E  0E00               	movlw	0
   511  000F60  ECC8  F008         	call	___xxtofl
   512  000F64  C002  F010         	movff	?___xxtofl,___flmul@b
   513  000F68  C003  F011         	movff	?___xxtofl+1,___flmul@b+1
   514  000F6C  C004  F012         	movff	?___xxtofl+2,___flmul@b+2
   515  000F70  C005  F013         	movff	?___xxtofl+3,___flmul@b+3
   516  000F74  EC63  F005         	call	___flmul	;wreg free
   517  000F78  C010  F03D         	movff	?___flmul,___flsub@a
   518  000F7C  C011  F03E         	movff	?___flmul+1,___flsub@a+1
   519  000F80  C012  F03F         	movff	?___flmul+2,___flsub@a+2
   520  000F84  C013  F040         	movff	?___flmul+3,___flsub@a+3
   521  000F88  C05B  F002         	movff	_neutral_pos,___xxtofl@val
   522  000F8C  C05C  F003         	movff	_neutral_pos+1,___xxtofl@val+1
   523  000F90  6A04               	clrf	(___xxtofl@val+2)^0,c
   524  000F92  6A05               	clrf	(___xxtofl@val+3)^0,c
   525  000F94  0E00               	movlw	0
   526  000F96  ECC8  F008         	call	___xxtofl
   527  000F9A  C002  F039         	movff	?___xxtofl,___flsub@b
   528  000F9E  C003  F03A         	movff	?___xxtofl+1,___flsub@b+1
   529  000FA2  C004  F03B         	movff	?___xxtofl+2,___flsub@b+2
   530  000FA6  C005  F03C         	movff	?___xxtofl+3,___flsub@b+3
   531  000FAA  EC75  F00B         	call	___flsub	;wreg free
   532  000FAE  C039  F041         	movff	?___flsub,___fltol@f1
   533  000FB2  C03A  F042         	movff	?___flsub+1,___fltol@f1+1
   534  000FB6  C03B  F043         	movff	?___flsub+2,___fltol@f1+2
   535  000FBA  C03C  F044         	movff	?___flsub+3,___fltol@f1+3
   536  000FBE  ECBD  F00A         	call	___fltol	;wreg free
   537  000FC2  C041  F051         	movff	?___fltol,_min_pos
   538  000FC6  C042  F052         	movff	?___fltol+1,_min_pos+1
   539  000FCA                     
   540                           ;main.c: 85:     max_pos = neutral_pos + (neutral_pos*0.10);
   541  000FCA  0ECD               	movlw	205
   542  000FCC  6E14               	movwf	___flmul@a^0,c
   543  000FCE  0ECC               	movlw	204
   544  000FD0  6E15               	movwf	(___flmul@a+1)^0,c
   545  000FD2  0ECC               	movlw	204
   546  000FD4  6E16               	movwf	(___flmul@a+2)^0,c
   547  000FD6  0E3D               	movlw	61
   548  000FD8  6E17               	movwf	(___flmul@a+3)^0,c
   549  000FDA  C05B  F002         	movff	_neutral_pos,___xxtofl@val
   550  000FDE  C05C  F003         	movff	_neutral_pos+1,___xxtofl@val+1
   551  000FE2  6A04               	clrf	(___xxtofl@val+2)^0,c
   552  000FE4  6A05               	clrf	(___xxtofl@val+3)^0,c
   553  000FE6  0E00               	movlw	0
   554  000FE8  ECC8  F008         	call	___xxtofl
   555  000FEC  C002  F010         	movff	?___xxtofl,___flmul@b
   556  000FF0  C003  F011         	movff	?___xxtofl+1,___flmul@b+1
   557  000FF4  C004  F012         	movff	?___xxtofl+2,___flmul@b+2
   558  000FF8  C005  F013         	movff	?___xxtofl+3,___flmul@b+3
   559  000FFC  EC63  F005         	call	___flmul	;wreg free
   560  001000  C010  F02D         	movff	?___flmul,___fladd@a
   561  001004  C011  F02E         	movff	?___flmul+1,___fladd@a+1
   562  001008  C012  F02F         	movff	?___flmul+2,___fladd@a+2
   563  00100C  C013  F030         	movff	?___flmul+3,___fladd@a+3
   564  001010  C05B  F002         	movff	_neutral_pos,___xxtofl@val
   565  001014  C05C  F003         	movff	_neutral_pos+1,___xxtofl@val+1
   566  001018  6A04               	clrf	(___xxtofl@val+2)^0,c
   567  00101A  6A05               	clrf	(___xxtofl@val+3)^0,c
   568  00101C  0E00               	movlw	0
   569  00101E  ECC8  F008         	call	___xxtofl
   570  001022  C002  F029         	movff	?___xxtofl,___fladd@b
   571  001026  C003  F02A         	movff	?___xxtofl+1,___fladd@b+1
   572  00102A  C004  F02B         	movff	?___xxtofl+2,___fladd@b+2
   573  00102E  C005  F02C         	movff	?___xxtofl+3,___fladd@b+3
   574  001032  EC03  F003         	call	___fladd	;wreg free
   575  001036  C029  F041         	movff	?___fladd,___fltol@f1
   576  00103A  C02A  F042         	movff	?___fladd+1,___fltol@f1+1
   577  00103E  C02B  F043         	movff	?___fladd+2,___fltol@f1+2
   578  001042  C02C  F044         	movff	?___fladd+3,___fltol@f1+3
   579  001046  ECBD  F00A         	call	___fltol	;wreg free
   580  00104A  C041  F053         	movff	?___fltol,_max_pos
   581  00104E  C042  F054         	movff	?___fltol+1,_max_pos+1
   582  001052                     
   583                           ;main.c: 87:     real_pos = ADCRead_Pos();
   584  001052  ECD9  F00B         	call	_ADCRead_Pos	;wreg free
   585  001056  C002  F059         	movff	?_ADCRead_Pos,_real_pos
   586  00105A  C003  F05A         	movff	?_ADCRead_Pos+1,_real_pos+1
   587  00105E                     
   588                           ;main.c: 89:         if ((real_pos>=min_pos)&&(real_pos<=max_pos)){
   589  00105E  5051               	movf	_min_pos^0,w,c
   590  001060  5C59               	subwf	_real_pos^0,w,c
   591  001062  5052               	movf	(_min_pos+1)^0,w,c
   592  001064  585A               	subwfb	(_real_pos+1)^0,w,c
   593  001066  A0D8               	btfss	status,0,c
   594  001068  EF38  F008         	goto	u2001
   595  00106C  EF3A  F008         	goto	u2000
   596  001070                     u2001:
   597  001070  EF71  F008         	goto	l72
   598  001074                     u2000:
   599  001074  5059               	movf	_real_pos^0,w,c
   600  001076  5C53               	subwf	_max_pos^0,w,c
   601  001078  505A               	movf	(_real_pos+1)^0,w,c
   602  00107A  5854               	subwfb	(_max_pos+1)^0,w,c
   603  00107C  A0D8               	btfss	status,0,c
   604  00107E  EF43  F008         	goto	u2011
   605  001082  EF45  F008         	goto	u2010
   606  001086                     u2011:
   607  001086  EF71  F008         	goto	l72
   608  00108A                     u2010:
   609  00108A                     
   610                           ;main.c: 91:             PORTDbits.RD0=0;
   611  00108A  9083               	bcf	131,0,c	;volatile
   612  00108C                     
   613                           ;main.c: 93:             Vibration_ON(0);
   614  00108C  0E00               	movlw	0
   615  00108E  6E11               	movwf	(Vibration_ON@percentage+1)^0,c
   616  001090  0E00               	movlw	0
   617  001092  6E10               	movwf	Vibration_ON@percentage^0,c
   618  001094  ECA2  F009         	call	_Vibration_ON	;wreg free
   619  001098                     
   620                           ;main.c: 94:             send_bad_posture_msg_counter = 0;
   621  001098  0E00               	movlw	0
   622  00109A  6E50               	movwf	(_send_bad_posture_msg_counter+1)^0,c
   623  00109C  0E00               	movlw	0
   624  00109E  6E4F               	movwf	_send_bad_posture_msg_counter^0,c
   625  0010A0                     
   626                           ;main.c: 95:             if(send_good_posture_msg_counter == 0){
   627  0010A0  504D               	movf	_send_good_posture_msg_counter^0,w,c
   628  0010A2  104E               	iorwf	(_send_good_posture_msg_counter+1)^0,w,c
   629  0010A4  A4D8               	btfss	status,2,c
   630  0010A6  EF57  F008         	goto	u2021
   631  0010AA  EF59  F008         	goto	u2020
   632  0010AE                     u2021:
   633  0010AE  EF6D  F008         	goto	l2135
   634  0010B2                     u2020:
   635  0010B2                     
   636                           ;main.c: 96:                 BT_load_string("1");
   637  0010B2  0E03               	movlw	low STR_1
   638  0010B4  6E03               	movwf	BT_load_string@string^0,c
   639  0010B6  0E06               	movlw	high STR_1
   640  0010B8  6E04               	movwf	(BT_load_string@string+1)^0,c
   641  0010BA  EC98  F00B         	call	_BT_load_string	;wreg free
   642  0010BE                     
   643                           ;main.c: 97:                 _delay((unsigned long)((100)*(16000000/4000.0)));
   644  0010BE  0E03               	movlw	3
   645  0010C0  0100               	movlb	0	; () banked
   646  0010C2  6F61               	movwf	(??_main+1)& (0+255),b
   647  0010C4  0E08               	movlw	8
   648  0010C6  6F60               	movwf	??_main& (0+255),b
   649  0010C8  0E77               	movlw	119
   650  0010CA                     u2067:
   651  0010CA  2EE8               	decfsz	wreg,f,c
   652  0010CC  D7FE               	bra	u2067
   653  0010CE  2F60               	decfsz	??_main& (0+255),f,b
   654  0010D0  D7FC               	bra	u2067
   655  0010D2  2F61               	decfsz	(??_main+1)& (0+255),f,b
   656  0010D4  D7FA               	bra	u2067
   657  0010D6                     
   658                           ;main.c: 98:                 broadcast_BT();
   659  0010D6  EC1A  F00C         	call	_broadcast_BT	;wreg free
   660  0010DA                     l2135:
   661                           
   662                           ;main.c: 100:             send_good_posture_msg_counter++;
   663  0010DA  4A4D               	infsnz	_send_good_posture_msg_counter^0,f,c
   664  0010DC  2A4E               	incf	(_send_good_posture_msg_counter+1)^0,f,c
   665                           
   666                           ;main.c: 101:         }
   667  0010DE  EFA7  F008         	goto	l2153
   668  0010E2                     l72:
   669                           
   670                           ;main.c: 105:             PORTDbits.RD0=1;
   671  0010E2  8083               	bsf	131,0,c	;volatile
   672  0010E4                     
   673                           ;main.c: 107:             _delay((unsigned long)((100)*(16000000/4000.0)));
   674  0010E4  0E03               	movlw	3
   675  0010E6  0100               	movlb	0	; () banked
   676  0010E8  6F61               	movwf	(??_main+1)& (0+255),b
   677  0010EA  0E08               	movlw	8
   678  0010EC  6F60               	movwf	??_main& (0+255),b
   679  0010EE  0E77               	movlw	119
   680  0010F0                     u2077:
   681  0010F0  2EE8               	decfsz	wreg,f,c
   682  0010F2  D7FE               	bra	u2077
   683  0010F4  2F60               	decfsz	??_main& (0+255),f,b
   684  0010F6  D7FC               	bra	u2077
   685  0010F8  2F61               	decfsz	(??_main+1)& (0+255),f,b
   686  0010FA  D7FA               	bra	u2077
   687  0010FC                     
   688                           ;main.c: 110:             Vibration_ON(50);
   689  0010FC  0E00               	movlw	0
   690  0010FE  6E11               	movwf	(Vibration_ON@percentage+1)^0,c
   691  001100  0E32               	movlw	50
   692  001102  6E10               	movwf	Vibration_ON@percentage^0,c
   693  001104  ECA2  F009         	call	_Vibration_ON	;wreg free
   694  001108                     
   695                           ;main.c: 111:             send_good_posture_msg_counter = 0;
   696  001108  0E00               	movlw	0
   697  00110A  6E4E               	movwf	(_send_good_posture_msg_counter+1)^0,c
   698  00110C  0E00               	movlw	0
   699  00110E  6E4D               	movwf	_send_good_posture_msg_counter^0,c
   700  001110                     
   701                           ;main.c: 112:             if (send_bad_posture_msg_counter == 0){
   702  001110  504F               	movf	_send_bad_posture_msg_counter^0,w,c
   703  001112  1050               	iorwf	(_send_bad_posture_msg_counter+1)^0,w,c
   704  001114  A4D8               	btfss	status,2,c
   705  001116  EF8F  F008         	goto	u2031
   706  00111A  EF91  F008         	goto	u2030
   707  00111E                     u2031:
   708  00111E  EFA5  F008         	goto	l2151
   709  001122                     u2030:
   710  001122                     
   711                           ;main.c: 113:                 BT_load_string("0");
   712  001122  0E01               	movlw	low STR_2
   713  001124  6E03               	movwf	BT_load_string@string^0,c
   714  001126  0E06               	movlw	high STR_2
   715  001128  6E04               	movwf	(BT_load_string@string+1)^0,c
   716  00112A  EC98  F00B         	call	_BT_load_string	;wreg free
   717  00112E                     
   718                           ;main.c: 114:                 _delay((unsigned long)((100)*(16000000/4000.0)));
   719  00112E  0E03               	movlw	3
   720  001130  0100               	movlb	0	; () banked
   721  001132  6F61               	movwf	(??_main+1)& (0+255),b
   722  001134  0E08               	movlw	8
   723  001136  6F60               	movwf	??_main& (0+255),b
   724  001138  0E77               	movlw	119
   725  00113A                     u2087:
   726  00113A  2EE8               	decfsz	wreg,f,c
   727  00113C  D7FE               	bra	u2087
   728  00113E  2F60               	decfsz	??_main& (0+255),f,b
   729  001140  D7FC               	bra	u2087
   730  001142  2F61               	decfsz	(??_main+1)& (0+255),f,b
   731  001144  D7FA               	bra	u2087
   732  001146                     
   733                           ;main.c: 115:                 broadcast_BT();
   734  001146  EC1A  F00C         	call	_broadcast_BT	;wreg free
   735  00114A                     l2151:
   736                           
   737                           ;main.c: 118:             send_bad_posture_msg_counter++;
   738  00114A  4A4F               	infsnz	_send_bad_posture_msg_counter^0,f,c
   739  00114C  2A50               	incf	(_send_bad_posture_msg_counter+1)^0,f,c
   740  00114E                     l2153:
   741                           
   742                           ;main.c: 122:     if (RCIF == 1){
   743  00114E  AA9E               	btfss	3998,5,c	;volatile
   744  001150  EFAC  F008         	goto	u2041
   745  001154  EFAE  F008         	goto	u2040
   746  001158                     u2041:
   747  001158  EFA1  F007         	goto	l2111
   748  00115C                     u2040:
   749  00115C                     
   750                           ;main.c: 124:             if(RCREG=='1'){
   751  00115C  0E31               	movlw	49
   752  00115E  18AE               	xorwf	174,w,c	;volatile
   753  001160  A4D8               	btfss	status,2,c
   754  001162  EFB5  F008         	goto	u2051
   755  001166  EFB7  F008         	goto	u2050
   756  00116A                     u2051:
   757  00116A  EFA1  F007         	goto	l2111
   758  00116E                     u2050:
   759  00116E                     
   760                           ;main.c: 126:                 PORTDbits.RD1=1;
   761  00116E  8283               	bsf	131,1,c	;volatile
   762  001170                     
   763                           ;main.c: 127:                 _delay((unsigned long)((200)*(16000000/4000.0)));
   764  001170  0E05               	movlw	5
   765  001172  0100               	movlb	0	; () banked
   766  001174  6F61               	movwf	(??_main+1)& (0+255),b
   767  001176  0E0F               	movlw	15
   768  001178  6F60               	movwf	??_main& (0+255),b
   769  00117A  0EF1               	movlw	241
   770  00117C                     u2097:
   771  00117C  2EE8               	decfsz	wreg,f,c
   772  00117E  D7FE               	bra	u2097
   773  001180  2F60               	decfsz	??_main& (0+255),f,b
   774  001182  D7FC               	bra	u2097
   775  001184  2F61               	decfsz	(??_main+1)& (0+255),f,b
   776  001186  D7FA               	bra	u2097
   777  001188  EF9B  F007         	goto	l2109
   778  00118C  EF13  F000         	goto	start
   779  001190                     __end_of_main:
   780                           	callstack 0
   781                           
   782 ;; *************** function _broadcast_BT *****************
   783 ;; Defined at:
   784 ;;		line 46 in file "EUSART.c"
   785 ;; Parameters:    Size  Location     Type
   786 ;;		None
   787 ;; Auto vars:     Size  Location     Type
   788 ;;		None
   789 ;; Return value:  Size  Location     Type
   790 ;;                  1    wreg      void 
   791 ;; Registers used:
   792 ;;		wreg, status,2
   793 ;; Tracked objects:
   794 ;;		On entry : 0/0
   795 ;;		On exit  : 0/0
   796 ;;		Unchanged: 0/0
   797 ;; Data sizes:     COMRAM   BANK0   BANK1   BANK2   BANK3   BANK4   BANK5
   798 ;;      Params:         0       0       0       0       0       0       0
   799 ;;      Locals:         0       0       0       0       0       0       0
   800 ;;      Temps:          2       0       0       0       0       0       0
   801 ;;      Totals:         2       0       0       0       0       0       0
   802 ;;Total ram usage:        2 bytes
   803 ;; Hardware stack levels used:    1
   804 ;; Hardware stack levels required when called:    2
   805 ;; This function calls:
   806 ;;		Nothing
   807 ;; This function is called by:
   808 ;;		_main
   809 ;; This function uses a non-reentrant model
   810 ;;
   811                           
   812                           	psect	text1
   813  001834                     __ptext1:
   814                           	callstack 0
   815  001834                     _broadcast_BT:
   816                           	callstack 28
   817  001834                     
   818                           ;EUSART.c: 48:   TXREG = 13;
   819  001834  0E0D               	movlw	13
   820  001836  6EAD               	movwf	173,c	;volatile
   821  001838                     
   822                           ;EUSART.c: 49:   _delay((unsigned long)((500)*(16000000/4000.0)));
   823  001838  0E0B               	movlw	11
   824  00183A  6E03               	movwf	(??_broadcast_BT+1)^0,c
   825  00183C  0E26               	movlw	38
   826  00183E  6E02               	movwf	??_broadcast_BT^0,c
   827  001840  0E5E               	movlw	94
   828  001842                     u2107:
   829  001842  2EE8               	decfsz	wreg,f,c
   830  001844  D7FE               	bra	u2107
   831  001846  2E02               	decfsz	??_broadcast_BT^0,f,c
   832  001848  D7FC               	bra	u2107
   833  00184A  2E03               	decfsz	(??_broadcast_BT+1)^0,f,c
   834  00184C  D7FA               	bra	u2107
   835  00184E  0012               	return		;funcret
   836  001850                     __end_of_broadcast_BT:
   837                           	callstack 0
   838                           
   839 ;; *************** function ___xxtofl *****************
   840 ;; Defined at:
   841 ;;		line 10 in file "C:\Program Files\Microchip\xc8\v2.30\pic\sources\c99\common\xxtofl.c"
   842 ;; Parameters:    Size  Location     Type
   843 ;;  sign            1    wreg     unsigned char 
   844 ;;  val             4    1[COMRAM] long 
   845 ;; Auto vars:     Size  Location     Type
   846 ;;  sign            1    9[COMRAM] unsigned char 
   847 ;;  arg             4   11[COMRAM] unsigned long 
   848 ;;  exp             1   10[COMRAM] unsigned char 
   849 ;; Return value:  Size  Location     Type
   850 ;;                  4    1[COMRAM] unsigned char 
   851 ;; Registers used:
   852 ;;		wreg, status,2, status,0
   853 ;; Tracked objects:
   854 ;;		On entry : 0/0
   855 ;;		On exit  : 0/0
   856 ;;		Unchanged: 0/0
   857 ;; Data sizes:     COMRAM   BANK0   BANK1   BANK2   BANK3   BANK4   BANK5
   858 ;;      Params:         4       0       0       0       0       0       0
   859 ;;      Locals:         6       0       0       0       0       0       0
   860 ;;      Temps:          4       0       0       0       0       0       0
   861 ;;      Totals:        14       0       0       0       0       0       0
   862 ;;Total ram usage:       14 bytes
   863 ;; Hardware stack levels used:    1
   864 ;; Hardware stack levels required when called:    2
   865 ;; This function calls:
   866 ;;		Nothing
   867 ;; This function is called by:
   868 ;;		_main
   869 ;; This function uses a non-reentrant model
   870 ;;
   871                           
   872                           	psect	text2
   873  001190                     __ptext2:
   874                           	callstack 0
   875  001190                     ___xxtofl:
   876                           	callstack 28
   877                           
   878                           ;incstack = 0
   879                           ;___xxtofl@sign stored from wreg
   880  001190  6E0A               	movwf	___xxtofl@sign^0,c
   881  001192  500A               	movf	___xxtofl@sign^0,w,c
   882  001194  B4D8               	btfsc	status,2,c
   883  001196  EFCF  F008         	goto	u1841
   884  00119A  EFD1  F008         	goto	u1840
   885  00119E                     u1841:
   886  00119E  EFF3  F008         	goto	l855
   887  0011A2                     u1840:
   888  0011A2  BE05               	btfsc	(___xxtofl@val+3)^0,7,c
   889  0011A4  EFD8  F008         	goto	u1850
   890  0011A8  EFD6  F008         	goto	u1851
   891  0011AC                     u1851:
   892  0011AC  EFF3  F008         	goto	l855
   893  0011B0                     u1850:
   894  0011B0  C002  F006         	movff	___xxtofl@val,??___xxtofl
   895  0011B4  C003  F007         	movff	___xxtofl@val+1,??___xxtofl+1
   896  0011B8  C004  F008         	movff	___xxtofl@val+2,??___xxtofl+2
   897  0011BC  C005  F009         	movff	___xxtofl@val+3,??___xxtofl+3
   898  0011C0  1E06               	comf	??___xxtofl^0,f,c
   899  0011C2  1E07               	comf	(??___xxtofl+1)^0,f,c
   900  0011C4  1E08               	comf	(??___xxtofl+2)^0,f,c
   901  0011C6  1E09               	comf	(??___xxtofl+3)^0,f,c
   902  0011C8  2A06               	incf	??___xxtofl^0,f,c
   903  0011CA  0E00               	movlw	0
   904  0011CC  2207               	addwfc	(??___xxtofl+1)^0,f,c
   905  0011CE  2208               	addwfc	(??___xxtofl+2)^0,f,c
   906  0011D0  2209               	addwfc	(??___xxtofl+3)^0,f,c
   907  0011D2  C006  F00C         	movff	??___xxtofl,___xxtofl@arg
   908  0011D6  C007  F00D         	movff	??___xxtofl+1,___xxtofl@arg+1
   909  0011DA  C008  F00E         	movff	??___xxtofl+2,___xxtofl@arg+2
   910  0011DE  C009  F00F         	movff	??___xxtofl+3,___xxtofl@arg+3
   911  0011E2  EFFB  F008         	goto	l1975
   912  0011E6                     l855:
   913  0011E6  C002  F00C         	movff	___xxtofl@val,___xxtofl@arg
   914  0011EA  C003  F00D         	movff	___xxtofl@val+1,___xxtofl@arg+1
   915  0011EE  C004  F00E         	movff	___xxtofl@val+2,___xxtofl@arg+2
   916  0011F2  C005  F00F         	movff	___xxtofl@val+3,___xxtofl@arg+3
   917  0011F6                     l1975:
   918  0011F6  5002               	movf	___xxtofl@val^0,w,c
   919  0011F8  1003               	iorwf	(___xxtofl@val+1)^0,w,c
   920  0011FA  1004               	iorwf	(___xxtofl@val+2)^0,w,c
   921  0011FC  1005               	iorwf	(___xxtofl@val+3)^0,w,c
   922  0011FE  A4D8               	btfss	status,2,c
   923  001200  EF04  F009         	goto	u1861
   924  001204  EF06  F009         	goto	u1860
   925  001208                     u1861:
   926  001208  EF10  F009         	goto	l1981
   927  00120C                     u1860:
   928  00120C  0E00               	movlw	0
   929  00120E  6E02               	movwf	?___xxtofl^0,c
   930  001210  0E00               	movlw	0
   931  001212  6E03               	movwf	(?___xxtofl+1)^0,c
   932  001214  0E00               	movlw	0
   933  001216  6E04               	movwf	(?___xxtofl+2)^0,c
   934  001218  0E00               	movlw	0
   935  00121A  6E05               	movwf	(?___xxtofl+3)^0,c
   936  00121C  EFA1  F009         	goto	l858
   937  001220                     l1981:
   938  001220  0E96               	movlw	150
   939  001222  6E0B               	movwf	___xxtofl@exp^0,c
   940  001224  EF1A  F009         	goto	l1985
   941  001228                     l1983:
   942  001228  2A0B               	incf	___xxtofl@exp^0,f,c
   943  00122A  90D8               	bcf	status,0,c
   944  00122C  320F               	rrcf	(___xxtofl@arg+3)^0,f,c
   945  00122E  320E               	rrcf	(___xxtofl@arg+2)^0,f,c
   946  001230  320D               	rrcf	(___xxtofl@arg+1)^0,f,c
   947  001232  320C               	rrcf	___xxtofl@arg^0,f,c
   948  001234                     l1985:
   949  001234  0E00               	movlw	0
   950  001236  140C               	andwf	___xxtofl@arg^0,w,c
   951  001238  6E06               	movwf	??___xxtofl^0,c
   952  00123A  0E00               	movlw	0
   953  00123C  140D               	andwf	(___xxtofl@arg+1)^0,w,c
   954  00123E  6E07               	movwf	(??___xxtofl+1)^0,c
   955  001240  0E00               	movlw	0
   956  001242  140E               	andwf	(___xxtofl@arg+2)^0,w,c
   957  001244  6E08               	movwf	(??___xxtofl+2)^0,c
   958  001246  0EFE               	movlw	254
   959  001248  140F               	andwf	(___xxtofl@arg+3)^0,w,c
   960  00124A  6E09               	movwf	(??___xxtofl+3)^0,c
   961  00124C  5006               	movf	??___xxtofl^0,w,c
   962  00124E  1007               	iorwf	(??___xxtofl+1)^0,w,c
   963  001250  1008               	iorwf	(??___xxtofl+2)^0,w,c
   964  001252  1009               	iorwf	(??___xxtofl+3)^0,w,c
   965  001254  A4D8               	btfss	status,2,c
   966  001256  EF2F  F009         	goto	u1871
   967  00125A  EF31  F009         	goto	u1870
   968  00125E                     u1871:
   969  00125E  EF14  F009         	goto	l1983
   970  001262                     u1870:
   971  001262  EF3F  F009         	goto	l862
   972  001266                     l1987:
   973  001266  2A0B               	incf	___xxtofl@exp^0,f,c
   974  001268  0E01               	movlw	1
   975  00126A  260C               	addwf	___xxtofl@arg^0,f,c
   976  00126C  0E00               	movlw	0
   977  00126E  220D               	addwfc	(___xxtofl@arg+1)^0,f,c
   978  001270  220E               	addwfc	(___xxtofl@arg+2)^0,f,c
   979  001272  220F               	addwfc	(___xxtofl@arg+3)^0,f,c
   980  001274  90D8               	bcf	status,0,c
   981  001276  320F               	rrcf	(___xxtofl@arg+3)^0,f,c
   982  001278  320E               	rrcf	(___xxtofl@arg+2)^0,f,c
   983  00127A  320D               	rrcf	(___xxtofl@arg+1)^0,f,c
   984  00127C  320C               	rrcf	___xxtofl@arg^0,f,c
   985  00127E                     l862:
   986  00127E  0E00               	movlw	0
   987  001280  140C               	andwf	___xxtofl@arg^0,w,c
   988  001282  6E06               	movwf	??___xxtofl^0,c
   989  001284  0E00               	movlw	0
   990  001286  140D               	andwf	(___xxtofl@arg+1)^0,w,c
   991  001288  6E07               	movwf	(??___xxtofl+1)^0,c
   992  00128A  0E00               	movlw	0
   993  00128C  140E               	andwf	(___xxtofl@arg+2)^0,w,c
   994  00128E  6E08               	movwf	(??___xxtofl+2)^0,c
   995  001290  0EFF               	movlw	255
   996  001292  140F               	andwf	(___xxtofl@arg+3)^0,w,c
   997  001294  6E09               	movwf	(??___xxtofl+3)^0,c
   998  001296  5006               	movf	??___xxtofl^0,w,c
   999  001298  1007               	iorwf	(??___xxtofl+1)^0,w,c
  1000  00129A  1008               	iorwf	(??___xxtofl+2)^0,w,c
  1001  00129C  1009               	iorwf	(??___xxtofl+3)^0,w,c
  1002  00129E  A4D8               	btfss	status,2,c
  1003  0012A0  EF54  F009         	goto	u1881
  1004  0012A4  EF56  F009         	goto	u1880
  1005  0012A8                     u1881:
  1006  0012A8  EF33  F009         	goto	l1987
  1007  0012AC                     u1880:
  1008  0012AC  EF5E  F009         	goto	l1995
  1009  0012B0                     l1993:
  1010  0012B0  060B               	decf	___xxtofl@exp^0,f,c
  1011  0012B2  90D8               	bcf	status,0,c
  1012  0012B4  360C               	rlcf	___xxtofl@arg^0,f,c
  1013  0012B6  360D               	rlcf	(___xxtofl@arg+1)^0,f,c
  1014  0012B8  360E               	rlcf	(___xxtofl@arg+2)^0,f,c
  1015  0012BA  360F               	rlcf	(___xxtofl@arg+3)^0,f,c
  1016  0012BC                     l1995:
  1017  0012BC  BE0E               	btfsc	(___xxtofl@arg+2)^0,7,c
  1018  0012BE  EF63  F009         	goto	u1891
  1019  0012C2  EF65  F009         	goto	u1890
  1020  0012C6                     u1891:
  1021  0012C6  EF6D  F009         	goto	l869
  1022  0012CA                     u1890:
  1023  0012CA  0E02               	movlw	2
  1024  0012CC  600B               	cpfslt	___xxtofl@exp^0,c
  1025  0012CE  EF6B  F009         	goto	u1901
  1026  0012D2  EF6D  F009         	goto	u1900
  1027  0012D6                     u1901:
  1028  0012D6  EF58  F009         	goto	l1993
  1029  0012DA                     u1900:
  1030  0012DA                     l869:
  1031  0012DA  B00B               	btfsc	___xxtofl@exp^0,0,c
  1032  0012DC  EF72  F009         	goto	u1911
  1033  0012E0  EF74  F009         	goto	u1910
  1034  0012E4                     u1911:
  1035  0012E4  EF75  F009         	goto	l2001
  1036  0012E8                     u1910:
  1037  0012E8  9E0E               	bcf	(___xxtofl@arg+2)^0,7,c
  1038  0012EA                     l2001:
  1039  0012EA  90D8               	bcf	status,0,c
  1040  0012EC  320B               	rrcf	___xxtofl@exp^0,f,c
  1041  0012EE  C00B  F006         	movff	___xxtofl@exp,??___xxtofl
  1042  0012F2  6A07               	clrf	(??___xxtofl+1)^0,c
  1043  0012F4  6A08               	clrf	(??___xxtofl+2)^0,c
  1044  0012F6  6A09               	clrf	(??___xxtofl+3)^0,c
  1045  0012F8  C006  F009         	movff	??___xxtofl,??___xxtofl+3
  1046  0012FC  6A08               	clrf	(??___xxtofl+2)^0,c
  1047  0012FE  6A07               	clrf	(??___xxtofl+1)^0,c
  1048  001300  6A06               	clrf	??___xxtofl^0,c
  1049  001302  5006               	movf	??___xxtofl^0,w,c
  1050  001304  120C               	iorwf	___xxtofl@arg^0,f,c
  1051  001306  5007               	movf	(??___xxtofl+1)^0,w,c
  1052  001308  120D               	iorwf	(___xxtofl@arg+1)^0,f,c
  1053  00130A  5008               	movf	(??___xxtofl+2)^0,w,c
  1054  00130C  120E               	iorwf	(___xxtofl@arg+2)^0,f,c
  1055  00130E  5009               	movf	(??___xxtofl+3)^0,w,c
  1056  001310  120F               	iorwf	(___xxtofl@arg+3)^0,f,c
  1057  001312  500A               	movf	___xxtofl@sign^0,w,c
  1058  001314  B4D8               	btfsc	status,2,c
  1059  001316  EF8F  F009         	goto	u1921
  1060  00131A  EF91  F009         	goto	u1920
  1061  00131E                     u1921:
  1062  00131E  EF99  F009         	goto	l2011
  1063  001322                     u1920:
  1064  001322  BE05               	btfsc	(___xxtofl@val+3)^0,7,c
  1065  001324  EF98  F009         	goto	u1930
  1066  001328  EF96  F009         	goto	u1931
  1067  00132C                     u1931:
  1068  00132C  EF99  F009         	goto	l2011
  1069  001330                     u1930:
  1070  001330  8E0F               	bsf	(___xxtofl@arg+3)^0,7,c
  1071  001332                     l2011:
  1072  001332  C00C  F002         	movff	___xxtofl@arg,?___xxtofl
  1073  001336  C00D  F003         	movff	___xxtofl@arg+1,?___xxtofl+1
  1074  00133A  C00E  F004         	movff	___xxtofl@arg+2,?___xxtofl+2
  1075  00133E  C00F  F005         	movff	___xxtofl@arg+3,?___xxtofl+3
  1076  001342                     l858:
  1077  001342  0012               	return		;funcret
  1078  001344                     __end_of___xxtofl:
  1079                           	callstack 0
  1080                           
  1081 ;; *************** function ___fltol *****************
  1082 ;; Defined at:
  1083 ;;		line 43 in file "C:\Program Files\Microchip\xc8\v2.30\pic\sources\c99\common\fltol.c"
  1084 ;; Parameters:    Size  Location     Type
  1085 ;;  f1              4   64[COMRAM] unsigned char 
  1086 ;; Auto vars:     Size  Location     Type
  1087 ;;  exp1            1   73[COMRAM] unsigned char 
  1088 ;;  sign1           1   72[COMRAM] unsigned char 
  1089 ;; Return value:  Size  Location     Type
  1090 ;;                  4   64[COMRAM] long 
  1091 ;; Registers used:
  1092 ;;		wreg, status,2, status,0
  1093 ;; Tracked objects:
  1094 ;;		On entry : 0/0
  1095 ;;		On exit  : 0/0
  1096 ;;		Unchanged: 0/0
  1097 ;; Data sizes:     COMRAM   BANK0   BANK1   BANK2   BANK3   BANK4   BANK5
  1098 ;;      Params:         4       0       0       0       0       0       0
  1099 ;;      Locals:         2       0       0       0       0       0       0
  1100 ;;      Temps:          4       0       0       0       0       0       0
  1101 ;;      Totals:        10       0       0       0       0       0       0
  1102 ;;Total ram usage:       10 bytes
  1103 ;; Hardware stack levels used:    1
  1104 ;; Hardware stack levels required when called:    2
  1105 ;; This function calls:
  1106 ;;		Nothing
  1107 ;; This function is called by:
  1108 ;;		_main
  1109 ;; This function uses a non-reentrant model
  1110 ;;
  1111                           
  1112                           	psect	text3
  1113  00157A                     __ptext3:
  1114                           	callstack 0
  1115  00157A                     ___fltol:
  1116                           	callstack 28
  1117  00157A  3443               	rlcf	(___fltol@f1+2)^0,w,c
  1118  00157C  3444               	rlcf	(___fltol@f1+3)^0,w,c
  1119  00157E  6E4A               	movwf	___fltol@exp1^0,c
  1120  001580  504A               	movf	___fltol@exp1^0,w,c
  1121  001582  A4D8               	btfss	status,2,c
  1122  001584  EFC6  F00A         	goto	u1771
  1123  001588  EFC8  F00A         	goto	u1770
  1124  00158C                     u1771:
  1125  00158C  EFD2  F00A         	goto	l1931
  1126  001590                     u1770:
  1127  001590                     l1927:
  1128  001590  0E00               	movlw	0
  1129  001592  6E41               	movwf	?___fltol^0,c
  1130  001594  0E00               	movlw	0
  1131  001596  6E42               	movwf	(?___fltol+1)^0,c
  1132  001598  0E00               	movlw	0
  1133  00159A  6E43               	movwf	(?___fltol+2)^0,c
  1134  00159C  0E00               	movlw	0
  1135  00159E  6E44               	movwf	(?___fltol+3)^0,c
  1136  0015A0  EF3F  F00B         	goto	l497
  1137  0015A4                     l1931:
  1138  0015A4  C041  F045         	movff	___fltol@f1,??___fltol
  1139  0015A8  C042  F046         	movff	___fltol@f1+1,??___fltol+1
  1140  0015AC  C043  F047         	movff	___fltol@f1+2,??___fltol+2
  1141  0015B0  C044  F048         	movff	___fltol@f1+3,??___fltol+3
  1142  0015B4  0E20               	movlw	32
  1143  0015B6  EFE2  F00A         	goto	u1780
  1144  0015BA                     u1785:
  1145  0015BA  90D8               	bcf	status,0,c
  1146  0015BC  3248               	rrcf	(??___fltol+3)^0,f,c
  1147  0015BE  3247               	rrcf	(??___fltol+2)^0,f,c
  1148  0015C0  3246               	rrcf	(??___fltol+1)^0,f,c
  1149  0015C2  3245               	rrcf	??___fltol^0,f,c
  1150  0015C4                     u1780:
  1151  0015C4  2EE8               	decfsz	wreg,f,c
  1152  0015C6  EFDD  F00A         	goto	u1785
  1153  0015CA  5045               	movf	??___fltol^0,w,c
  1154  0015CC  6E49               	movwf	___fltol@sign1^0,c
  1155  0015CE  8E43               	bsf	(___fltol@f1+2)^0,7,c
  1156  0015D0  0EFF               	movlw	255
  1157  0015D2  1641               	andwf	___fltol@f1^0,f,c
  1158  0015D4  0EFF               	movlw	255
  1159  0015D6  1642               	andwf	(___fltol@f1+1)^0,f,c
  1160  0015D8  0EFF               	movlw	255
  1161  0015DA  1643               	andwf	(___fltol@f1+2)^0,f,c
  1162  0015DC  0E00               	movlw	0
  1163  0015DE  1644               	andwf	(___fltol@f1+3)^0,f,c
  1164  0015E0  0E96               	movlw	150
  1165  0015E2  5E4A               	subwf	___fltol@exp1^0,f,c
  1166  0015E4  BE4A               	btfsc	___fltol@exp1^0,7,c
  1167  0015E6  EFF9  F00A         	goto	u1790
  1168  0015EA  EFF7  F00A         	goto	u1791
  1169  0015EE                     u1791:
  1170  0015EE  EF0F  F00B         	goto	l1951
  1171  0015F2                     u1790:
  1172  0015F2  504A               	movf	___fltol@exp1^0,w,c
  1173  0015F4  0A80               	xorlw	128
  1174  0015F6  0F97               	addlw	151
  1175  0015F8  B0D8               	btfsc	status,0,c
  1176  0015FA  EF01  F00B         	goto	u1801
  1177  0015FE  EF03  F00B         	goto	u1800
  1178  001602                     u1801:
  1179  001602  EF05  F00B         	goto	l1947
  1180  001606                     u1800:
  1181  001606  EFC8  F00A         	goto	l1927
  1182  00160A                     l1947:
  1183  00160A  90D8               	bcf	status,0,c
  1184  00160C  3244               	rrcf	(___fltol@f1+3)^0,f,c
  1185  00160E  3243               	rrcf	(___fltol@f1+2)^0,f,c
  1186  001610  3242               	rrcf	(___fltol@f1+1)^0,f,c
  1187  001612  3241               	rrcf	___fltol@f1^0,f,c
  1188  001614  3E4A               	incfsz	___fltol@exp1^0,f,c
  1189  001616  EF05  F00B         	goto	l1947
  1190  00161A  EF27  F00B         	goto	l1961
  1191  00161E                     l1951:
  1192  00161E  0E1F               	movlw	31
  1193  001620  644A               	cpfsgt	___fltol@exp1^0,c
  1194  001622  EF15  F00B         	goto	u1811
  1195  001626  EF17  F00B         	goto	u1810
  1196  00162A                     u1811:
  1197  00162A  EF1F  F00B         	goto	l1959
  1198  00162E                     u1810:
  1199  00162E  EFC8  F00A         	goto	l1927
  1200  001632                     l1957:
  1201  001632  90D8               	bcf	status,0,c
  1202  001634  3641               	rlcf	___fltol@f1^0,f,c
  1203  001636  3642               	rlcf	(___fltol@f1+1)^0,f,c
  1204  001638  3643               	rlcf	(___fltol@f1+2)^0,f,c
  1205  00163A  3644               	rlcf	(___fltol@f1+3)^0,f,c
  1206  00163C  064A               	decf	___fltol@exp1^0,f,c
  1207  00163E                     l1959:
  1208  00163E  504A               	movf	___fltol@exp1^0,w,c
  1209  001640  A4D8               	btfss	status,2,c
  1210  001642  EF25  F00B         	goto	u1821
  1211  001646  EF27  F00B         	goto	u1820
  1212  00164A                     u1821:
  1213  00164A  EF19  F00B         	goto	l1957
  1214  00164E                     u1820:
  1215  00164E                     l1961:
  1216  00164E  5049               	movf	___fltol@sign1^0,w,c
  1217  001650  B4D8               	btfsc	status,2,c
  1218  001652  EF2D  F00B         	goto	u1831
  1219  001656  EF2F  F00B         	goto	u1830
  1220  00165A                     u1831:
  1221  00165A  EF37  F00B         	goto	l1965
  1222  00165E                     u1830:
  1223  00165E  1E44               	comf	(___fltol@f1+3)^0,f,c
  1224  001660  1E43               	comf	(___fltol@f1+2)^0,f,c
  1225  001662  1E42               	comf	(___fltol@f1+1)^0,f,c
  1226  001664  6C41               	negf	___fltol@f1^0,c
  1227  001666  0E00               	movlw	0
  1228  001668  2242               	addwfc	(___fltol@f1+1)^0,f,c
  1229  00166A  2243               	addwfc	(___fltol@f1+2)^0,f,c
  1230  00166C  2244               	addwfc	(___fltol@f1+3)^0,f,c
  1231  00166E                     l1965:
  1232  00166E  C041  F041         	movff	___fltol@f1,?___fltol
  1233  001672  C042  F042         	movff	___fltol@f1+1,?___fltol+1
  1234  001676  C043  F043         	movff	___fltol@f1+2,?___fltol+2
  1235  00167A  C044  F044         	movff	___fltol@f1+3,?___fltol+3
  1236  00167E                     l497:
  1237  00167E  0012               	return		;funcret
  1238  001680                     __end_of___fltol:
  1239                           	callstack 0
  1240                           
  1241 ;; *************** function ___flsub *****************
  1242 ;; Defined at:
  1243 ;;		line 245 in file "C:\Program Files\Microchip\xc8\v2.30\pic\sources\c99\common\sprcadd.c"
  1244 ;; Parameters:    Size  Location     Type
  1245 ;;  b               4   56[COMRAM] long 
  1246 ;;  a               4   60[COMRAM] long 
  1247 ;; Auto vars:     Size  Location     Type
  1248 ;;		None
  1249 ;; Return value:  Size  Location     Type
  1250 ;;                  4   56[COMRAM] long 
  1251 ;; Registers used:
  1252 ;;		wreg, status,2, status,0, cstack
  1253 ;; Tracked objects:
  1254 ;;		On entry : 0/0
  1255 ;;		On exit  : 0/0
  1256 ;;		Unchanged: 0/0
  1257 ;; Data sizes:     COMRAM   BANK0   BANK1   BANK2   BANK3   BANK4   BANK5
  1258 ;;      Params:         8       0       0       0       0       0       0
  1259 ;;      Locals:         0       0       0       0       0       0       0
  1260 ;;      Temps:          0       0       0       0       0       0       0
  1261 ;;      Totals:         8       0       0       0       0       0       0
  1262 ;;Total ram usage:        8 bytes
  1263 ;; Hardware stack levels used:    1
  1264 ;; Hardware stack levels required when called:    3
  1265 ;; This function calls:
  1266 ;;		___fladd
  1267 ;; This function is called by:
  1268 ;;		_main
  1269 ;; This function uses a non-reentrant model
  1270 ;;
  1271                           
  1272                           	psect	text4
  1273  0016EA                     __ptext4:
  1274                           	callstack 0
  1275  0016EA                     ___flsub:
  1276                           	callstack 27
  1277  0016EA  0E00               	movlw	0
  1278  0016EC  1A3D               	xorwf	___flsub@a^0,f,c
  1279  0016EE  0E00               	movlw	0
  1280  0016F0  1A3E               	xorwf	(___flsub@a+1)^0,f,c
  1281  0016F2  0E00               	movlw	0
  1282  0016F4  1A3F               	xorwf	(___flsub@a+2)^0,f,c
  1283  0016F6  0E80               	movlw	128
  1284  0016F8  1A40               	xorwf	(___flsub@a+3)^0,f,c
  1285  0016FA  C039  F029         	movff	___flsub@b,___fladd@b
  1286  0016FE  C03A  F02A         	movff	___flsub@b+1,___fladd@b+1
  1287  001702  C03B  F02B         	movff	___flsub@b+2,___fladd@b+2
  1288  001706  C03C  F02C         	movff	___flsub@b+3,___fladd@b+3
  1289  00170A  C03D  F02D         	movff	___flsub@a,___fladd@a
  1290  00170E  C03E  F02E         	movff	___flsub@a+1,___fladd@a+1
  1291  001712  C03F  F02F         	movff	___flsub@a+2,___fladd@a+2
  1292  001716  C040  F030         	movff	___flsub@a+3,___fladd@a+3
  1293  00171A  EC03  F003         	call	___fladd	;wreg free
  1294  00171E  C029  F039         	movff	?___fladd,?___flsub
  1295  001722  C02A  F03A         	movff	?___fladd+1,?___flsub+1
  1296  001726  C02B  F03B         	movff	?___fladd+2,?___flsub+2
  1297  00172A  C02C  F03C         	movff	?___fladd+3,?___flsub+3
  1298  00172E  0012               	return		;funcret
  1299  001730                     __end_of___flsub:
  1300                           	callstack 0
  1301                           
  1302 ;; *************** function ___fladd *****************
  1303 ;; Defined at:
  1304 ;;		line 10 in file "C:\Program Files\Microchip\xc8\v2.30\pic\sources\c99\common\sprcadd.c"
  1305 ;; Parameters:    Size  Location     Type
  1306 ;;  b               4   40[COMRAM] long 
  1307 ;;  a               4   44[COMRAM] long 
  1308 ;; Auto vars:     Size  Location     Type
  1309 ;;  grs             1   55[COMRAM] unsigned char 
  1310 ;;  bexp            1   54[COMRAM] unsigned char 
  1311 ;;  aexp            1   53[COMRAM] unsigned char 
  1312 ;;  signs           1   52[COMRAM] unsigned char 
  1313 ;; Return value:  Size  Location     Type
  1314 ;;                  4   40[COMRAM] unsigned char 
  1315 ;; Registers used:
  1316 ;;		wreg, status,2, status,0
  1317 ;; Tracked objects:
  1318 ;;		On entry : 0/0
  1319 ;;		On exit  : 0/0
  1320 ;;		Unchanged: 0/0
  1321 ;; Data sizes:     COMRAM   BANK0   BANK1   BANK2   BANK3   BANK4   BANK5
  1322 ;;      Params:         8       0       0       0       0       0       0
  1323 ;;      Locals:         4       0       0       0       0       0       0
  1324 ;;      Temps:          4       0       0       0       0       0       0
  1325 ;;      Totals:        16       0       0       0       0       0       0
  1326 ;;Total ram usage:       16 bytes
  1327 ;; Hardware stack levels used:    1
  1328 ;; Hardware stack levels required when called:    2
  1329 ;; This function calls:
  1330 ;;		Nothing
  1331 ;; This function is called by:
  1332 ;;		_main
  1333 ;;		___flsub
  1334 ;; This function uses a non-reentrant model
  1335 ;;
  1336                           
  1337                           	psect	text5
  1338  000606                     __ptext5:
  1339                           	callstack 0
  1340  000606                     ___fladd:
  1341                           	callstack 27
  1342  000606  502C               	movf	(___fladd@b+3)^0,w,c
  1343  000608  0B80               	andlw	128
  1344  00060A  6E35               	movwf	___fladd@signs^0,c
  1345  00060C  502C               	movf	(___fladd@b+3)^0,w,c
  1346  00060E  242C               	addwf	(___fladd@b+3)^0,w,c
  1347  000610  6E37               	movwf	___fladd@bexp^0,c
  1348  000612  AE2B               	btfss	(___fladd@b+2)^0,7,c
  1349  000614  EF0E  F003         	goto	u1111
  1350  000618  EF10  F003         	goto	u1110
  1351  00061C                     u1111:
  1352  00061C  EF11  F003         	goto	l1565
  1353  000620                     u1110:
  1354  000620  8037               	bsf	___fladd@bexp^0,0,c
  1355  000622                     l1565:
  1356  000622  5037               	movf	___fladd@bexp^0,w,c
  1357  000624  B4D8               	btfsc	status,2,c
  1358  000626  EF17  F003         	goto	u1121
  1359  00062A  EF19  F003         	goto	u1120
  1360  00062E                     u1121:
  1361  00062E  EF2E  F003         	goto	l1575
  1362  000632                     u1120:
  1363  000632  2837               	incf	___fladd@bexp^0,w,c
  1364  000634  A4D8               	btfss	status,2,c
  1365  000636  EF1F  F003         	goto	u1131
  1366  00063A  EF21  F003         	goto	u1130
  1367  00063E                     u1131:
  1368  00063E  EF29  F003         	goto	l1571
  1369  000642                     u1130:
  1370  000642  0E00               	movlw	0
  1371  000644  6E29               	movwf	___fladd@b^0,c
  1372  000646  0E00               	movlw	0
  1373  000648  6E2A               	movwf	(___fladd@b+1)^0,c
  1374  00064A  0E00               	movlw	0
  1375  00064C  6E2B               	movwf	(___fladd@b+2)^0,c
  1376  00064E  0E00               	movlw	0
  1377  000650  6E2C               	movwf	(___fladd@b+3)^0,c
  1378  000652                     l1571:
  1379  000652  8E2B               	bsf	(___fladd@b+2)^0,7,c
  1380  000654  0E00               	movlw	0
  1381  000656  6E2C               	movwf	(___fladd@b+3)^0,c
  1382  000658  EF36  F003         	goto	l1577
  1383  00065C                     l1575:
  1384  00065C  0E00               	movlw	0
  1385  00065E  6E29               	movwf	___fladd@b^0,c
  1386  000660  0E00               	movlw	0
  1387  000662  6E2A               	movwf	(___fladd@b+1)^0,c
  1388  000664  0E00               	movlw	0
  1389  000666  6E2B               	movwf	(___fladd@b+2)^0,c
  1390  000668  0E00               	movlw	0
  1391  00066A  6E2C               	movwf	(___fladd@b+3)^0,c
  1392  00066C                     l1577:
  1393  00066C  5030               	movf	(___fladd@a+3)^0,w,c
  1394  00066E  0B80               	andlw	128
  1395  000670  6E36               	movwf	___fladd@aexp^0,c
  1396  000672  5035               	movf	___fladd@signs^0,w,c
  1397  000674  1836               	xorwf	___fladd@aexp^0,w,c
  1398  000676  B4D8               	btfsc	status,2,c
  1399  000678  EF40  F003         	goto	u1141
  1400  00067C  EF42  F003         	goto	u1140
  1401  000680                     u1141:
  1402  000680  EF43  F003         	goto	l1583
  1403  000684                     u1140:
  1404  000684  8C35               	bsf	___fladd@signs^0,6,c
  1405  000686                     l1583:
  1406  000686  5030               	movf	(___fladd@a+3)^0,w,c
  1407  000688  2430               	addwf	(___fladd@a+3)^0,w,c
  1408  00068A  6E36               	movwf	___fladd@aexp^0,c
  1409  00068C  AE2F               	btfss	(___fladd@a+2)^0,7,c
  1410  00068E  EF4B  F003         	goto	u1151
  1411  000692  EF4D  F003         	goto	u1150
  1412  000696                     u1151:
  1413  000696  EF4E  F003         	goto	l1589
  1414  00069A                     u1150:
  1415  00069A  8036               	bsf	___fladd@aexp^0,0,c
  1416  00069C                     l1589:
  1417  00069C  5036               	movf	___fladd@aexp^0,w,c
  1418  00069E  B4D8               	btfsc	status,2,c
  1419  0006A0  EF54  F003         	goto	u1161
  1420  0006A4  EF56  F003         	goto	u1160
  1421  0006A8                     u1161:
  1422  0006A8  EF6B  F003         	goto	l1599
  1423  0006AC                     u1160:
  1424  0006AC  2836               	incf	___fladd@aexp^0,w,c
  1425  0006AE  A4D8               	btfss	status,2,c
  1426  0006B0  EF5C  F003         	goto	u1171
  1427  0006B4  EF5E  F003         	goto	u1170
  1428  0006B8                     u1171:
  1429  0006B8  EF66  F003         	goto	l1595
  1430  0006BC                     u1170:
  1431  0006BC  0E00               	movlw	0
  1432  0006BE  6E2D               	movwf	___fladd@a^0,c
  1433  0006C0  0E00               	movlw	0
  1434  0006C2  6E2E               	movwf	(___fladd@a+1)^0,c
  1435  0006C4  0E00               	movlw	0
  1436  0006C6  6E2F               	movwf	(___fladd@a+2)^0,c
  1437  0006C8  0E00               	movlw	0
  1438  0006CA  6E30               	movwf	(___fladd@a+3)^0,c
  1439  0006CC                     l1595:
  1440  0006CC  8E2F               	bsf	(___fladd@a+2)^0,7,c
  1441  0006CE  0E00               	movlw	0
  1442  0006D0  6E30               	movwf	(___fladd@a+3)^0,c
  1443  0006D2  EF73  F003         	goto	l1601
  1444  0006D6                     l1599:
  1445  0006D6  0E00               	movlw	0
  1446  0006D8  6E2D               	movwf	___fladd@a^0,c
  1447  0006DA  0E00               	movlw	0
  1448  0006DC  6E2E               	movwf	(___fladd@a+1)^0,c
  1449  0006DE  0E00               	movlw	0
  1450  0006E0  6E2F               	movwf	(___fladd@a+2)^0,c
  1451  0006E2  0E00               	movlw	0
  1452  0006E4  6E30               	movwf	(___fladd@a+3)^0,c
  1453  0006E6                     l1601:
  1454  0006E6  5037               	movf	___fladd@bexp^0,w,c
  1455  0006E8  5C36               	subwf	___fladd@aexp^0,w,c
  1456  0006EA  B0D8               	btfsc	status,0,c
  1457  0006EC  EF7A  F003         	goto	u1181
  1458  0006F0  EF7C  F003         	goto	u1180
  1459  0006F4                     u1181:
  1460  0006F4  EFA3  F003         	goto	l1637
  1461  0006F8                     u1180:
  1462  0006F8  AC35               	btfss	___fladd@signs^0,6,c
  1463  0006FA  EF81  F003         	goto	u1191
  1464  0006FE  EF83  F003         	goto	u1190
  1465  000702                     u1191:
  1466  000702  EF85  F003         	goto	l1607
  1467  000706                     u1190:
  1468  000706  0E80               	movlw	128
  1469  000708  1A35               	xorwf	___fladd@signs^0,f,c
  1470  00070A                     l1607:
  1471  00070A  C037  F038         	movff	___fladd@bexp,___fladd@grs
  1472  00070E  C036  F037         	movff	___fladd@aexp,___fladd@bexp
  1473  000712  C038  F036         	movff	___fladd@grs,___fladd@aexp
  1474  000716  C029  F038         	movff	___fladd@b,___fladd@grs
  1475  00071A  C02D  F029         	movff	___fladd@a,___fladd@b
  1476  00071E  C038  F02D         	movff	___fladd@grs,___fladd@a
  1477  000722  C02A  F038         	movff	___fladd@b+1,___fladd@grs
  1478  000726  C02E  F02A         	movff	___fladd@a+1,___fladd@b+1
  1479  00072A  C038  F02E         	movff	___fladd@grs,___fladd@a+1
  1480  00072E  C02B  F038         	movff	___fladd@b+2,___fladd@grs
  1481  000732  C02F  F02B         	movff	___fladd@a+2,___fladd@b+2
  1482  000736  C038  F02F         	movff	___fladd@grs,___fladd@a+2
  1483  00073A  C02C  F038         	movff	___fladd@b+3,___fladd@grs
  1484  00073E  C030  F02C         	movff	___fladd@a+3,___fladd@b+3
  1485  000742  C038  F030         	movff	___fladd@grs,___fladd@a+3
  1486  000746                     l1637:
  1487  000746  0E00               	movlw	0
  1488  000748  6E38               	movwf	___fladd@grs^0,c
  1489  00074A  5037               	movf	___fladd@bexp^0,w,c
  1490  00074C  C036  F031         	movff	___fladd@aexp,??___fladd
  1491  000750  6A32               	clrf	(??___fladd+1)^0,c
  1492  000752  5E31               	subwf	??___fladd^0,f,c
  1493  000754  0E00               	movlw	0
  1494  000756  5A32               	subwfb	(??___fladd+1)^0,f,c
  1495  000758  BE32               	btfsc	(??___fladd+1)^0,7,c
  1496  00075A  EFB8  F003         	goto	u1201
  1497  00075E  5032               	movf	(??___fladd+1)^0,w,c
  1498  000760  E109               	bnz	u1200
  1499  000762  0E1A               	movlw	26
  1500  000764  5C31               	subwf	??___fladd^0,w,c
  1501  000766  A0D8               	btfss	status,0,c
  1502  000768  EFB8  F003         	goto	u1201
  1503  00076C  EFBA  F003         	goto	u1200
  1504  000770                     u1201:
  1505  000770  EFF1  F003         	goto	l729
  1506  000774                     u1200:
  1507  000774  5029               	movf	___fladd@b^0,w,c
  1508  000776  102A               	iorwf	(___fladd@b+1)^0,w,c
  1509  000778  102B               	iorwf	(___fladd@b+2)^0,w,c
  1510  00077A  102C               	iorwf	(___fladd@b+3)^0,w,c
  1511  00077C  A4D8               	btfss	status,2,c
  1512  00077E  EFC3  F003         	goto	u1211
  1513  000782  EFC6  F003         	goto	u1210
  1514  000786                     u1211:
  1515  000786  0E01               	movlw	1
  1516  000788  EFC7  F003         	goto	u1220
  1517  00078C                     u1210:
  1518  00078C  0E00               	movlw	0
  1519  00078E                     u1220:
  1520  00078E  6E38               	movwf	___fladd@grs^0,c
  1521  000790  0E00               	movlw	0
  1522  000792  6E29               	movwf	___fladd@b^0,c
  1523  000794  0E00               	movlw	0
  1524  000796  6E2A               	movwf	(___fladd@b+1)^0,c
  1525  000798  0E00               	movlw	0
  1526  00079A  6E2B               	movwf	(___fladd@b+2)^0,c
  1527  00079C  0E00               	movlw	0
  1528  00079E  6E2C               	movwf	(___fladd@b+3)^0,c
  1529  0007A0  C036  F037         	movff	___fladd@aexp,___fladd@bexp
  1530  0007A4  EFFA  F003         	goto	l728
  1531  0007A8                     l730:
  1532  0007A8  A038               	btfss	___fladd@grs^0,0,c
  1533  0007AA  EFD9  F003         	goto	u1231
  1534  0007AE  EFDB  F003         	goto	u1230
  1535  0007B2                     u1231:
  1536  0007B2  EFE1  F003         	goto	l1649
  1537  0007B6                     u1230:
  1538  0007B6  90D8               	bcf	status,0,c
  1539  0007B8  3038               	rrcf	___fladd@grs^0,w,c
  1540  0007BA  0901               	iorlw	1
  1541  0007BC  6E38               	movwf	___fladd@grs^0,c
  1542  0007BE  EFE3  F003         	goto	l1651
  1543  0007C2                     l1649:
  1544  0007C2  90D8               	bcf	status,0,c
  1545  0007C4  3238               	rrcf	___fladd@grs^0,f,c
  1546  0007C6                     l1651:
  1547  0007C6  A029               	btfss	___fladd@b^0,0,c
  1548  0007C8  EFE8  F003         	goto	u1241
  1549  0007CC  EFEA  F003         	goto	u1240
  1550  0007D0                     u1241:
  1551  0007D0  EFEB  F003         	goto	l1655
  1552  0007D4                     u1240:
  1553  0007D4  8E38               	bsf	___fladd@grs^0,7,c
  1554  0007D6                     l1655:
  1555  0007D6  342C               	rlcf	(___fladd@b+3)^0,w,c
  1556  0007D8  322C               	rrcf	(___fladd@b+3)^0,f,c
  1557  0007DA  322B               	rrcf	(___fladd@b+2)^0,f,c
  1558  0007DC  322A               	rrcf	(___fladd@b+1)^0,f,c
  1559  0007DE  3229               	rrcf	___fladd@b^0,f,c
  1560  0007E0  2A37               	incf	___fladd@bexp^0,f,c
  1561  0007E2                     l729:
  1562  0007E2  5036               	movf	___fladd@aexp^0,w,c
  1563  0007E4  5C37               	subwf	___fladd@bexp^0,w,c
  1564  0007E6  A0D8               	btfss	status,0,c
  1565  0007E8  EFF8  F003         	goto	u1251
  1566  0007EC  EFFA  F003         	goto	u1250
  1567  0007F0                     u1251:
  1568  0007F0  EFD4  F003         	goto	l730
  1569  0007F4                     u1250:
  1570  0007F4                     l728:
  1571  0007F4  BC35               	btfsc	___fladd@signs^0,6,c
  1572  0007F6  EFFF  F003         	goto	u1261
  1573  0007FA  EF01  F004         	goto	u1260
  1574  0007FE                     u1261:
  1575  0007FE  EF41  F004         	goto	l1683
  1576  000802                     u1260:
  1577  000802  5037               	movf	___fladd@bexp^0,w,c
  1578  000804  A4D8               	btfss	status,2,c
  1579  000806  EF07  F004         	goto	u1271
  1580  00080A  EF09  F004         	goto	u1270
  1581  00080E                     u1271:
  1582  00080E  EF13  F004         	goto	l1665
  1583  000812                     u1270:
  1584  000812  0E00               	movlw	0
  1585  000814  6E29               	movwf	?___fladd^0,c
  1586  000816  0E00               	movlw	0
  1587  000818  6E2A               	movwf	(?___fladd+1)^0,c
  1588  00081A  0E00               	movlw	0
  1589  00081C  6E2B               	movwf	(?___fladd+2)^0,c
  1590  00081E  0E00               	movlw	0
  1591  000820  6E2C               	movwf	(?___fladd+3)^0,c
  1592  000822  EF62  F005         	goto	l737
  1593  000826                     l1665:
  1594  000826  502D               	movf	___fladd@a^0,w,c
  1595  000828  2629               	addwf	___fladd@b^0,f,c
  1596  00082A  502E               	movf	(___fladd@a+1)^0,w,c
  1597  00082C  222A               	addwfc	(___fladd@b+1)^0,f,c
  1598  00082E  502F               	movf	(___fladd@a+2)^0,w,c
  1599  000830  222B               	addwfc	(___fladd@b+2)^0,f,c
  1600  000832  5030               	movf	(___fladd@a+3)^0,w,c
  1601  000834  222C               	addwfc	(___fladd@b+3)^0,f,c
  1602  000836  A02C               	btfss	(___fladd@b+3)^0,0,c
  1603  000838  EF20  F004         	goto	u1281
  1604  00083C  EF22  F004         	goto	u1280
  1605  000840                     u1281:
  1606  000840  EFCE  F004         	goto	l1719
  1607  000844                     u1280:
  1608  000844  A038               	btfss	___fladd@grs^0,0,c
  1609  000846  EF27  F004         	goto	u1291
  1610  00084A  EF29  F004         	goto	u1290
  1611  00084E                     u1291:
  1612  00084E  EF2F  F004         	goto	l1673
  1613  000852                     u1290:
  1614  000852  90D8               	bcf	status,0,c
  1615  000854  3038               	rrcf	___fladd@grs^0,w,c
  1616  000856  0901               	iorlw	1
  1617  000858  6E38               	movwf	___fladd@grs^0,c
  1618  00085A  EF31  F004         	goto	l1675
  1619  00085E                     l1673:
  1620  00085E  90D8               	bcf	status,0,c
  1621  000860  3238               	rrcf	___fladd@grs^0,f,c
  1622  000862                     l1675:
  1623  000862  A029               	btfss	___fladd@b^0,0,c
  1624  000864  EF36  F004         	goto	u1301
  1625  000868  EF38  F004         	goto	u1300
  1626  00086C                     u1301:
  1627  00086C  EF39  F004         	goto	l1679
  1628  000870                     u1300:
  1629  000870  8E38               	bsf	___fladd@grs^0,7,c
  1630  000872                     l1679:
  1631  000872  342C               	rlcf	(___fladd@b+3)^0,w,c
  1632  000874  322C               	rrcf	(___fladd@b+3)^0,f,c
  1633  000876  322B               	rrcf	(___fladd@b+2)^0,f,c
  1634  000878  322A               	rrcf	(___fladd@b+1)^0,f,c
  1635  00087A  3229               	rrcf	___fladd@b^0,f,c
  1636  00087C  2A37               	incf	___fladd@bexp^0,f,c
  1637  00087E  EFCE  F004         	goto	l1719
  1638  000882                     l1683:
  1639  000882  502D               	movf	___fladd@a^0,w,c
  1640  000884  5C29               	subwf	___fladd@b^0,w,c
  1641  000886  502E               	movf	(___fladd@a+1)^0,w,c
  1642  000888  582A               	subwfb	(___fladd@b+1)^0,w,c
  1643  00088A  502F               	movf	(___fladd@a+2)^0,w,c
  1644  00088C  582B               	subwfb	(___fladd@b+2)^0,w,c
  1645  00088E  502C               	movf	(___fladd@b+3)^0,w,c
  1646  000890  0A80               	xorlw	128
  1647  000892  6E31               	movwf	??___fladd^0,c
  1648  000894  5030               	movf	(___fladd@a+3)^0,w,c
  1649  000896  0A80               	xorlw	128
  1650  000898  5831               	subwfb	??___fladd^0,w,c
  1651  00089A  B0D8               	btfsc	status,0,c
  1652  00089C  EF52  F004         	goto	u1311
  1653  0008A0  EF54  F004         	goto	u1310
  1654  0008A4                     u1311:
  1655  0008A4  EF7F  F004         	goto	l1693
  1656  0008A8                     u1310:
  1657  0008A8  5029               	movf	___fladd@b^0,w,c
  1658  0008AA  5C2D               	subwf	___fladd@a^0,w,c
  1659  0008AC  6E31               	movwf	??___fladd^0,c
  1660  0008AE  502A               	movf	(___fladd@b+1)^0,w,c
  1661  0008B0  582E               	subwfb	(___fladd@a+1)^0,w,c
  1662  0008B2  6E32               	movwf	(??___fladd+1)^0,c
  1663  0008B4  502B               	movf	(___fladd@b+2)^0,w,c
  1664  0008B6  582F               	subwfb	(___fladd@a+2)^0,w,c
  1665  0008B8  6E33               	movwf	(??___fladd+2)^0,c
  1666  0008BA  502C               	movf	(___fladd@b+3)^0,w,c
  1667  0008BC  5830               	subwfb	(___fladd@a+3)^0,w,c
  1668  0008BE  6E34               	movwf	(??___fladd+3)^0,c
  1669  0008C0  0EFF               	movlw	255
  1670  0008C2  2431               	addwf	??___fladd^0,w,c
  1671  0008C4  6E29               	movwf	___fladd@b^0,c
  1672  0008C6  0EFF               	movlw	255
  1673  0008C8  2032               	addwfc	(??___fladd+1)^0,w,c
  1674  0008CA  6E2A               	movwf	(___fladd@b+1)^0,c
  1675  0008CC  0EFF               	movlw	255
  1676  0008CE  2033               	addwfc	(??___fladd+2)^0,w,c
  1677  0008D0  6E2B               	movwf	(___fladd@b+2)^0,c
  1678  0008D2  0EFF               	movlw	255
  1679  0008D4  2034               	addwfc	(??___fladd+3)^0,w,c
  1680  0008D6  6E2C               	movwf	(___fladd@b+3)^0,c
  1681  0008D8  0E80               	movlw	128
  1682  0008DA  1A35               	xorwf	___fladd@signs^0,f,c
  1683  0008DC  6C38               	negf	___fladd@grs^0,c
  1684  0008DE  5038               	movf	___fladd@grs^0,w,c
  1685  0008E0  A4D8               	btfss	status,2,c
  1686  0008E2  EF75  F004         	goto	u1321
  1687  0008E6  EF77  F004         	goto	u1320
  1688  0008EA                     u1321:
  1689  0008EA  EF87  F004         	goto	l745
  1690  0008EE                     u1320:
  1691  0008EE  0E01               	movlw	1
  1692  0008F0  2629               	addwf	___fladd@b^0,f,c
  1693  0008F2  0E00               	movlw	0
  1694  0008F4  222A               	addwfc	(___fladd@b+1)^0,f,c
  1695  0008F6  222B               	addwfc	(___fladd@b+2)^0,f,c
  1696  0008F8  222C               	addwfc	(___fladd@b+3)^0,f,c
  1697  0008FA  EF87  F004         	goto	l745
  1698  0008FE                     l1693:
  1699  0008FE  502D               	movf	___fladd@a^0,w,c
  1700  000900  5E29               	subwf	___fladd@b^0,f,c
  1701  000902  502E               	movf	(___fladd@a+1)^0,w,c
  1702  000904  5A2A               	subwfb	(___fladd@b+1)^0,f,c
  1703  000906  502F               	movf	(___fladd@a+2)^0,w,c
  1704  000908  5A2B               	subwfb	(___fladd@b+2)^0,f,c
  1705  00090A  5030               	movf	(___fladd@a+3)^0,w,c
  1706  00090C  5A2C               	subwfb	(___fladd@b+3)^0,f,c
  1707  00090E                     l745:
  1708  00090E  5029               	movf	___fladd@b^0,w,c
  1709  000910  102A               	iorwf	(___fladd@b+1)^0,w,c
  1710  000912  102B               	iorwf	(___fladd@b+2)^0,w,c
  1711  000914  102C               	iorwf	(___fladd@b+3)^0,w,c
  1712  000916  A4D8               	btfss	status,2,c
  1713  000918  EF90  F004         	goto	u1331
  1714  00091C  EF92  F004         	goto	u1330
  1715  000920                     u1331:
  1716  000920  EFC7  F004         	goto	l1717
  1717  000924                     u1330:
  1718  000924  5038               	movf	___fladd@grs^0,w,c
  1719  000926  A4D8               	btfss	status,2,c
  1720  000928  EF98  F004         	goto	u1341
  1721  00092C  EF9A  F004         	goto	u1340
  1722  000930                     u1341:
  1723  000930  EFC7  F004         	goto	l1717
  1724  000934                     u1340:
  1725  000934  0E00               	movlw	0
  1726  000936  6E29               	movwf	?___fladd^0,c
  1727  000938  0E00               	movlw	0
  1728  00093A  6E2A               	movwf	(?___fladd+1)^0,c
  1729  00093C  0E00               	movlw	0
  1730  00093E  6E2B               	movwf	(?___fladd+2)^0,c
  1731  000940  0E00               	movlw	0
  1732  000942  6E2C               	movwf	(?___fladd+3)^0,c
  1733  000944  EF62  F005         	goto	l737
  1734  000948                     l1701:
  1735  000948  90D8               	bcf	status,0,c
  1736  00094A  3629               	rlcf	___fladd@b^0,f,c
  1737  00094C  362A               	rlcf	(___fladd@b+1)^0,f,c
  1738  00094E  362B               	rlcf	(___fladd@b+2)^0,f,c
  1739  000950  362C               	rlcf	(___fladd@b+3)^0,f,c
  1740  000952  AE38               	btfss	___fladd@grs^0,7,c
  1741  000954  EFAE  F004         	goto	u1351
  1742  000958  EFB0  F004         	goto	u1350
  1743  00095C                     u1351:
  1744  00095C  EFB1  F004         	goto	l1707
  1745  000960                     u1350:
  1746  000960  8029               	bsf	___fladd@b^0,0,c
  1747  000962                     l1707:
  1748  000962  A038               	btfss	___fladd@grs^0,0,c
  1749  000964  EFB6  F004         	goto	u1361
  1750  000968  EFB8  F004         	goto	u1360
  1751  00096C                     u1361:
  1752  00096C  EFBC  F004         	goto	l1711
  1753  000970                     u1360:
  1754  000970  80D8               	bsf	status,0,c
  1755  000972  3638               	rlcf	___fladd@grs^0,f,c
  1756  000974  EFBE  F004         	goto	l1713
  1757  000978                     l1711:
  1758  000978  90D8               	bcf	status,0,c
  1759  00097A  3638               	rlcf	___fladd@grs^0,f,c
  1760  00097C                     l1713:
  1761  00097C  5037               	movf	___fladd@bexp^0,w,c
  1762  00097E  B4D8               	btfsc	status,2,c
  1763  000980  EFC4  F004         	goto	u1371
  1764  000984  EFC6  F004         	goto	u1370
  1765  000988                     u1371:
  1766  000988  EFC7  F004         	goto	l1717
  1767  00098C                     u1370:
  1768  00098C  0637               	decf	___fladd@bexp^0,f,c
  1769  00098E                     l1717:
  1770  00098E  AE2B               	btfss	(___fladd@b+2)^0,7,c
  1771  000990  EFCC  F004         	goto	u1381
  1772  000994  EFCE  F004         	goto	u1380
  1773  000998                     u1381:
  1774  000998  EFA4  F004         	goto	l1701
  1775  00099C                     u1380:
  1776  00099C                     l1719:
  1777  00099C  0E00               	movlw	0
  1778  00099E  6E36               	movwf	___fladd@aexp^0,c
  1779  0009A0  AE38               	btfss	___fladd@grs^0,7,c
  1780  0009A2  EFD5  F004         	goto	u1391
  1781  0009A6  EFD7  F004         	goto	u1390
  1782  0009AA                     u1391:
  1783  0009AA  EFEF  F004         	goto	l754
  1784  0009AE                     u1390:
  1785  0009AE  C038  F031         	movff	___fladd@grs,??___fladd
  1786  0009B2  0E7F               	movlw	127
  1787  0009B4  1631               	andwf	??___fladd^0,f,c
  1788  0009B6  B4D8               	btfsc	status,2,c
  1789  0009B8  EFE0  F004         	goto	u1401
  1790  0009BC  EFE2  F004         	goto	u1400
  1791  0009C0                     u1401:
  1792  0009C0  EFE6  F004         	goto	l755
  1793  0009C4                     u1400:
  1794  0009C4                     l1725:
  1795  0009C4  0E01               	movlw	1
  1796  0009C6  6E36               	movwf	___fladd@aexp^0,c
  1797  0009C8  EFEF  F004         	goto	l754
  1798  0009CC                     l755:
  1799  0009CC  A029               	btfss	___fladd@b^0,0,c
  1800  0009CE  EFEB  F004         	goto	u1411
  1801  0009D2  EFED  F004         	goto	u1410
  1802  0009D6                     u1411:
  1803  0009D6  EFEF  F004         	goto	l754
  1804  0009DA                     u1410:
  1805  0009DA  EFE2  F004         	goto	l1725
  1806  0009DE                     l754:
  1807  0009DE  5036               	movf	___fladd@aexp^0,w,c
  1808  0009E0  B4D8               	btfsc	status,2,c
  1809  0009E2  EFF5  F004         	goto	u1421
  1810  0009E6  EFF7  F004         	goto	u1420
  1811  0009EA                     u1421:
  1812  0009EA  EF22  F005         	goto	l1737
  1813  0009EE                     u1420:
  1814  0009EE  0E01               	movlw	1
  1815  0009F0  2629               	addwf	___fladd@b^0,f,c
  1816  0009F2  0E00               	movlw	0
  1817  0009F4  222A               	addwfc	(___fladd@b+1)^0,f,c
  1818  0009F6  222B               	addwfc	(___fladd@b+2)^0,f,c
  1819  0009F8  222C               	addwfc	(___fladd@b+3)^0,f,c
  1820  0009FA  A02C               	btfss	(___fladd@b+3)^0,0,c
  1821  0009FC  EF02  F005         	goto	u1431
  1822  000A00  EF04  F005         	goto	u1430
  1823  000A04                     u1431:
  1824  000A04  EF22  F005         	goto	l1737
  1825  000A08                     u1430:
  1826  000A08  C029  F031         	movff	___fladd@b,??___fladd
  1827  000A0C  C02A  F032         	movff	___fladd@b+1,??___fladd+1
  1828  000A10  C02B  F033         	movff	___fladd@b+2,??___fladd+2
  1829  000A14  C02C  F034         	movff	___fladd@b+3,??___fladd+3
  1830  000A18  3434               	rlcf	(??___fladd+3)^0,w,c
  1831  000A1A  3234               	rrcf	(??___fladd+3)^0,f,c
  1832  000A1C  3233               	rrcf	(??___fladd+2)^0,f,c
  1833  000A1E  3232               	rrcf	(??___fladd+1)^0,f,c
  1834  000A20  3231               	rrcf	??___fladd^0,f,c
  1835  000A22  C031  F029         	movff	??___fladd,___fladd@b
  1836  000A26  C032  F02A         	movff	??___fladd+1,___fladd@b+1
  1837  000A2A  C033  F02B         	movff	??___fladd+2,___fladd@b+2
  1838  000A2E  C034  F02C         	movff	??___fladd+3,___fladd@b+3
  1839  000A32  2837               	incf	___fladd@bexp^0,w,c
  1840  000A34  B4D8               	btfsc	status,2,c
  1841  000A36  EF1F  F005         	goto	u1441
  1842  000A3A  EF21  F005         	goto	u1440
  1843  000A3E                     u1441:
  1844  000A3E  EF22  F005         	goto	l1737
  1845  000A42                     u1440:
  1846  000A42  2A37               	incf	___fladd@bexp^0,f,c
  1847  000A44                     l1737:
  1848  000A44  2837               	incf	___fladd@bexp^0,w,c
  1849  000A46  B4D8               	btfsc	status,2,c
  1850  000A48  EF28  F005         	goto	u1451
  1851  000A4C  EF2A  F005         	goto	u1450
  1852  000A50                     u1451:
  1853  000A50  EF32  F005         	goto	l1741
  1854  000A54                     u1450:
  1855  000A54  5037               	movf	___fladd@bexp^0,w,c
  1856  000A56  A4D8               	btfss	status,2,c
  1857  000A58  EF30  F005         	goto	u1461
  1858  000A5C  EF32  F005         	goto	u1460
  1859  000A60                     u1461:
  1860  000A60  EF44  F005         	goto	l1745
  1861  000A64                     u1460:
  1862  000A64                     l1741:
  1863  000A64  0E00               	movlw	0
  1864  000A66  6E29               	movwf	___fladd@b^0,c
  1865  000A68  0E00               	movlw	0
  1866  000A6A  6E2A               	movwf	(___fladd@b+1)^0,c
  1867  000A6C  0E00               	movlw	0
  1868  000A6E  6E2B               	movwf	(___fladd@b+2)^0,c
  1869  000A70  0E00               	movlw	0
  1870  000A72  6E2C               	movwf	(___fladd@b+3)^0,c
  1871  000A74  5037               	movf	___fladd@bexp^0,w,c
  1872  000A76  A4D8               	btfss	status,2,c
  1873  000A78  EF40  F005         	goto	u1471
  1874  000A7C  EF42  F005         	goto	u1470
  1875  000A80                     u1471:
  1876  000A80  EF44  F005         	goto	l1745
  1877  000A84                     u1470:
  1878  000A84  0E00               	movlw	0
  1879  000A86  6E35               	movwf	___fladd@signs^0,c
  1880  000A88                     l1745:
  1881  000A88  A037               	btfss	___fladd@bexp^0,0,c
  1882  000A8A  EF49  F005         	goto	u1481
  1883  000A8E  EF4B  F005         	goto	u1480
  1884  000A92                     u1481:
  1885  000A92  EF4E  F005         	goto	l1749
  1886  000A96                     u1480:
  1887  000A96  8E2B               	bsf	(___fladd@b+2)^0,7,c
  1888  000A98  EF4F  F005         	goto	l1751
  1889  000A9C                     l1749:
  1890  000A9C  9E2B               	bcf	(___fladd@b+2)^0,7,c
  1891  000A9E                     l1751:
  1892  000A9E  90D8               	bcf	status,0,c
  1893  000AA0  3037               	rrcf	___fladd@bexp^0,w,c
  1894  000AA2  6E2C               	movwf	(___fladd@b+3)^0,c
  1895  000AA4  AE35               	btfss	___fladd@signs^0,7,c
  1896  000AA6  EF57  F005         	goto	u1491
  1897  000AAA  EF59  F005         	goto	u1490
  1898  000AAE                     u1491:
  1899  000AAE  EF5A  F005         	goto	l1757
  1900  000AB2                     u1490:
  1901  000AB2  8E2C               	bsf	(___fladd@b+3)^0,7,c
  1902  000AB4                     l1757:
  1903  000AB4  C029  F029         	movff	___fladd@b,?___fladd
  1904  000AB8  C02A  F02A         	movff	___fladd@b+1,?___fladd+1
  1905  000ABC  C02B  F02B         	movff	___fladd@b+2,?___fladd+2
  1906  000AC0  C02C  F02C         	movff	___fladd@b+3,?___fladd+3
  1907  000AC4                     l737:
  1908  000AC4  0012               	return		;funcret
  1909  000AC6                     __end_of___fladd:
  1910                           	callstack 0
  1911                           
  1912 ;; *************** function ___flmul *****************
  1913 ;; Defined at:
  1914 ;;		line 8 in file "C:\Program Files\Microchip\xc8\v2.30\pic\sources\c99\common\sprcmul.c"
  1915 ;; Parameters:    Size  Location     Type
  1916 ;;  b               4   15[COMRAM] unsigned char 
  1917 ;;  a               4   19[COMRAM] unsigned char 
  1918 ;; Auto vars:     Size  Location     Type
  1919 ;;  prod            4   34[COMRAM] struct .
  1920 ;;  grs             4   28[COMRAM] unsigned long 
  1921 ;;  temp            2   38[COMRAM] struct .
  1922 ;;  bexp            1   33[COMRAM] unsigned char 
  1923 ;;  aexp            1   32[COMRAM] unsigned char 
  1924 ;;  sign            1   27[COMRAM] unsigned char 
  1925 ;; Return value:  Size  Location     Type
  1926 ;;                  4   15[COMRAM] unsigned char 
  1927 ;; Registers used:
  1928 ;;		wreg, status,2, status,0, prodl, prodh
  1929 ;; Tracked objects:
  1930 ;;		On entry : 0/0
  1931 ;;		On exit  : 0/0
  1932 ;;		Unchanged: 0/0
  1933 ;; Data sizes:     COMRAM   BANK0   BANK1   BANK2   BANK3   BANK4   BANK5
  1934 ;;      Params:         8       0       0       0       0       0       0
  1935 ;;      Locals:        13       0       0       0       0       0       0
  1936 ;;      Temps:          4       0       0       0       0       0       0
  1937 ;;      Totals:        25       0       0       0       0       0       0
  1938 ;;Total ram usage:       25 bytes
  1939 ;; Hardware stack levels used:    1
  1940 ;; Hardware stack levels required when called:    2
  1941 ;; This function calls:
  1942 ;;		Nothing
  1943 ;; This function is called by:
  1944 ;;		_main
  1945 ;; This function uses a non-reentrant model
  1946 ;;
  1947                           
  1948                           	psect	text6
  1949  000AC6                     __ptext6:
  1950                           	callstack 0
  1951  000AC6                     ___flmul:
  1952                           	callstack 28
  1953  000AC6  5013               	movf	(___flmul@b+3)^0,w,c
  1954  000AC8  0B80               	andlw	128
  1955  000ACA  6E1C               	movwf	___flmul@sign^0,c
  1956  000ACC  5013               	movf	(___flmul@b+3)^0,w,c
  1957  000ACE  2413               	addwf	(___flmul@b+3)^0,w,c
  1958  000AD0  6E22               	movwf	___flmul@bexp^0,c
  1959  000AD2  AE12               	btfss	(___flmul@b+2)^0,7,c
  1960  000AD4  EF6E  F005         	goto	u1581
  1961  000AD8  EF70  F005         	goto	u1580
  1962  000ADC                     u1581:
  1963  000ADC  EF71  F005         	goto	l1795
  1964  000AE0                     u1580:
  1965  000AE0  8022               	bsf	___flmul@bexp^0,0,c
  1966  000AE2                     l1795:
  1967  000AE2  5022               	movf	___flmul@bexp^0,w,c
  1968  000AE4  B4D8               	btfsc	status,2,c
  1969  000AE6  EF77  F005         	goto	u1591
  1970  000AEA  EF79  F005         	goto	u1590
  1971  000AEE                     u1591:
  1972  000AEE  EF8C  F005         	goto	l1803
  1973  000AF2                     u1590:
  1974  000AF2  2822               	incf	___flmul@bexp^0,w,c
  1975  000AF4  A4D8               	btfss	status,2,c
  1976  000AF6  EF7F  F005         	goto	u1601
  1977  000AFA  EF81  F005         	goto	u1600
  1978  000AFE                     u1601:
  1979  000AFE  EF89  F005         	goto	l1801
  1980  000B02                     u1600:
  1981  000B02  0E00               	movlw	0
  1982  000B04  6E10               	movwf	___flmul@b^0,c
  1983  000B06  0E00               	movlw	0
  1984  000B08  6E11               	movwf	(___flmul@b+1)^0,c
  1985  000B0A  0E00               	movlw	0
  1986  000B0C  6E12               	movwf	(___flmul@b+2)^0,c
  1987  000B0E  0E00               	movlw	0
  1988  000B10  6E13               	movwf	(___flmul@b+3)^0,c
  1989  000B12                     l1801:
  1990  000B12  8E12               	bsf	(___flmul@b+2)^0,7,c
  1991  000B14  EF94  F005         	goto	l1805
  1992  000B18                     l1803:
  1993  000B18  0E00               	movlw	0
  1994  000B1A  6E10               	movwf	___flmul@b^0,c
  1995  000B1C  0E00               	movlw	0
  1996  000B1E  6E11               	movwf	(___flmul@b+1)^0,c
  1997  000B20  0E00               	movlw	0
  1998  000B22  6E12               	movwf	(___flmul@b+2)^0,c
  1999  000B24  0E00               	movlw	0
  2000  000B26  6E13               	movwf	(___flmul@b+3)^0,c
  2001  000B28                     l1805:
  2002  000B28  5017               	movf	(___flmul@a+3)^0,w,c
  2003  000B2A  0B80               	andlw	128
  2004  000B2C  1A1C               	xorwf	___flmul@sign^0,f,c
  2005  000B2E  5017               	movf	(___flmul@a+3)^0,w,c
  2006  000B30  2417               	addwf	(___flmul@a+3)^0,w,c
  2007  000B32  6E21               	movwf	___flmul@aexp^0,c
  2008  000B34  AE16               	btfss	(___flmul@a+2)^0,7,c
  2009  000B36  EF9F  F005         	goto	u1611
  2010  000B3A  EFA1  F005         	goto	u1610
  2011  000B3E                     u1611:
  2012  000B3E  EFA2  F005         	goto	l1813
  2013  000B42                     u1610:
  2014  000B42  8021               	bsf	___flmul@aexp^0,0,c
  2015  000B44                     l1813:
  2016  000B44  5021               	movf	___flmul@aexp^0,w,c
  2017  000B46  B4D8               	btfsc	status,2,c
  2018  000B48  EFA8  F005         	goto	u1621
  2019  000B4C  EFAA  F005         	goto	u1620
  2020  000B50                     u1621:
  2021  000B50  EFBD  F005         	goto	l1821
  2022  000B54                     u1620:
  2023  000B54  2821               	incf	___flmul@aexp^0,w,c
  2024  000B56  A4D8               	btfss	status,2,c
  2025  000B58  EFB0  F005         	goto	u1631
  2026  000B5C  EFB2  F005         	goto	u1630
  2027  000B60                     u1631:
  2028  000B60  EFBA  F005         	goto	l1819
  2029  000B64                     u1630:
  2030  000B64  0E00               	movlw	0
  2031  000B66  6E14               	movwf	___flmul@a^0,c
  2032  000B68  0E00               	movlw	0
  2033  000B6A  6E15               	movwf	(___flmul@a+1)^0,c
  2034  000B6C  0E00               	movlw	0
  2035  000B6E  6E16               	movwf	(___flmul@a+2)^0,c
  2036  000B70  0E00               	movlw	0
  2037  000B72  6E17               	movwf	(___flmul@a+3)^0,c
  2038  000B74                     l1819:
  2039  000B74  8E16               	bsf	(___flmul@a+2)^0,7,c
  2040  000B76  EFC5  F005         	goto	l814
  2041  000B7A                     l1821:
  2042  000B7A  0E00               	movlw	0
  2043  000B7C  6E14               	movwf	___flmul@a^0,c
  2044  000B7E  0E00               	movlw	0
  2045  000B80  6E15               	movwf	(___flmul@a+1)^0,c
  2046  000B82  0E00               	movlw	0
  2047  000B84  6E16               	movwf	(___flmul@a+2)^0,c
  2048  000B86  0E00               	movlw	0
  2049  000B88  6E17               	movwf	(___flmul@a+3)^0,c
  2050  000B8A                     l814:
  2051  000B8A  5021               	movf	___flmul@aexp^0,w,c
  2052  000B8C  B4D8               	btfsc	status,2,c
  2053  000B8E  EFCB  F005         	goto	u1641
  2054  000B92  EFCD  F005         	goto	u1640
  2055  000B96                     u1641:
  2056  000B96  EFD5  F005         	goto	l1825
  2057  000B9A                     u1640:
  2058  000B9A  5022               	movf	___flmul@bexp^0,w,c
  2059  000B9C  A4D8               	btfss	status,2,c
  2060  000B9E  EFD3  F005         	goto	u1651
  2061  000BA2  EFD5  F005         	goto	u1650
  2062  000BA6                     u1651:
  2063  000BA6  EFDF  F005         	goto	l1829
  2064  000BAA                     u1650:
  2065  000BAA                     l1825:
  2066  000BAA  0E00               	movlw	0
  2067  000BAC  6E10               	movwf	?___flmul^0,c
  2068  000BAE  0E00               	movlw	0
  2069  000BB0  6E11               	movwf	(?___flmul+1)^0,c
  2070  000BB2  0E00               	movlw	0
  2071  000BB4  6E12               	movwf	(?___flmul+2)^0,c
  2072  000BB6  0E00               	movlw	0
  2073  000BB8  6E13               	movwf	(?___flmul+3)^0,c
  2074  000BBA  EF77  F007         	goto	l818
  2075  000BBE                     l1829:
  2076  000BBE  5016               	movf	(___flmul@a+2)^0,w,c
  2077  000BC0  0210               	mulwf	___flmul@b^0,c
  2078  000BC2  CFF3 F027          	movff	prodl,___flmul@temp
  2079  000BC6  CFF4 F028          	movff	prodh,___flmul@temp+1
  2080  000BCA  5027               	movf	___flmul@temp^0,w,c
  2081  000BCC  6E1D               	movwf	___flmul@grs^0,c
  2082  000BCE  6A1E               	clrf	(___flmul@grs+1)^0,c
  2083  000BD0  6A1F               	clrf	(___flmul@grs+2)^0,c
  2084  000BD2  6A20               	clrf	(___flmul@grs+3)^0,c
  2085  000BD4  5028               	movf	(___flmul@temp+1)^0,w,c
  2086  000BD6  6E23               	movwf	___flmul@prod^0,c
  2087  000BD8  6A24               	clrf	(___flmul@prod+1)^0,c
  2088  000BDA  6A25               	clrf	(___flmul@prod+2)^0,c
  2089  000BDC  6A26               	clrf	(___flmul@prod+3)^0,c
  2090  000BDE  5015               	movf	(___flmul@a+1)^0,w,c
  2091  000BE0  0211               	mulwf	(___flmul@b+1)^0,c
  2092  000BE2  CFF3 F027          	movff	prodl,___flmul@temp
  2093  000BE6  CFF4 F028          	movff	prodh,___flmul@temp+1
  2094  000BEA  5027               	movf	___flmul@temp^0,w,c
  2095  000BEC  261D               	addwf	___flmul@grs^0,f,c
  2096  000BEE  0E00               	movlw	0
  2097  000BF0  221E               	addwfc	(___flmul@grs+1)^0,f,c
  2098  000BF2  221F               	addwfc	(___flmul@grs+2)^0,f,c
  2099  000BF4  2220               	addwfc	(___flmul@grs+3)^0,f,c
  2100  000BF6  5028               	movf	(___flmul@temp+1)^0,w,c
  2101  000BF8  2623               	addwf	___flmul@prod^0,f,c
  2102  000BFA  0E00               	movlw	0
  2103  000BFC  2224               	addwfc	(___flmul@prod+1)^0,f,c
  2104  000BFE  2225               	addwfc	(___flmul@prod+2)^0,f,c
  2105  000C00  2226               	addwfc	(___flmul@prod+3)^0,f,c
  2106  000C02  5014               	movf	___flmul@a^0,w,c
  2107  000C04  0212               	mulwf	(___flmul@b+2)^0,c
  2108  000C06  CFF3 F027          	movff	prodl,___flmul@temp
  2109  000C0A  CFF4 F028          	movff	prodh,___flmul@temp+1
  2110  000C0E  5027               	movf	___flmul@temp^0,w,c
  2111  000C10  261D               	addwf	___flmul@grs^0,f,c
  2112  000C12  0E00               	movlw	0
  2113  000C14  221E               	addwfc	(___flmul@grs+1)^0,f,c
  2114  000C16  221F               	addwfc	(___flmul@grs+2)^0,f,c
  2115  000C18  2220               	addwfc	(___flmul@grs+3)^0,f,c
  2116  000C1A  5028               	movf	(___flmul@temp+1)^0,w,c
  2117  000C1C  2623               	addwf	___flmul@prod^0,f,c
  2118  000C1E  0E00               	movlw	0
  2119  000C20  2224               	addwfc	(___flmul@prod+1)^0,f,c
  2120  000C22  2225               	addwfc	(___flmul@prod+2)^0,f,c
  2121  000C24  2226               	addwfc	(___flmul@prod+3)^0,f,c
  2122  000C26  C01F  F020         	movff	___flmul@grs+2,___flmul@grs+3
  2123  000C2A  C01E  F01F         	movff	___flmul@grs+1,___flmul@grs+2
  2124  000C2E  C01D  F01E         	movff	___flmul@grs,___flmul@grs+1
  2125  000C32  6A1D               	clrf	___flmul@grs^0,c
  2126  000C34  5014               	movf	___flmul@a^0,w,c
  2127  000C36  0211               	mulwf	(___flmul@b+1)^0,c
  2128  000C38  CFF3 F027          	movff	prodl,___flmul@temp
  2129  000C3C  CFF4 F028          	movff	prodh,___flmul@temp+1
  2130  000C40  5027               	movf	___flmul@temp^0,w,c
  2131  000C42  261D               	addwf	___flmul@grs^0,f,c
  2132  000C44  5028               	movf	(___flmul@temp+1)^0,w,c
  2133  000C46  221E               	addwfc	(___flmul@grs+1)^0,f,c
  2134  000C48  0E00               	movlw	0
  2135  000C4A  221F               	addwfc	(___flmul@grs+2)^0,f,c
  2136  000C4C  0E00               	movlw	0
  2137  000C4E  2220               	addwfc	(___flmul@grs+3)^0,f,c
  2138  000C50  5015               	movf	(___flmul@a+1)^0,w,c
  2139  000C52  0210               	mulwf	___flmul@b^0,c
  2140  000C54  CFF3 F027          	movff	prodl,___flmul@temp
  2141  000C58  CFF4 F028          	movff	prodh,___flmul@temp+1
  2142  000C5C  5027               	movf	___flmul@temp^0,w,c
  2143  000C5E  261D               	addwf	___flmul@grs^0,f,c
  2144  000C60  5028               	movf	(___flmul@temp+1)^0,w,c
  2145  000C62  221E               	addwfc	(___flmul@grs+1)^0,f,c
  2146  000C64  0E00               	movlw	0
  2147  000C66  221F               	addwfc	(___flmul@grs+2)^0,f,c
  2148  000C68  0E00               	movlw	0
  2149  000C6A  2220               	addwfc	(___flmul@grs+3)^0,f,c
  2150  000C6C  C01F  F020         	movff	___flmul@grs+2,___flmul@grs+3
  2151  000C70  C01E  F01F         	movff	___flmul@grs+1,___flmul@grs+2
  2152  000C74  C01D  F01E         	movff	___flmul@grs,___flmul@grs+1
  2153  000C78  6A1D               	clrf	___flmul@grs^0,c
  2154  000C7A  5014               	movf	___flmul@a^0,w,c
  2155  000C7C  0210               	mulwf	___flmul@b^0,c
  2156  000C7E  CFF3 F027          	movff	prodl,___flmul@temp
  2157  000C82  CFF4 F028          	movff	prodh,___flmul@temp+1
  2158  000C86  5027               	movf	___flmul@temp^0,w,c
  2159  000C88  261D               	addwf	___flmul@grs^0,f,c
  2160  000C8A  5028               	movf	(___flmul@temp+1)^0,w,c
  2161  000C8C  221E               	addwfc	(___flmul@grs+1)^0,f,c
  2162  000C8E  0E00               	movlw	0
  2163  000C90  221F               	addwfc	(___flmul@grs+2)^0,f,c
  2164  000C92  0E00               	movlw	0
  2165  000C94  2220               	addwfc	(___flmul@grs+3)^0,f,c
  2166  000C96  5016               	movf	(___flmul@a+2)^0,w,c
  2167  000C98  0211               	mulwf	(___flmul@b+1)^0,c
  2168  000C9A  CFF3 F027          	movff	prodl,___flmul@temp
  2169  000C9E  CFF4 F028          	movff	prodh,___flmul@temp+1
  2170  000CA2  5027               	movf	___flmul@temp^0,w,c
  2171  000CA4  2623               	addwf	___flmul@prod^0,f,c
  2172  000CA6  5028               	movf	(___flmul@temp+1)^0,w,c
  2173  000CA8  2224               	addwfc	(___flmul@prod+1)^0,f,c
  2174  000CAA  0E00               	movlw	0
  2175  000CAC  2225               	addwfc	(___flmul@prod+2)^0,f,c
  2176  000CAE  0E00               	movlw	0
  2177  000CB0  2226               	addwfc	(___flmul@prod+3)^0,f,c
  2178  000CB2  5015               	movf	(___flmul@a+1)^0,w,c
  2179  000CB4  0212               	mulwf	(___flmul@b+2)^0,c
  2180  000CB6  CFF3 F027          	movff	prodl,___flmul@temp
  2181  000CBA  CFF4 F028          	movff	prodh,___flmul@temp+1
  2182  000CBE  5027               	movf	___flmul@temp^0,w,c
  2183  000CC0  2623               	addwf	___flmul@prod^0,f,c
  2184  000CC2  5028               	movf	(___flmul@temp+1)^0,w,c
  2185  000CC4  2224               	addwfc	(___flmul@prod+1)^0,f,c
  2186  000CC6  0E00               	movlw	0
  2187  000CC8  2225               	addwfc	(___flmul@prod+2)^0,f,c
  2188  000CCA  0E00               	movlw	0
  2189  000CCC  2226               	addwfc	(___flmul@prod+3)^0,f,c
  2190  000CCE  5016               	movf	(___flmul@a+2)^0,w,c
  2191  000CD0  0212               	mulwf	(___flmul@b+2)^0,c
  2192  000CD2  CFF3 F027          	movff	prodl,___flmul@temp
  2193  000CD6  CFF4 F028          	movff	prodh,___flmul@temp+1
  2194  000CDA  5027               	movf	___flmul@temp^0,w,c
  2195  000CDC  6E18               	movwf	??___flmul^0,c
  2196  000CDE  5028               	movf	(___flmul@temp+1)^0,w,c
  2197  000CE0  6E19               	movwf	(??___flmul+1)^0,c
  2198  000CE2  6A1A               	clrf	(??___flmul+2)^0,c
  2199  000CE4  6A1B               	clrf	(??___flmul+3)^0,c
  2200  000CE6  C01A  F01B         	movff	??___flmul+2,??___flmul+3
  2201  000CEA  C019  F01A         	movff	??___flmul+1,??___flmul+2
  2202  000CEE  C018  F019         	movff	??___flmul,??___flmul+1
  2203  000CF2  6A18               	clrf	??___flmul^0,c
  2204  000CF4  5018               	movf	??___flmul^0,w,c
  2205  000CF6  2623               	addwf	___flmul@prod^0,f,c
  2206  000CF8  5019               	movf	(??___flmul+1)^0,w,c
  2207  000CFA  2224               	addwfc	(___flmul@prod+1)^0,f,c
  2208  000CFC  501A               	movf	(??___flmul+2)^0,w,c
  2209  000CFE  2225               	addwfc	(___flmul@prod+2)^0,f,c
  2210  000D00  501B               	movf	(??___flmul+3)^0,w,c
  2211  000D02  2226               	addwfc	(___flmul@prod+3)^0,f,c
  2212  000D04  C01D  F018         	movff	___flmul@grs,??___flmul
  2213  000D08  C01E  F019         	movff	___flmul@grs+1,??___flmul+1
  2214  000D0C  C01F  F01A         	movff	___flmul@grs+2,??___flmul+2
  2215  000D10  C020  F01B         	movff	___flmul@grs+3,??___flmul+3
  2216  000D14  0E19               	movlw	25
  2217  000D16  EF92  F006         	goto	u1660
  2218  000D1A                     u1665:
  2219  000D1A  90D8               	bcf	status,0,c
  2220  000D1C  321B               	rrcf	(??___flmul+3)^0,f,c
  2221  000D1E  321A               	rrcf	(??___flmul+2)^0,f,c
  2222  000D20  3219               	rrcf	(??___flmul+1)^0,f,c
  2223  000D22  3218               	rrcf	??___flmul^0,f,c
  2224  000D24                     u1660:
  2225  000D24  2EE8               	decfsz	wreg,f,c
  2226  000D26  EF8D  F006         	goto	u1665
  2227  000D2A  5018               	movf	??___flmul^0,w,c
  2228  000D2C  2623               	addwf	___flmul@prod^0,f,c
  2229  000D2E  5019               	movf	(??___flmul+1)^0,w,c
  2230  000D30  2224               	addwfc	(___flmul@prod+1)^0,f,c
  2231  000D32  501A               	movf	(??___flmul+2)^0,w,c
  2232  000D34  2225               	addwfc	(___flmul@prod+2)^0,f,c
  2233  000D36  501B               	movf	(??___flmul+3)^0,w,c
  2234  000D38  2226               	addwfc	(___flmul@prod+3)^0,f,c
  2235  000D3A  C01F  F020         	movff	___flmul@grs+2,___flmul@grs+3
  2236  000D3E  C01E  F01F         	movff	___flmul@grs+1,___flmul@grs+2
  2237  000D42  C01D  F01E         	movff	___flmul@grs,___flmul@grs+1
  2238  000D46  6A1D               	clrf	___flmul@grs^0,c
  2239  000D48  5021               	movf	___flmul@aexp^0,w,c
  2240  000D4A  C022  F018         	movff	___flmul@bexp,??___flmul
  2241  000D4E  6A19               	clrf	(??___flmul+1)^0,c
  2242  000D50  2618               	addwf	??___flmul^0,f,c
  2243  000D52  0E00               	movlw	0
  2244  000D54  2219               	addwfc	(??___flmul+1)^0,f,c
  2245  000D56  0E82               	movlw	130
  2246  000D58  2418               	addwf	??___flmul^0,w,c
  2247  000D5A  6E27               	movwf	___flmul@temp^0,c
  2248  000D5C  0EFF               	movlw	255
  2249  000D5E  2019               	addwfc	(??___flmul+1)^0,w,c
  2250  000D60  6E28               	movwf	(___flmul@temp+1)^0,c
  2251  000D62  EFC8  F006         	goto	l1877
  2252  000D66                     l1871:
  2253  000D66  90D8               	bcf	status,0,c
  2254  000D68  3623               	rlcf	___flmul@prod^0,f,c
  2255  000D6A  3624               	rlcf	(___flmul@prod+1)^0,f,c
  2256  000D6C  3625               	rlcf	(___flmul@prod+2)^0,f,c
  2257  000D6E  3626               	rlcf	(___flmul@prod+3)^0,f,c
  2258  000D70  AE20               	btfss	(___flmul@grs+3)^0,7,c
  2259  000D72  EFBD  F006         	goto	u1671
  2260  000D76  EFBF  F006         	goto	u1670
  2261  000D7A                     u1671:
  2262  000D7A  EFC0  F006         	goto	l821
  2263  000D7E                     u1670:
  2264  000D7E  8023               	bsf	___flmul@prod^0,0,c
  2265  000D80                     l821:
  2266  000D80  90D8               	bcf	status,0,c
  2267  000D82  361D               	rlcf	___flmul@grs^0,f,c
  2268  000D84  361E               	rlcf	(___flmul@grs+1)^0,f,c
  2269  000D86  361F               	rlcf	(___flmul@grs+2)^0,f,c
  2270  000D88  3620               	rlcf	(___flmul@grs+3)^0,f,c
  2271  000D8A  0627               	decf	___flmul@temp^0,f,c
  2272  000D8C  A0D8               	btfss	status,0,c
  2273  000D8E  0628               	decf	(___flmul@temp+1)^0,f,c
  2274  000D90                     l1877:
  2275  000D90  AE25               	btfss	(___flmul@prod+2)^0,7,c
  2276  000D92  EFCD  F006         	goto	u1681
  2277  000D96  EFCF  F006         	goto	u1680
  2278  000D9A                     u1681:
  2279  000D9A  EFB3  F006         	goto	l1871
  2280  000D9E                     u1680:
  2281  000D9E  0E00               	movlw	0
  2282  000DA0  6E21               	movwf	___flmul@aexp^0,c
  2283  000DA2  AE20               	btfss	(___flmul@grs+3)^0,7,c
  2284  000DA4  EFD6  F006         	goto	u1691
  2285  000DA8  EFD8  F006         	goto	u1690
  2286  000DAC                     u1691:
  2287  000DAC  EFFC  F006         	goto	l823
  2288  000DB0                     u1690:
  2289  000DB0  0EFF               	movlw	255
  2290  000DB2  141D               	andwf	___flmul@grs^0,w,c
  2291  000DB4  6E18               	movwf	??___flmul^0,c
  2292  000DB6  0EFF               	movlw	255
  2293  000DB8  141E               	andwf	(___flmul@grs+1)^0,w,c
  2294  000DBA  6E19               	movwf	(??___flmul+1)^0,c
  2295  000DBC  0EFF               	movlw	255
  2296  000DBE  141F               	andwf	(___flmul@grs+2)^0,w,c
  2297  000DC0  6E1A               	movwf	(??___flmul+2)^0,c
  2298  000DC2  0E7F               	movlw	127
  2299  000DC4  1420               	andwf	(___flmul@grs+3)^0,w,c
  2300  000DC6  6E1B               	movwf	(??___flmul+3)^0,c
  2301  000DC8  5018               	movf	??___flmul^0,w,c
  2302  000DCA  1019               	iorwf	(??___flmul+1)^0,w,c
  2303  000DCC  101A               	iorwf	(??___flmul+2)^0,w,c
  2304  000DCE  101B               	iorwf	(??___flmul+3)^0,w,c
  2305  000DD0  B4D8               	btfsc	status,2,c
  2306  000DD2  EFED  F006         	goto	u1701
  2307  000DD6  EFEF  F006         	goto	u1700
  2308  000DDA                     u1701:
  2309  000DDA  EFF3  F006         	goto	l824
  2310  000DDE                     u1700:
  2311  000DDE                     l1885:
  2312  000DDE  0E01               	movlw	1
  2313  000DE0  6E21               	movwf	___flmul@aexp^0,c
  2314  000DE2  EFFC  F006         	goto	l823
  2315  000DE6                     l824:
  2316  000DE6  A023               	btfss	___flmul@prod^0,0,c
  2317  000DE8  EFF8  F006         	goto	u1711
  2318  000DEC  EFFA  F006         	goto	u1710
  2319  000DF0                     u1711:
  2320  000DF0  EFFC  F006         	goto	l823
  2321  000DF4                     u1710:
  2322  000DF4  EFEF  F006         	goto	l1885
  2323  000DF8                     l823:
  2324  000DF8  5021               	movf	___flmul@aexp^0,w,c
  2325  000DFA  B4D8               	btfsc	status,2,c
  2326  000DFC  EF02  F007         	goto	u1721
  2327  000E00  EF04  F007         	goto	u1720
  2328  000E04                     u1721:
  2329  000E04  EF28  F007         	goto	l1897
  2330  000E08                     u1720:
  2331  000E08  0E01               	movlw	1
  2332  000E0A  2623               	addwf	___flmul@prod^0,f,c
  2333  000E0C  0E00               	movlw	0
  2334  000E0E  2224               	addwfc	(___flmul@prod+1)^0,f,c
  2335  000E10  2225               	addwfc	(___flmul@prod+2)^0,f,c
  2336  000E12  2226               	addwfc	(___flmul@prod+3)^0,f,c
  2337  000E14  A026               	btfss	(___flmul@prod+3)^0,0,c
  2338  000E16  EF0F  F007         	goto	u1731
  2339  000E1A  EF11  F007         	goto	u1730
  2340  000E1E                     u1731:
  2341  000E1E  EF28  F007         	goto	l1897
  2342  000E22                     u1730:
  2343  000E22  C023  F018         	movff	___flmul@prod,??___flmul
  2344  000E26  C024  F019         	movff	___flmul@prod+1,??___flmul+1
  2345  000E2A  C025  F01A         	movff	___flmul@prod+2,??___flmul+2
  2346  000E2E  C026  F01B         	movff	___flmul@prod+3,??___flmul+3
  2347  000E32  341B               	rlcf	(??___flmul+3)^0,w,c
  2348  000E34  321B               	rrcf	(??___flmul+3)^0,f,c
  2349  000E36  321A               	rrcf	(??___flmul+2)^0,f,c
  2350  000E38  3219               	rrcf	(??___flmul+1)^0,f,c
  2351  000E3A  3218               	rrcf	??___flmul^0,f,c
  2352  000E3C  C018  F023         	movff	??___flmul,___flmul@prod
  2353  000E40  C019  F024         	movff	??___flmul+1,___flmul@prod+1
  2354  000E44  C01A  F025         	movff	??___flmul+2,___flmul@prod+2
  2355  000E48  C01B  F026         	movff	??___flmul+3,___flmul@prod+3
  2356  000E4C  4A27               	infsnz	___flmul@temp^0,f,c
  2357  000E4E  2A28               	incf	(___flmul@temp+1)^0,f,c
  2358  000E50                     l1897:
  2359  000E50  BE28               	btfsc	(___flmul@temp+1)^0,7,c
  2360  000E52  EF33  F007         	goto	u1741
  2361  000E56  5028               	movf	(___flmul@temp+1)^0,w,c
  2362  000E58  E108               	bnz	u1740
  2363  000E5A  2827               	incf	___flmul@temp^0,w,c
  2364  000E5C  A0D8               	btfss	status,0,c
  2365  000E5E  EF33  F007         	goto	u1741
  2366  000E62  EF35  F007         	goto	u1740
  2367  000E66                     u1741:
  2368  000E66  EF3F  F007         	goto	l1901
  2369  000E6A                     u1740:
  2370  000E6A  0E00               	movlw	0
  2371  000E6C  6E23               	movwf	___flmul@prod^0,c
  2372  000E6E  0E00               	movlw	0
  2373  000E70  6E24               	movwf	(___flmul@prod+1)^0,c
  2374  000E72  0E80               	movlw	128
  2375  000E74  6E25               	movwf	(___flmul@prod+2)^0,c
  2376  000E76  0E7F               	movlw	127
  2377  000E78  6E26               	movwf	(___flmul@prod+3)^0,c
  2378  000E7A  EF6D  F007         	goto	l1913
  2379  000E7E                     l1901:
  2380  000E7E  BE28               	btfsc	(___flmul@temp+1)^0,7,c
  2381  000E80  EF4C  F007         	goto	u1750
  2382  000E84  5028               	movf	(___flmul@temp+1)^0,w,c
  2383  000E86  E106               	bnz	u1751
  2384  000E88  0427               	decf	___flmul@temp^0,w,c
  2385  000E8A  B0D8               	btfsc	status,0,c
  2386  000E8C  EF4A  F007         	goto	u1751
  2387  000E90  EF4C  F007         	goto	u1750
  2388  000E94                     u1751:
  2389  000E94  EF58  F007         	goto	l831
  2390  000E98                     u1750:
  2391  000E98  0E00               	movlw	0
  2392  000E9A  6E23               	movwf	___flmul@prod^0,c
  2393  000E9C  0E00               	movlw	0
  2394  000E9E  6E24               	movwf	(___flmul@prod+1)^0,c
  2395  000EA0  0E00               	movlw	0
  2396  000EA2  6E25               	movwf	(___flmul@prod+2)^0,c
  2397  000EA4  0E00               	movlw	0
  2398  000EA6  6E26               	movwf	(___flmul@prod+3)^0,c
  2399  000EA8  0E00               	movlw	0
  2400  000EAA  6E1C               	movwf	___flmul@sign^0,c
  2401  000EAC  EF6D  F007         	goto	l1913
  2402  000EB0                     l831:
  2403  000EB0  C027  F022         	movff	___flmul@temp,___flmul@bexp
  2404  000EB4  0EFF               	movlw	255
  2405  000EB6  1623               	andwf	___flmul@prod^0,f,c
  2406  000EB8  0EFF               	movlw	255
  2407  000EBA  1624               	andwf	(___flmul@prod+1)^0,f,c
  2408  000EBC  0E7F               	movlw	127
  2409  000EBE  1625               	andwf	(___flmul@prod+2)^0,f,c
  2410  000EC0  0E00               	movlw	0
  2411  000EC2  1626               	andwf	(___flmul@prod+3)^0,f,c
  2412  000EC4  A022               	btfss	___flmul@bexp^0,0,c
  2413  000EC6  EF67  F007         	goto	u1761
  2414  000ECA  EF69  F007         	goto	u1760
  2415  000ECE                     u1761:
  2416  000ECE  EF6A  F007         	goto	l1911
  2417  000ED2                     u1760:
  2418  000ED2  8E25               	bsf	(___flmul@prod+2)^0,7,c
  2419  000ED4                     l1911:
  2420  000ED4  90D8               	bcf	status,0,c
  2421  000ED6  3022               	rrcf	___flmul@bexp^0,w,c
  2422  000ED8  6E26               	movwf	(___flmul@prod+3)^0,c
  2423  000EDA                     l1913:
  2424  000EDA  501C               	movf	___flmul@sign^0,w,c
  2425  000EDC  1226               	iorwf	(___flmul@prod+3)^0,f,c
  2426  000EDE  C023  F010         	movff	___flmul@prod,?___flmul
  2427  000EE2  C024  F011         	movff	___flmul@prod+1,?___flmul+1
  2428  000EE6  C025  F012         	movff	___flmul@prod+2,?___flmul+2
  2429  000EEA  C026  F013         	movff	___flmul@prod+3,?___flmul+3
  2430  000EEE                     l818:
  2431  000EEE  0012               	return		;funcret
  2432  000EF0                     __end_of___flmul:
  2433                           	callstack 0
  2434                           
  2435 ;; *************** function _Vibration_ON *****************
  2436 ;; Defined at:
  2437 ;;		line 26 in file "PWM.c"
  2438 ;; Parameters:    Size  Location     Type
  2439 ;;  percentage      2   15[COMRAM] unsigned int 
  2440 ;; Auto vars:     Size  Location     Type
  2441 ;;  output          4   22[COMRAM] long 
  2442 ;; Return value:  Size  Location     Type
  2443 ;;                  1    wreg      void 
  2444 ;; Registers used:
  2445 ;;		wreg, status,2, status,0, cstack
  2446 ;; Tracked objects:
  2447 ;;		On entry : 0/0
  2448 ;;		On exit  : 0/0
  2449 ;;		Unchanged: 0/0
  2450 ;; Data sizes:     COMRAM   BANK0   BANK1   BANK2   BANK3   BANK4   BANK5
  2451 ;;      Params:         2       0       0       0       0       0       0
  2452 ;;      Locals:         4       0       0       0       0       0       0
  2453 ;;      Temps:          5       0       0       0       0       0       0
  2454 ;;      Totals:        11       0       0       0       0       0       0
  2455 ;;Total ram usage:       11 bytes
  2456 ;; Hardware stack levels used:    1
  2457 ;; Hardware stack levels required when called:    3
  2458 ;; This function calls:
  2459 ;;		___aldiv
  2460 ;;		___lmul
  2461 ;; This function is called by:
  2462 ;;		_main
  2463 ;; This function uses a non-reentrant model
  2464 ;;
  2465                           
  2466                           	psect	text7
  2467  001344                     __ptext7:
  2468                           	callstack 0
  2469  001344                     _Vibration_ON:
  2470                           	callstack 27
  2471  001344                     
  2472                           ;PWM.c: 28:     long output;;PWM.c: 30:     if (percentage > 100) {
  2473  001344  5011               	movf	(Vibration_ON@percentage+1)^0,w,c
  2474  001346  E109               	bnz	u1500
  2475  001348  0E65               	movlw	101
  2476  00134A  5C10               	subwf	Vibration_ON@percentage^0,w,c
  2477  00134C  A0D8               	btfss	status,0,c
  2478  00134E  EFAB  F009         	goto	u1501
  2479  001352  EFAD  F009         	goto	u1500
  2480  001356                     u1501:
  2481  001356  EFAF  F009         	goto	l1765
  2482  00135A                     u1500:
  2483  00135A  EF36  F00A         	goto	l133
  2484  00135E                     l1765:
  2485                           
  2486                           ;PWM.c: 34:     output = ((long) (PR2 + 1)) << 2;
  2487  00135E  0E01               	movlw	1
  2488  001360  24CB               	addwf	203,w,c	;volatile
  2489  001362  6E12               	movwf	??_Vibration_ON^0,c
  2490  001364  6A13               	clrf	(??_Vibration_ON+1)^0,c
  2491  001366  0E00               	movlw	0
  2492  001368  2213               	addwfc	(??_Vibration_ON+1)^0,f,c
  2493  00136A  6A14               	clrf	(??_Vibration_ON+2)^0,c
  2494  00136C  BE13               	btfsc	(??_Vibration_ON+1)^0,7,c
  2495  00136E  0614               	decf	(??_Vibration_ON+2)^0,f,c
  2496  001370  5014               	movf	(??_Vibration_ON+2)^0,w,c
  2497  001372  6E15               	movwf	(??_Vibration_ON+3)^0,c
  2498  001374  0E02               	movlw	2
  2499  001376                     u1515:
  2500  001376  90D8               	bcf	status,0,c
  2501  001378  3612               	rlcf	??_Vibration_ON^0,f,c
  2502  00137A  3613               	rlcf	(??_Vibration_ON+1)^0,f,c
  2503  00137C  3614               	rlcf	(??_Vibration_ON+2)^0,f,c
  2504  00137E  3615               	rlcf	(??_Vibration_ON+3)^0,f,c
  2505  001380  2EE8               	decfsz	wreg,f,c
  2506  001382  EFBB  F009         	goto	u1515
  2507  001386  C012  F017         	movff	??_Vibration_ON,Vibration_ON@output
  2508  00138A  C013  F018         	movff	??_Vibration_ON+1,Vibration_ON@output+1
  2509  00138E  C014  F019         	movff	??_Vibration_ON+2,Vibration_ON@output+2
  2510  001392  C015  F01A         	movff	??_Vibration_ON+3,Vibration_ON@output+3
  2511  001396                     
  2512                           ;PWM.c: 35:     output= output * ((long) percentage);
  2513  001396  C010  F002         	movff	Vibration_ON@percentage,___lmul@multiplier
  2514  00139A  C011  F003         	movff	Vibration_ON@percentage+1,___lmul@multiplier+1
  2515  00139E  6A04               	clrf	(___lmul@multiplier+2)^0,c
  2516  0013A0  6A05               	clrf	(___lmul@multiplier+3)^0,c
  2517  0013A2  C017  F006         	movff	Vibration_ON@output,___lmul@multiplicand
  2518  0013A6  C018  F007         	movff	Vibration_ON@output+1,___lmul@multiplicand+1
  2519  0013AA  C019  F008         	movff	Vibration_ON@output+2,___lmul@multiplicand+2
  2520  0013AE  C01A  F009         	movff	Vibration_ON@output+3,___lmul@multiplicand+3
  2521  0013B2  EC40  F00B         	call	___lmul	;wreg free
  2522  0013B6  C002  F017         	movff	?___lmul,Vibration_ON@output
  2523  0013BA  C003  F018         	movff	?___lmul+1,Vibration_ON@output+1
  2524  0013BE  C004  F019         	movff	?___lmul+2,Vibration_ON@output+2
  2525  0013C2  C005  F01A         	movff	?___lmul+3,Vibration_ON@output+3
  2526  0013C6                     
  2527                           ;PWM.c: 36:     output = output / 100;
  2528  0013C6  C017  F002         	movff	Vibration_ON@output,___aldiv@dividend
  2529  0013CA  C018  F003         	movff	Vibration_ON@output+1,___aldiv@dividend+1
  2530  0013CE  C019  F004         	movff	Vibration_ON@output+2,___aldiv@dividend+2
  2531  0013D2  C01A  F005         	movff	Vibration_ON@output+3,___aldiv@dividend+3
  2532  0013D6  0E64               	movlw	100
  2533  0013D8  6E06               	movwf	___aldiv@divisor^0,c
  2534  0013DA  0E00               	movlw	0
  2535  0013DC  6E07               	movwf	(___aldiv@divisor+1)^0,c
  2536  0013DE  0E00               	movlw	0
  2537  0013E0  6E08               	movwf	(___aldiv@divisor+2)^0,c
  2538  0013E2  0E00               	movlw	0
  2539  0013E4  6E09               	movwf	(___aldiv@divisor+3)^0,c
  2540  0013E6  EC37  F00A         	call	___aldiv	;wreg free
  2541  0013EA  C002  F017         	movff	?___aldiv,Vibration_ON@output
  2542  0013EE  C003  F018         	movff	?___aldiv+1,Vibration_ON@output+1
  2543  0013F2  C004  F019         	movff	?___aldiv+2,Vibration_ON@output+2
  2544  0013F6  C005  F01A         	movff	?___aldiv+3,Vibration_ON@output+3
  2545                           
  2546                           ;PWM.c: 38:     CCPR1L = output >> 2;
  2547  0013FA  0E02               	movlw	2
  2548  0013FC  6E12               	movwf	??_Vibration_ON^0,c
  2549  0013FE  C017  F013         	movff	Vibration_ON@output,??_Vibration_ON+1
  2550  001402  C018  F014         	movff	Vibration_ON@output+1,??_Vibration_ON+2
  2551  001406  C019  F015         	movff	Vibration_ON@output+2,??_Vibration_ON+3
  2552  00140A  C01A  F016         	movff	Vibration_ON@output+3,??_Vibration_ON+4
  2553  00140E                     u1525:
  2554  00140E  6612               	tstfsz	??_Vibration_ON^0,c
  2555  001410  EF0C  F00A         	goto	u1526
  2556  001414  EF14  F00A         	goto	u1527
  2557  001418                     u1526:
  2558  001418  3416               	rlcf	(??_Vibration_ON+4)^0,w,c
  2559  00141A  3216               	rrcf	(??_Vibration_ON+4)^0,f,c
  2560  00141C  3215               	rrcf	(??_Vibration_ON+3)^0,f,c
  2561  00141E  3214               	rrcf	(??_Vibration_ON+2)^0,f,c
  2562  001420  3213               	rrcf	(??_Vibration_ON+1)^0,f,c
  2563  001422  2E12               	decfsz	??_Vibration_ON^0,f,c
  2564  001424  EF07  F00A         	goto	u1525
  2565  001428                     u1527:
  2566  001428  5013               	movf	(??_Vibration_ON+1)^0,w,c
  2567  00142A  6EBE               	movwf	190,c	;volatile
  2568                           
  2569                           ;PWM.c: 39:     DC1B1 = (output & 2) >> 1;
  2570  00142C  C017  F012         	movff	Vibration_ON@output,??_Vibration_ON
  2571  001430  C018  F013         	movff	Vibration_ON@output+1,??_Vibration_ON+1
  2572  001434  C019  F014         	movff	Vibration_ON@output+2,??_Vibration_ON+2
  2573  001438  C01A  F015         	movff	Vibration_ON@output+3,??_Vibration_ON+3
  2574  00143C  3415               	rlcf	(??_Vibration_ON+3)^0,w,c
  2575  00143E  3215               	rrcf	(??_Vibration_ON+3)^0,f,c
  2576  001440  3214               	rrcf	(??_Vibration_ON+2)^0,f,c
  2577  001442  3213               	rrcf	(??_Vibration_ON+1)^0,f,c
  2578  001444  3212               	rrcf	??_Vibration_ON^0,f,c
  2579  001446  3012               	rrcf	??_Vibration_ON^0,w,c
  2580  001448  B0D8               	btfsc	status,0,c
  2581  00144A  EF29  F00A         	goto	u1531
  2582  00144E  EF2C  F00A         	goto	u1530
  2583  001452                     u1531:
  2584  001452  8ABD               	bsf	4029,5,c	;volatile
  2585  001454  EF2D  F00A         	goto	u1545
  2586  001458                     u1530:
  2587  001458  9ABD               	bcf	4029,5,c	;volatile
  2588  00145A                     u1545:
  2589  00145A                     
  2590                           ;PWM.c: 40:     DC1B0 = (output & 1);
  2591  00145A  B017               	btfsc	Vibration_ON@output^0,0,c
  2592  00145C  EF32  F00A         	goto	u1551
  2593  001460  EF35  F00A         	goto	u1550
  2594  001464                     u1551:
  2595  001464  88BD               	bsf	4029,4,c	;volatile
  2596  001466  EF36  F00A         	goto	u1565
  2597  00146A                     u1550:
  2598  00146A  98BD               	bcf	4029,4,c	;volatile
  2599  00146C                     u1565:
  2600  00146C                     l133:
  2601  00146C  0012               	return		;funcret
  2602  00146E                     __end_of_Vibration_ON:
  2603                           	callstack 0
  2604                           
  2605 ;; *************** function ___lmul *****************
  2606 ;; Defined at:
  2607 ;;		line 15 in file "C:\Program Files\Microchip\xc8\v2.30\pic\sources\c99\common\Umul32.c"
  2608 ;; Parameters:    Size  Location     Type
  2609 ;;  multiplier      4    1[COMRAM] unsigned long 
  2610 ;;  multiplicand    4    5[COMRAM] unsigned long 
  2611 ;; Auto vars:     Size  Location     Type
  2612 ;;  product         4    9[COMRAM] unsigned long 
  2613 ;; Return value:  Size  Location     Type
  2614 ;;                  4    1[COMRAM] unsigned long 
  2615 ;; Registers used:
  2616 ;;		wreg, status,2, status,0
  2617 ;; Tracked objects:
  2618 ;;		On entry : 0/0
  2619 ;;		On exit  : 0/0
  2620 ;;		Unchanged: 0/0
  2621 ;; Data sizes:     COMRAM   BANK0   BANK1   BANK2   BANK3   BANK4   BANK5
  2622 ;;      Params:         8       0       0       0       0       0       0
  2623 ;;      Locals:         4       0       0       0       0       0       0
  2624 ;;      Temps:          0       0       0       0       0       0       0
  2625 ;;      Totals:        12       0       0       0       0       0       0
  2626 ;;Total ram usage:       12 bytes
  2627 ;; Hardware stack levels used:    1
  2628 ;; Hardware stack levels required when called:    2
  2629 ;; This function calls:
  2630 ;;		Nothing
  2631 ;; This function is called by:
  2632 ;;		_Vibration_ON
  2633 ;; This function uses a non-reentrant model
  2634 ;;
  2635                           
  2636                           	psect	text8
  2637  001680                     __ptext8:
  2638                           	callstack 0
  2639  001680                     ___lmul:
  2640                           	callstack 27
  2641  001680  0E00               	movlw	0
  2642  001682  6E0A               	movwf	___lmul@product^0,c
  2643  001684  0E00               	movlw	0
  2644  001686  6E0B               	movwf	(___lmul@product+1)^0,c
  2645  001688  0E00               	movlw	0
  2646  00168A  6E0C               	movwf	(___lmul@product+2)^0,c
  2647  00168C  0E00               	movlw	0
  2648  00168E  6E0D               	movwf	(___lmul@product+3)^0,c
  2649  001690                     l1507:
  2650  001690  A002               	btfss	___lmul@multiplier^0,0,c
  2651  001692  EF4D  F00B         	goto	u1031
  2652  001696  EF4F  F00B         	goto	u1030
  2653  00169A                     u1031:
  2654  00169A  EF57  F00B         	goto	l1511
  2655  00169E                     u1030:
  2656  00169E  5006               	movf	___lmul@multiplicand^0,w,c
  2657  0016A0  260A               	addwf	___lmul@product^0,f,c
  2658  0016A2  5007               	movf	(___lmul@multiplicand+1)^0,w,c
  2659  0016A4  220B               	addwfc	(___lmul@product+1)^0,f,c
  2660  0016A6  5008               	movf	(___lmul@multiplicand+2)^0,w,c
  2661  0016A8  220C               	addwfc	(___lmul@product+2)^0,f,c
  2662  0016AA  5009               	movf	(___lmul@multiplicand+3)^0,w,c
  2663  0016AC  220D               	addwfc	(___lmul@product+3)^0,f,c
  2664  0016AE                     l1511:
  2665  0016AE  90D8               	bcf	status,0,c
  2666  0016B0  3606               	rlcf	___lmul@multiplicand^0,f,c
  2667  0016B2  3607               	rlcf	(___lmul@multiplicand+1)^0,f,c
  2668  0016B4  3608               	rlcf	(___lmul@multiplicand+2)^0,f,c
  2669  0016B6  3609               	rlcf	(___lmul@multiplicand+3)^0,f,c
  2670  0016B8  90D8               	bcf	status,0,c
  2671  0016BA  3205               	rrcf	(___lmul@multiplier+3)^0,f,c
  2672  0016BC  3204               	rrcf	(___lmul@multiplier+2)^0,f,c
  2673  0016BE  3203               	rrcf	(___lmul@multiplier+1)^0,f,c
  2674  0016C0  3202               	rrcf	___lmul@multiplier^0,f,c
  2675  0016C2  5002               	movf	___lmul@multiplier^0,w,c
  2676  0016C4  1003               	iorwf	(___lmul@multiplier+1)^0,w,c
  2677  0016C6  1004               	iorwf	(___lmul@multiplier+2)^0,w,c
  2678  0016C8  1005               	iorwf	(___lmul@multiplier+3)^0,w,c
  2679  0016CA  A4D8               	btfss	status,2,c
  2680  0016CC  EF6A  F00B         	goto	u1041
  2681  0016D0  EF6C  F00B         	goto	u1040
  2682  0016D4                     u1041:
  2683  0016D4  EF48  F00B         	goto	l1507
  2684  0016D8                     u1040:
  2685  0016D8  C00A  F002         	movff	___lmul@product,?___lmul
  2686  0016DC  C00B  F003         	movff	___lmul@product+1,?___lmul+1
  2687  0016E0  C00C  F004         	movff	___lmul@product+2,?___lmul+2
  2688  0016E4  C00D  F005         	movff	___lmul@product+3,?___lmul+3
  2689  0016E8  0012               	return		;funcret
  2690  0016EA                     __end_of___lmul:
  2691                           	callstack 0
  2692                           
  2693 ;; *************** function ___aldiv *****************
  2694 ;; Defined at:
  2695 ;;		line 7 in file "C:\Program Files\Microchip\xc8\v2.30\pic\sources\c99\common\aldiv.c"
  2696 ;; Parameters:    Size  Location     Type
  2697 ;;  dividend        4    1[COMRAM] long 
  2698 ;;  divisor         4    5[COMRAM] long 
  2699 ;; Auto vars:     Size  Location     Type
  2700 ;;  quotient        4   11[COMRAM] long 
  2701 ;;  sign            1   10[COMRAM] unsigned char 
  2702 ;;  counter         1    9[COMRAM] unsigned char 
  2703 ;; Return value:  Size  Location     Type
  2704 ;;                  4    1[COMRAM] long 
  2705 ;; Registers used:
  2706 ;;		wreg, status,2, status,0
  2707 ;; Tracked objects:
  2708 ;;		On entry : 0/0
  2709 ;;		On exit  : 0/0
  2710 ;;		Unchanged: 0/0
  2711 ;; Data sizes:     COMRAM   BANK0   BANK1   BANK2   BANK3   BANK4   BANK5
  2712 ;;      Params:         8       0       0       0       0       0       0
  2713 ;;      Locals:         6       0       0       0       0       0       0
  2714 ;;      Temps:          0       0       0       0       0       0       0
  2715 ;;      Totals:        14       0       0       0       0       0       0
  2716 ;;Total ram usage:       14 bytes
  2717 ;; Hardware stack levels used:    1
  2718 ;; Hardware stack levels required when called:    2
  2719 ;; This function calls:
  2720 ;;		Nothing
  2721 ;; This function is called by:
  2722 ;;		_Vibration_ON
  2723 ;; This function uses a non-reentrant model
  2724 ;;
  2725                           
  2726                           	psect	text9
  2727  00146E                     __ptext9:
  2728                           	callstack 0
  2729  00146E                     ___aldiv:
  2730                           	callstack 27
  2731  00146E  0E00               	movlw	0
  2732  001470  6E0B               	movwf	___aldiv@sign^0,c
  2733  001472  BE09               	btfsc	(___aldiv@divisor+3)^0,7,c
  2734  001474  EF40  F00A         	goto	u1050
  2735  001478  EF3E  F00A         	goto	u1051
  2736  00147C                     u1051:
  2737  00147C  EF4A  F00A         	goto	l1523
  2738  001480                     u1050:
  2739  001480  1E09               	comf	(___aldiv@divisor+3)^0,f,c
  2740  001482  1E08               	comf	(___aldiv@divisor+2)^0,f,c
  2741  001484  1E07               	comf	(___aldiv@divisor+1)^0,f,c
  2742  001486  6C06               	negf	___aldiv@divisor^0,c
  2743  001488  0E00               	movlw	0
  2744  00148A  2207               	addwfc	(___aldiv@divisor+1)^0,f,c
  2745  00148C  2208               	addwfc	(___aldiv@divisor+2)^0,f,c
  2746  00148E  2209               	addwfc	(___aldiv@divisor+3)^0,f,c
  2747  001490  0E01               	movlw	1
  2748  001492  6E0B               	movwf	___aldiv@sign^0,c
  2749  001494                     l1523:
  2750  001494  BE05               	btfsc	(___aldiv@dividend+3)^0,7,c
  2751  001496  EF51  F00A         	goto	u1060
  2752  00149A  EF4F  F00A         	goto	u1061
  2753  00149E                     u1061:
  2754  00149E  EF5B  F00A         	goto	l1529
  2755  0014A2                     u1060:
  2756  0014A2  1E05               	comf	(___aldiv@dividend+3)^0,f,c
  2757  0014A4  1E04               	comf	(___aldiv@dividend+2)^0,f,c
  2758  0014A6  1E03               	comf	(___aldiv@dividend+1)^0,f,c
  2759  0014A8  6C02               	negf	___aldiv@dividend^0,c
  2760  0014AA  0E00               	movlw	0
  2761  0014AC  2203               	addwfc	(___aldiv@dividend+1)^0,f,c
  2762  0014AE  2204               	addwfc	(___aldiv@dividend+2)^0,f,c
  2763  0014B0  2205               	addwfc	(___aldiv@dividend+3)^0,f,c
  2764  0014B2  0E01               	movlw	1
  2765  0014B4  1A0B               	xorwf	___aldiv@sign^0,f,c
  2766  0014B6                     l1529:
  2767  0014B6  0E00               	movlw	0
  2768  0014B8  6E0C               	movwf	___aldiv@quotient^0,c
  2769  0014BA  0E00               	movlw	0
  2770  0014BC  6E0D               	movwf	(___aldiv@quotient+1)^0,c
  2771  0014BE  0E00               	movlw	0
  2772  0014C0  6E0E               	movwf	(___aldiv@quotient+2)^0,c
  2773  0014C2  0E00               	movlw	0
  2774  0014C4  6E0F               	movwf	(___aldiv@quotient+3)^0,c
  2775  0014C6  5006               	movf	___aldiv@divisor^0,w,c
  2776  0014C8  1007               	iorwf	(___aldiv@divisor+1)^0,w,c
  2777  0014CA  1008               	iorwf	(___aldiv@divisor+2)^0,w,c
  2778  0014CC  1009               	iorwf	(___aldiv@divisor+3)^0,w,c
  2779  0014CE  B4D8               	btfsc	status,2,c
  2780  0014D0  EF6C  F00A         	goto	u1071
  2781  0014D4  EF6E  F00A         	goto	u1070
  2782  0014D8                     u1071:
  2783  0014D8  EFA4  F00A         	goto	l1551
  2784  0014DC                     u1070:
  2785  0014DC  0E01               	movlw	1
  2786  0014DE  6E0A               	movwf	___aldiv@counter^0,c
  2787  0014E0  EF78  F00A         	goto	l1537
  2788  0014E4                     l1535:
  2789  0014E4  90D8               	bcf	status,0,c
  2790  0014E6  3606               	rlcf	___aldiv@divisor^0,f,c
  2791  0014E8  3607               	rlcf	(___aldiv@divisor+1)^0,f,c
  2792  0014EA  3608               	rlcf	(___aldiv@divisor+2)^0,f,c
  2793  0014EC  3609               	rlcf	(___aldiv@divisor+3)^0,f,c
  2794  0014EE  2A0A               	incf	___aldiv@counter^0,f,c
  2795  0014F0                     l1537:
  2796  0014F0  AE09               	btfss	(___aldiv@divisor+3)^0,7,c
  2797  0014F2  EF7D  F00A         	goto	u1081
  2798  0014F6  EF7F  F00A         	goto	u1080
  2799  0014FA                     u1081:
  2800  0014FA  EF72  F00A         	goto	l1535
  2801  0014FE                     u1080:
  2802  0014FE                     l1539:
  2803  0014FE  90D8               	bcf	status,0,c
  2804  001500  360C               	rlcf	___aldiv@quotient^0,f,c
  2805  001502  360D               	rlcf	(___aldiv@quotient+1)^0,f,c
  2806  001504  360E               	rlcf	(___aldiv@quotient+2)^0,f,c
  2807  001506  360F               	rlcf	(___aldiv@quotient+3)^0,f,c
  2808  001508  5006               	movf	___aldiv@divisor^0,w,c
  2809  00150A  5C02               	subwf	___aldiv@dividend^0,w,c
  2810  00150C  5007               	movf	(___aldiv@divisor+1)^0,w,c
  2811  00150E  5803               	subwfb	(___aldiv@dividend+1)^0,w,c
  2812  001510  5008               	movf	(___aldiv@divisor+2)^0,w,c
  2813  001512  5804               	subwfb	(___aldiv@dividend+2)^0,w,c
  2814  001514  5009               	movf	(___aldiv@divisor+3)^0,w,c
  2815  001516  5805               	subwfb	(___aldiv@dividend+3)^0,w,c
  2816  001518  A0D8               	btfss	status,0,c
  2817  00151A  EF91  F00A         	goto	u1091
  2818  00151E  EF93  F00A         	goto	u1090
  2819  001522                     u1091:
  2820  001522  EF9C  F00A         	goto	l1547
  2821  001526                     u1090:
  2822  001526  5006               	movf	___aldiv@divisor^0,w,c
  2823  001528  5E02               	subwf	___aldiv@dividend^0,f,c
  2824  00152A  5007               	movf	(___aldiv@divisor+1)^0,w,c
  2825  00152C  5A03               	subwfb	(___aldiv@dividend+1)^0,f,c
  2826  00152E  5008               	movf	(___aldiv@divisor+2)^0,w,c
  2827  001530  5A04               	subwfb	(___aldiv@dividend+2)^0,f,c
  2828  001532  5009               	movf	(___aldiv@divisor+3)^0,w,c
  2829  001534  5A05               	subwfb	(___aldiv@dividend+3)^0,f,c
  2830  001536  800C               	bsf	___aldiv@quotient^0,0,c
  2831  001538                     l1547:
  2832  001538  90D8               	bcf	status,0,c
  2833  00153A  3209               	rrcf	(___aldiv@divisor+3)^0,f,c
  2834  00153C  3208               	rrcf	(___aldiv@divisor+2)^0,f,c
  2835  00153E  3207               	rrcf	(___aldiv@divisor+1)^0,f,c
  2836  001540  3206               	rrcf	___aldiv@divisor^0,f,c
  2837  001542  2E0A               	decfsz	___aldiv@counter^0,f,c
  2838  001544  EF7F  F00A         	goto	l1539
  2839  001548                     l1551:
  2840  001548  500B               	movf	___aldiv@sign^0,w,c
  2841  00154A  B4D8               	btfsc	status,2,c
  2842  00154C  EFAA  F00A         	goto	u1101
  2843  001550  EFAC  F00A         	goto	u1100
  2844  001554                     u1101:
  2845  001554  EFB4  F00A         	goto	l1555
  2846  001558                     u1100:
  2847  001558  1E0F               	comf	(___aldiv@quotient+3)^0,f,c
  2848  00155A  1E0E               	comf	(___aldiv@quotient+2)^0,f,c
  2849  00155C  1E0D               	comf	(___aldiv@quotient+1)^0,f,c
  2850  00155E  6C0C               	negf	___aldiv@quotient^0,c
  2851  001560  0E00               	movlw	0
  2852  001562  220D               	addwfc	(___aldiv@quotient+1)^0,f,c
  2853  001564  220E               	addwfc	(___aldiv@quotient+2)^0,f,c
  2854  001566  220F               	addwfc	(___aldiv@quotient+3)^0,f,c
  2855  001568                     l1555:
  2856  001568  C00C  F002         	movff	___aldiv@quotient,?___aldiv
  2857  00156C  C00D  F003         	movff	___aldiv@quotient+1,?___aldiv+1
  2858  001570  C00E  F004         	movff	___aldiv@quotient+2,?___aldiv+2
  2859  001574  C00F  F005         	movff	___aldiv@quotient+3,?___aldiv+3
  2860  001578  0012               	return		;funcret
  2861  00157A                     __end_of___aldiv:
  2862                           	callstack 0
  2863                           
  2864 ;; *************** function _Init_PWM *****************
  2865 ;; Defined at:
  2866 ;;		line 4 in file "PWM.c"
  2867 ;; Parameters:    Size  Location     Type
  2868 ;;		None
  2869 ;; Auto vars:     Size  Location     Type
  2870 ;;		None
  2871 ;; Return value:  Size  Location     Type
  2872 ;;                  1    wreg      void 
  2873 ;; Registers used:
  2874 ;;		wreg, status,2
  2875 ;; Tracked objects:
  2876 ;;		On entry : 0/0
  2877 ;;		On exit  : 0/0
  2878 ;;		Unchanged: 0/0
  2879 ;; Data sizes:     COMRAM   BANK0   BANK1   BANK2   BANK3   BANK4   BANK5
  2880 ;;      Params:         0       0       0       0       0       0       0
  2881 ;;      Locals:         0       0       0       0       0       0       0
  2882 ;;      Temps:          0       0       0       0       0       0       0
  2883 ;;      Totals:         0       0       0       0       0       0       0
  2884 ;;Total ram usage:        0 bytes
  2885 ;; Hardware stack levels used:    1
  2886 ;; Hardware stack levels required when called:    2
  2887 ;; This function calls:
  2888 ;;		Nothing
  2889 ;; This function is called by:
  2890 ;;		_main
  2891 ;; This function uses a non-reentrant model
  2892 ;;
  2893                           
  2894                           	psect	text10
  2895  001816                     __ptext10:
  2896                           	callstack 0
  2897  001816                     _Init_PWM:
  2898                           	callstack 28
  2899  001816                     
  2900                           ;PWM.c: 6:     T2CONbits.T2CKPS1 = 1;
  2901  001816  82CA               	bsf	202,1,c	;volatile
  2902                           
  2903                           ;PWM.c: 7:     T2CONbits.TMR2ON = 1;
  2904  001818  84CA               	bsf	202,2,c	;volatile
  2905  00181A                     
  2906                           ;PWM.c: 8:     PR2 = 194;
  2907  00181A  0EC2               	movlw	194
  2908  00181C  6ECB               	movwf	203,c	;volatile
  2909                           
  2910                           ;PWM.c: 10:     CCP1CONbits.CCP1M = 0x0c;
  2911  00181E  50BD               	movf	189,w,c	;volatile
  2912  001820  0BF0               	andlw	-16
  2913  001822  090C               	iorlw	12
  2914  001824  6EBD               	movwf	189,c	;volatile
  2915  001826                     
  2916                           ;PWM.c: 12:     CCP1CONbits.P1M1 = 0;
  2917  001826  9EBD               	bcf	189,7,c	;volatile
  2918  001828                     
  2919                           ;PWM.c: 13:     CCP1CONbits.P1M0 = 1;
  2920  001828  8CBD               	bsf	189,6,c	;volatile
  2921                           
  2922                           ;PWM.c: 15:     CCPR1L = 0x61;
  2923  00182A  0E61               	movlw	97
  2924  00182C  6EBE               	movwf	190,c	;volatile
  2925  00182E                     
  2926                           ;PWM.c: 16:     CCP1CONbits.DC1B1 = 1;
  2927  00182E  8ABD               	bsf	189,5,c	;volatile
  2928  001830                     
  2929                           ;PWM.c: 17:     CCP1CONbits.DC1B0 = 0;
  2930  001830  98BD               	bcf	189,4,c	;volatile
  2931  001832  0012               	return		;funcret
  2932  001834                     __end_of_Init_PWM:
  2933                           	callstack 0
  2934                           
  2935 ;; *************** function _Init_EUSART *****************
  2936 ;; Defined at:
  2937 ;;		line 5 in file "EUSART.c"
  2938 ;; Parameters:    Size  Location     Type
  2939 ;;		None
  2940 ;; Auto vars:     Size  Location     Type
  2941 ;;		None
  2942 ;; Return value:  Size  Location     Type
  2943 ;;                  1    wreg      void 
  2944 ;; Registers used:
  2945 ;;		wreg, status,2
  2946 ;; Tracked objects:
  2947 ;;		On entry : 0/0
  2948 ;;		On exit  : 0/0
  2949 ;;		Unchanged: 0/0
  2950 ;; Data sizes:     COMRAM   BANK0   BANK1   BANK2   BANK3   BANK4   BANK5
  2951 ;;      Params:         0       0       0       0       0       0       0
  2952 ;;      Locals:         0       0       0       0       0       0       0
  2953 ;;      Temps:          0       0       0       0       0       0       0
  2954 ;;      Totals:         0       0       0       0       0       0       0
  2955 ;;Total ram usage:        0 bytes
  2956 ;; Hardware stack levels used:    1
  2957 ;; Hardware stack levels required when called:    2
  2958 ;; This function calls:
  2959 ;;		Nothing
  2960 ;; This function is called by:
  2961 ;;		_main
  2962 ;; This function uses a non-reentrant model
  2963 ;;
  2964                           
  2965                           	psect	text11
  2966  001766                     __ptext11:
  2967                           	callstack 0
  2968  001766                     _Init_EUSART:
  2969                           	callstack 28
  2970  001766                     
  2971                           ;EUSART.c: 7:   OSCCONbits.IRCF0=1;
  2972  001766  88D3               	bsf	211,4,c	;volatile
  2973                           
  2974                           ;EUSART.c: 8:   OSCCONbits.IRCF1=1;
  2975  001768  8AD3               	bsf	211,5,c	;volatile
  2976                           
  2977                           ;EUSART.c: 9:   OSCCONbits.IRCF2=1;
  2978  00176A  8CD3               	bsf	211,6,c	;volatile
  2979                           
  2980                           ;EUSART.c: 10:   TRISDbits.RD0=0;
  2981  00176C  9095               	bcf	149,0,c	;volatile
  2982                           
  2983                           ;EUSART.c: 11:   TRISDbits.RD1=0;
  2984  00176E  9295               	bcf	149,1,c	;volatile
  2985                           
  2986                           ;EUSART.c: 12:   TRISCbits.RC7=1;
  2987  001770  8E94               	bsf	148,7,c	;volatile
  2988                           
  2989                           ;EUSART.c: 13:   TRISCbits.RC6=1;
  2990  001772  8C94               	bsf	148,6,c	;volatile
  2991                           
  2992                           ;EUSART.c: 15:   TXSTAbits.TXEN=1;
  2993  001774  8AAC               	bsf	172,5,c	;volatile
  2994                           
  2995                           ;EUSART.c: 16:   TXSTAbits.SYNC=0;
  2996  001776  98AC               	bcf	172,4,c	;volatile
  2997                           
  2998                           ;EUSART.c: 17:   RCSTAbits.SPEN=1;
  2999  001778  8EAB               	bsf	171,7,c	;volatile
  3000                           
  3001                           ;EUSART.c: 18:   TXSTAbits.TX9=0;
  3002  00177A  9CAC               	bcf	172,6,c	;volatile
  3003                           
  3004                           ;EUSART.c: 20:   BAUDCONbits.BRG16=1;
  3005  00177C  86B8               	bsf	184,3,c	;volatile
  3006  00177E                     
  3007                           ;EUSART.c: 22:   SPBRG= 0x67;
  3008  00177E  0E67               	movlw	103
  3009  001780  6EAF               	movwf	175,c	;volatile
  3010  001782                     
  3011                           ;EUSART.c: 24:   RCSTAbits.CREN=1;
  3012  001782  88AB               	bsf	171,4,c	;volatile
  3013  001784                     
  3014                           ;EUSART.c: 25:   RCSTAbits.RX9=0;
  3015  001784  9CAB               	bcf	171,6,c	;volatile
  3016  001786                     
  3017                           ;EUSART.c: 28:   PEIE=1;
  3018  001786  8CF2               	bsf	4082,6,c	;volatile
  3019  001788                     
  3020                           ;EUSART.c: 30:   PIE1bits.RCIE=1;
  3021  001788  8A9D               	bsf	157,5,c	;volatile
  3022  00178A                     
  3023                           ;EUSART.c: 31:   PIE1bits.TXIE=1;
  3024  00178A  889D               	bsf	157,4,c	;volatile
  3025  00178C  0012               	return		;funcret
  3026  00178E                     __end_of_Init_EUSART:
  3027                           	callstack 0
  3028                           
  3029 ;; *************** function _Init_ADC *****************
  3030 ;; Defined at:
  3031 ;;		line 5 in file "ADC.c"
  3032 ;; Parameters:    Size  Location     Type
  3033 ;;		None
  3034 ;; Auto vars:     Size  Location     Type
  3035 ;;		None
  3036 ;; Return value:  Size  Location     Type
  3037 ;;                  1    wreg      void 
  3038 ;; Registers used:
  3039 ;;		None
  3040 ;; Tracked objects:
  3041 ;;		On entry : 0/0
  3042 ;;		On exit  : 0/0
  3043 ;;		Unchanged: 0/0
  3044 ;; Data sizes:     COMRAM   BANK0   BANK1   BANK2   BANK3   BANK4   BANK5
  3045 ;;      Params:         0       0       0       0       0       0       0
  3046 ;;      Locals:         0       0       0       0       0       0       0
  3047 ;;      Temps:          0       0       0       0       0       0       0
  3048 ;;      Totals:         0       0       0       0       0       0       0
  3049 ;;Total ram usage:        0 bytes
  3050 ;; Hardware stack levels used:    1
  3051 ;; Hardware stack levels required when called:    2
  3052 ;; This function calls:
  3053 ;;		Nothing
  3054 ;; This function is called by:
  3055 ;;		_main
  3056 ;; This function uses a non-reentrant model
  3057 ;;
  3058                           
  3059                           	psect	text12
  3060  0017D6                     __ptext12:
  3061                           	callstack 0
  3062  0017D6                     _Init_ADC:
  3063                           	callstack 28
  3064  0017D6                     
  3065                           ;ADC.c: 7:     TRISAbits.RA0 = 1;
  3066  0017D6  8092               	bsf	146,0,c	;volatile
  3067                           
  3068                           ;ADC.c: 9:     ANSELbits.ANS0 = 1;
  3069  0017D8  807E               	bsf	126,0,c	;volatile
  3070                           
  3071                           ;ADC.c: 10:     ADCON2bits.ADFM = 0;
  3072  0017DA  9EC0               	bcf	192,7,c	;volatile
  3073                           
  3074                           ;ADC.c: 12:     ADCON2bits.ACQT2 = 1;
  3075  0017DC  8AC0               	bsf	192,5,c	;volatile
  3076                           
  3077                           ;ADC.c: 13:     ADCON2bits.ACQT1 = 0;
  3078  0017DE  98C0               	bcf	192,4,c	;volatile
  3079                           
  3080                           ;ADC.c: 14:     ADCON2bits.ACQT0 = 1;
  3081  0017E0  86C0               	bsf	192,3,c	;volatile
  3082                           
  3083                           ;ADC.c: 16:     ADCON2bits.ADCS2 = 0;
  3084  0017E2  94C0               	bcf	192,2,c	;volatile
  3085                           
  3086                           ;ADC.c: 17:     ADCON2bits.ADCS1 = 1;
  3087  0017E4  82C0               	bsf	192,1,c	;volatile
  3088                           
  3089                           ;ADC.c: 18:     ADCON2bits.ADCS0 = 1;
  3090  0017E6  80C0               	bsf	192,0,c	;volatile
  3091                           
  3092                           ;ADC.c: 20:     ADCON1bits.VCFG1 = 0;
  3093  0017E8  9AC1               	bcf	193,5,c	;volatile
  3094                           
  3095                           ;ADC.c: 21:     ADCON1bits.VCFG0 = 0;
  3096  0017EA  98C1               	bcf	193,4,c	;volatile
  3097                           
  3098                           ;ADC.c: 23:     ADCON0bits.CHS3=0;
  3099  0017EC  9AC2               	bcf	194,5,c	;volatile
  3100                           
  3101                           ;ADC.c: 24:     ADCON0bits.CHS2=0;
  3102  0017EE  98C2               	bcf	194,4,c	;volatile
  3103                           
  3104                           ;ADC.c: 25:     ADCON0bits.CHS1=0;
  3105  0017F0  96C2               	bcf	194,3,c	;volatile
  3106                           
  3107                           ;ADC.c: 26:     ADCON0bits.CHS0=0;
  3108  0017F2  94C2               	bcf	194,2,c	;volatile
  3109                           
  3110                           ;ADC.c: 28:     ADCON0bits.ADON = 1;
  3111  0017F4  80C2               	bsf	194,0,c	;volatile
  3112  0017F6  0012               	return		;funcret
  3113  0017F8                     __end_of_Init_ADC:
  3114                           	callstack 0
  3115                           
  3116 ;; *************** function _InitApp *****************
  3117 ;; Defined at:
  3118 ;;		line 22 in file "user.c"
  3119 ;; Parameters:    Size  Location     Type
  3120 ;;		None
  3121 ;; Auto vars:     Size  Location     Type
  3122 ;;		None
  3123 ;; Return value:  Size  Location     Type
  3124 ;;                  1    wreg      void 
  3125 ;; Registers used:
  3126 ;;		None
  3127 ;; Tracked objects:
  3128 ;;		On entry : 0/0
  3129 ;;		On exit  : 0/0
  3130 ;;		Unchanged: 0/0
  3131 ;; Data sizes:     COMRAM   BANK0   BANK1   BANK2   BANK3   BANK4   BANK5
  3132 ;;      Params:         0       0       0       0       0       0       0
  3133 ;;      Locals:         0       0       0       0       0       0       0
  3134 ;;      Temps:          0       0       0       0       0       0       0
  3135 ;;      Totals:         0       0       0       0       0       0       0
  3136 ;;Total ram usage:        0 bytes
  3137 ;; Hardware stack levels used:    1
  3138 ;; Hardware stack levels required when called:    2
  3139 ;; This function calls:
  3140 ;;		Nothing
  3141 ;; This function is called by:
  3142 ;;		_main
  3143 ;; This function uses a non-reentrant model
  3144 ;;
  3145                           
  3146                           	psect	text13
  3147  001850                     __ptext13:
  3148                           	callstack 0
  3149  001850                     _InitApp:
  3150                           	callstack 28
  3151  001850                     
  3152                           ;user.c: 28:     TRISDbits.RD0 = 0;
  3153  001850  9095               	bcf	149,0,c	;volatile
  3154                           
  3155                           ;user.c: 29:     TRISDbits.RD1 = 0;
  3156  001852  9295               	bcf	149,1,c	;volatile
  3157                           
  3158                           ;user.c: 30:     TRISDbits.RD7 = 0;
  3159  001854  9E95               	bcf	149,7,c	;volatile
  3160                           
  3161                           ;user.c: 31:     TRISAbits.RA0 = 1;
  3162  001856  8092               	bsf	146,0,c	;volatile
  3163                           
  3164                           ;user.c: 32:     TRISBbits.RB0 = 1;
  3165  001858  8093               	bsf	147,0,c	;volatile
  3166  00185A  0012               	return		;funcret
  3167  00185C                     __end_of_InitApp:
  3168                           	callstack 0
  3169                           
  3170 ;; *************** function _ConfigureOscillator *****************
  3171 ;; Defined at:
  3172 ;;		line 24 in file "system.c"
  3173 ;; Parameters:    Size  Location     Type
  3174 ;;		None
  3175 ;; Auto vars:     Size  Location     Type
  3176 ;;		None
  3177 ;; Return value:  Size  Location     Type
  3178 ;;                  1    wreg      void 
  3179 ;; Registers used:
  3180 ;;		None
  3181 ;; Tracked objects:
  3182 ;;		On entry : 0/0
  3183 ;;		On exit  : 0/0
  3184 ;;		Unchanged: 0/0
  3185 ;; Data sizes:     COMRAM   BANK0   BANK1   BANK2   BANK3   BANK4   BANK5
  3186 ;;      Params:         0       0       0       0       0       0       0
  3187 ;;      Locals:         0       0       0       0       0       0       0
  3188 ;;      Temps:          0       0       0       0       0       0       0
  3189 ;;      Totals:         0       0       0       0       0       0       0
  3190 ;;Total ram usage:        0 bytes
  3191 ;; Hardware stack levels used:    1
  3192 ;; Hardware stack levels required when called:    2
  3193 ;; This function calls:
  3194 ;;		Nothing
  3195 ;; This function is called by:
  3196 ;;		_main
  3197 ;; This function uses a non-reentrant model
  3198 ;;
  3199                           
  3200                           	psect	text14
  3201  001860                     __ptext14:
  3202                           	callstack 0
  3203  001860                     _ConfigureOscillator:
  3204                           	callstack 28
  3205  001860  0012               	return		;funcret
  3206  001862                     __end_of_ConfigureOscillator:
  3207                           	callstack 0
  3208                           
  3209 ;; *************** function _BT_load_string *****************
  3210 ;; Defined at:
  3211 ;;		line 71 in file "EUSART.c"
  3212 ;; Parameters:    Size  Location     Type
  3213 ;;  string          2    2[COMRAM] PTR unsigned char 
  3214 ;;		 -> STR_2(2), STR_1(2), 
  3215 ;; Auto vars:     Size  Location     Type
  3216 ;;		None
  3217 ;; Return value:  Size  Location     Type
  3218 ;;                  1    wreg      void 
  3219 ;; Registers used:
  3220 ;;		wreg, status,2, status,0, tblptrl, tblptrh, tblptru, cstack
  3221 ;; Tracked objects:
  3222 ;;		On entry : 0/0
  3223 ;;		On exit  : 0/0
  3224 ;;		Unchanged: 0/0
  3225 ;; Data sizes:     COMRAM   BANK0   BANK1   BANK2   BANK3   BANK4   BANK5
  3226 ;;      Params:         2       0       0       0       0       0       0
  3227 ;;      Locals:         0       0       0       0       0       0       0
  3228 ;;      Temps:          0       0       0       0       0       0       0
  3229 ;;      Totals:         2       0       0       0       0       0       0
  3230 ;;Total ram usage:        2 bytes
  3231 ;; Hardware stack levels used:    1
  3232 ;; Hardware stack levels required when called:    3
  3233 ;; This function calls:
  3234 ;;		_BT_load_char
  3235 ;; This function is called by:
  3236 ;;		_main
  3237 ;; This function uses a non-reentrant model
  3238 ;;
  3239                           
  3240                           	psect	text15
  3241  001730                     __ptext15:
  3242                           	callstack 0
  3243  001730                     _BT_load_string:
  3244                           	callstack 27
  3245  001730                     
  3246                           ;EUSART.c: 71: void BT_load_string(char* string);EUSART.c: 72: {;EUSART.c: 73:     while
      +                          (*string)
  3247  001730  EFA4  F00B         	goto	l1787
  3248  001734                     l1783:
  3249                           
  3250                           ;EUSART.c: 74:     BT_load_char(*string++);
  3251  001734  C003  FFF6         	movff	BT_load_string@string,tblptrl
  3252  001738  C004  FFF7         	movff	BT_load_string@string+1,tblptrh
  3253  00173C                     	if	0	;tblptru may be non-zero
  3254  00173C                     	endif
  3255  00173C                     	if	0	;tblptru may be non-zero
  3256  00173C                     	endif
  3257  00173C  0008               	tblrd		*
  3258  00173E  50F5               	movf	tablat,w,c
  3259  001740  ECC7  F00B         	call	_BT_load_char
  3260  001744  4A03               	infsnz	BT_load_string@string^0,f,c
  3261  001746  2A04               	incf	(BT_load_string@string+1)^0,f,c
  3262  001748                     l1787:
  3263                           
  3264                           ;EUSART.c: 73:     while(*string)
  3265  001748  C003  FFF6         	movff	BT_load_string@string,tblptrl
  3266  00174C  C004  FFF7         	movff	BT_load_string@string+1,tblptrh
  3267  001750                     	if	0	;tblptru may be non-zero
  3268  001750                     	endif
  3269  001750                     	if	0	;tblptru may be non-zero
  3270  001750                     	endif
  3271  001750  0008               	tblrd		*
  3272  001752  50F5               	movf	tablat,w,c
  3273  001754  0900               	iorlw	0
  3274  001756  A4D8               	btfss	status,2,c
  3275  001758  EFB0  F00B         	goto	u1571
  3276  00175C  EFB2  F00B         	goto	u1570
  3277  001760                     u1571:
  3278  001760  EF9A  F00B         	goto	l1783
  3279  001764                     u1570:
  3280  001764  0012               	return		;funcret
  3281  001766                     __end_of_BT_load_string:
  3282                           	callstack 0
  3283                           
  3284 ;; *************** function _BT_load_char *****************
  3285 ;; Defined at:
  3286 ;;		line 37 in file "EUSART.c"
  3287 ;; Parameters:    Size  Location     Type
  3288 ;;  bt              1    wreg     unsigned char 
  3289 ;; Auto vars:     Size  Location     Type
  3290 ;;  bt              1    1[COMRAM] unsigned char 
  3291 ;; Return value:  Size  Location     Type
  3292 ;;                  1    wreg      void 
  3293 ;; Registers used:
  3294 ;;		wreg
  3295 ;; Tracked objects:
  3296 ;;		On entry : 0/0
  3297 ;;		On exit  : 0/0
  3298 ;;		Unchanged: 0/0
  3299 ;; Data sizes:     COMRAM   BANK0   BANK1   BANK2   BANK3   BANK4   BANK5
  3300 ;;      Params:         0       0       0       0       0       0       0
  3301 ;;      Locals:         1       0       0       0       0       0       0
  3302 ;;      Temps:          0       0       0       0       0       0       0
  3303 ;;      Totals:         1       0       0       0       0       0       0
  3304 ;;Total ram usage:        1 bytes
  3305 ;; Hardware stack levels used:    1
  3306 ;; Hardware stack levels required when called:    2
  3307 ;; This function calls:
  3308 ;;		Nothing
  3309 ;; This function is called by:
  3310 ;;		_BT_load_string
  3311 ;; This function uses a non-reentrant model
  3312 ;;
  3313                           
  3314                           	psect	text16
  3315  00178E                     __ptext16:
  3316                           	callstack 0
  3317  00178E                     _BT_load_char:
  3318                           	callstack 27
  3319                           
  3320                           ;incstack = 0
  3321                           ;BT_load_char@bt stored from wreg
  3322  00178E  6E02               	movwf	BT_load_char@bt^0,c
  3323  001790                     
  3324                           ;EUSART.c: 37: void BT_load_char(char bt);EUSART.c: 38: {;EUSART.c: 39:    TXREG = bt;
  3325  001790  C002  FFAD         	movff	BT_load_char@bt,4013	;volatile
  3326  001794                     l173:
  3327  001794  A89E               	btfss	3998,4,c	;volatile
  3328  001796  EFCF  F00B         	goto	u11
  3329  00179A  EFD1  F00B         	goto	u10
  3330  00179E                     u11:
  3331  00179E  EFCA  F00B         	goto	l173
  3332  0017A2                     u10:
  3333  0017A2                     l176:
  3334  0017A2  A2AC               	btfss	4012,1,c	;volatile
  3335  0017A4  EFD6  F00B         	goto	u21
  3336  0017A8  EFD8  F00B         	goto	u20
  3337  0017AC                     u21:
  3338  0017AC  EFD1  F00B         	goto	l176
  3339  0017B0                     u20:
  3340  0017B0  0012               	return		;funcret
  3341  0017B2                     __end_of_BT_load_char:
  3342                           	callstack 0
  3343                           
  3344 ;; *************** function _ADCRead_Pos *****************
  3345 ;; Defined at:
  3346 ;;		line 38 in file "ADC.c"
  3347 ;; Parameters:    Size  Location     Type
  3348 ;;		None
  3349 ;; Auto vars:     Size  Location     Type
  3350 ;;  temp            2    5[COMRAM] unsigned int 
  3351 ;; Return value:  Size  Location     Type
  3352 ;;                  2    1[COMRAM] unsigned int 
  3353 ;; Registers used:
  3354 ;;		wreg, status,2, status,0
  3355 ;; Tracked objects:
  3356 ;;		On entry : 0/0
  3357 ;;		On exit  : 0/0
  3358 ;;		Unchanged: 0/0
  3359 ;; Data sizes:     COMRAM   BANK0   BANK1   BANK2   BANK3   BANK4   BANK5
  3360 ;;      Params:         2       0       0       0       0       0       0
  3361 ;;      Locals:         2       0       0       0       0       0       0
  3362 ;;      Temps:          2       0       0       0       0       0       0
  3363 ;;      Totals:         6       0       0       0       0       0       0
  3364 ;;Total ram usage:        6 bytes
  3365 ;; Hardware stack levels used:    1
  3366 ;; Hardware stack levels required when called:    2
  3367 ;; This function calls:
  3368 ;;		Nothing
  3369 ;; This function is called by:
  3370 ;;		_main
  3371 ;; This function uses a non-reentrant model
  3372 ;;
  3373                           
  3374                           	psect	text17
  3375  0017B2                     __ptext17:
  3376                           	callstack 0
  3377  0017B2                     _ADCRead_Pos:
  3378                           	callstack 28
  3379  0017B2                     
  3380                           ;ADC.c: 41:   GO = 1;
  3381  0017B2  82C2               	bsf	4034,1,c	;volatile
  3382                           
  3383                           ;ADC.c: 42:   unsigned int temp;;ADC.c: 44:   temp = ADRESL;
  3384  0017B4  CFC3 F006          	movff	4035,ADCRead_Pos@temp	;volatile
  3385  0017B8  6A07               	clrf	(ADCRead_Pos@temp+1)^0,c
  3386  0017BA                     
  3387                           ;ADC.c: 45:   temp = temp + (ADRESH << 8);
  3388  0017BA  50C4               	movf	196,w,c	;volatile
  3389  0017BC  6E05               	movwf	(??_ADCRead_Pos+1)^0,c
  3390  0017BE  6A04               	clrf	??_ADCRead_Pos^0,c
  3391  0017C0  5006               	movf	ADCRead_Pos@temp^0,w,c
  3392  0017C2  2404               	addwf	??_ADCRead_Pos^0,w,c
  3393  0017C4  6E06               	movwf	ADCRead_Pos@temp^0,c
  3394  0017C6  5007               	movf	(ADCRead_Pos@temp+1)^0,w,c
  3395  0017C8  2005               	addwfc	(??_ADCRead_Pos+1)^0,w,c
  3396  0017CA  6E07               	movwf	(ADCRead_Pos@temp+1)^0,c
  3397  0017CC                     
  3398                           ;ADC.c: 46:   return temp;
  3399  0017CC  C006  F002         	movff	ADCRead_Pos@temp,?_ADCRead_Pos
  3400  0017D0  C007  F003         	movff	ADCRead_Pos@temp+1,?_ADCRead_Pos+1
  3401  0017D4  0012               	return		;funcret
  3402  0017D6                     __end_of_ADCRead_Pos:
  3403                           	callstack 0
  3404                           
  3405 ;; *************** function _low_isr *****************
  3406 ;; Defined at:
  3407 ;;		line 93 in file "interrupts.c"
  3408 ;; Parameters:    Size  Location     Type
  3409 ;;		None
  3410 ;; Auto vars:     Size  Location     Type
  3411 ;;		None
  3412 ;; Return value:  Size  Location     Type
  3413 ;;                  1    wreg      void 
  3414 ;; Registers used:
  3415 ;;		None
  3416 ;; Tracked objects:
  3417 ;;		On entry : 0/0
  3418 ;;		On exit  : 0/0
  3419 ;;		Unchanged: 0/0
  3420 ;; Data sizes:     COMRAM   BANK0   BANK1   BANK2   BANK3   BANK4   BANK5
  3421 ;;      Params:         0       0       0       0       0       0       0
  3422 ;;      Locals:         0       0       0       0       0       0       0
  3423 ;;      Temps:          1       0       0       0       0       0       0
  3424 ;;      Totals:         1       0       0       0       0       0       0
  3425 ;;Total ram usage:        1 bytes
  3426 ;; Hardware stack levels used:    1
  3427 ;; Hardware stack levels required when called:    1
  3428 ;; This function calls:
  3429 ;;		Nothing
  3430 ;; This function is called by:
  3431 ;;		Interrupt level 1
  3432 ;; This function uses a non-reentrant model
  3433 ;;
  3434                           
  3435                           	psect	intcodelo
  3436  000018                     __pintcodelo:
  3437                           	callstack 0
  3438  000018                     _low_isr:
  3439                           	callstack 27
  3440                           
  3441                           ;incstack = 0
  3442  000018  805D               	bsf	int$flags,0,c	;set compiler interrupt flag (level 1)
  3443  00001A  CFE0 F001          	movff	bsr,??_low_isr
  3444  00001E  C001  FFE0         	movff	??_low_isr,bsr
  3445  000022  905D               	bcf	int$flags,0,c	;clear compiler interrupt flag (level 1)
  3446  000024  0010               	retfie	
  3447  000026                     __end_of_low_isr:
  3448                           	callstack 0
  3449                           
  3450 ;; *************** function _high_isr *****************
  3451 ;; Defined at:
  3452 ;;		line 34 in file "interrupts.c"
  3453 ;; Parameters:    Size  Location     Type
  3454 ;;		None
  3455 ;; Auto vars:     Size  Location     Type
  3456 ;;		None
  3457 ;; Return value:  Size  Location     Type
  3458 ;;                  1    wreg      void 
  3459 ;; Registers used:
  3460 ;;		None
  3461 ;; Tracked objects:
  3462 ;;		On entry : 0/0
  3463 ;;		On exit  : 0/0
  3464 ;;		Unchanged: 0/0
  3465 ;; Data sizes:     COMRAM   BANK0   BANK1   BANK2   BANK3   BANK4   BANK5
  3466 ;;      Params:         0       0       0       0       0       0       0
  3467 ;;      Locals:         0       0       0       0       0       0       0
  3468 ;;      Temps:          0       0       0       0       0       0       0
  3469 ;;      Totals:         0       0       0       0       0       0       0
  3470 ;;Total ram usage:        0 bytes
  3471 ;; Hardware stack levels used:    1
  3472 ;; This function calls:
  3473 ;;		Nothing
  3474 ;; This function is called by:
  3475 ;;		Interrupt level 2
  3476 ;; This function uses a non-reentrant model
  3477 ;;
  3478                           
  3479                           	psect	intcode
  3480  000008                     __pintcode:
  3481                           	callstack 0
  3482  000008                     _high_isr:
  3483                           	callstack 27
  3484                           
  3485                           ;incstack = 0
  3486  000008  825D               	bsf	int$flags,1,c	;set compiler interrupt flag (level 2)
  3487  00000A  EF2E  F00C         	goto	int_func
  3488                           
  3489                           	psect	intcode_body
  3490  00185C                     __pintcode_body:
  3491                           	callstack 27
  3492  00185C                     int_func:
  3493                           	callstack 27
  3494  00185C  925D               	bcf	int$flags,1,c	;clear compiler interrupt flag (level 2)
  3495  00185E  0011               	retfie		f
  3496  001860                     __end_of_high_isr:
  3497                           	callstack 0
  3498                           
  3499                           	psect	rparam
  3500  0000                     
  3501                           	psect	temp
  3502  00005D                     btemp:
  3503                           	callstack 0
  3504  00005D                     	ds	1
  3505  0000                     int$flags	set	btemp
  3506  0000                     wtemp8	set	btemp+1
  3507  0000                     ttemp5	set	btemp+1
  3508  0000                     ttemp6	set	btemp+4
  3509  0000                     ttemp7	set	btemp+8
  3510                           
  3511                           	psect	idloc
  3512                           
  3513                           ;Config register IDLOC0 @ 0x200000
  3514                           ;	unspecified, using default values
  3515  200000                     	org	2097152
  3516  200000  FF                 	db	255
  3517                           
  3518                           ;Config register IDLOC1 @ 0x200001
  3519                           ;	unspecified, using default values
  3520  200001                     	org	2097153
  3521  200001  FF                 	db	255
  3522                           
  3523                           ;Config register IDLOC2 @ 0x200002
  3524                           ;	unspecified, using default values
  3525  200002                     	org	2097154
  3526  200002  FF                 	db	255
  3527                           
  3528                           ;Config register IDLOC3 @ 0x200003
  3529                           ;	unspecified, using default values
  3530  200003                     	org	2097155
  3531  200003  FF                 	db	255
  3532                           
  3533                           ;Config register IDLOC4 @ 0x200004
  3534                           ;	unspecified, using default values
  3535  200004                     	org	2097156
  3536  200004  FF                 	db	255
  3537                           
  3538                           ;Config register IDLOC5 @ 0x200005
  3539                           ;	unspecified, using default values
  3540  200005                     	org	2097157
  3541  200005  FF                 	db	255
  3542                           
  3543                           ;Config register IDLOC6 @ 0x200006
  3544                           ;	unspecified, using default values
  3545  200006                     	org	2097158
  3546  200006  FF                 	db	255
  3547                           
  3548                           ;Config register IDLOC7 @ 0x200007
  3549                           ;	unspecified, using default values
  3550  200007                     	org	2097159
  3551  200007  FF                 	db	255
  3552                           
  3553                           	psect	config
  3554                           
  3555                           ; Padding undefined space
  3556  300000                     	org	3145728
  3557  300000  FF                 	db	255
  3558                           
  3559                           ;Config register CONFIG1H @ 0x300001
  3560                           ;	Oscillator Selection bits
  3561                           ;	FOSC = INTIO67, Internal oscillator block, port function on RA6 and RA7
  3562                           ;	Fail-Safe Clock Monitor Enable bit
  3563                           ;	FCMEN = OFF, Fail-Safe Clock Monitor disabled
  3564                           ;	Internal/External Oscillator Switchover bit
  3565                           ;	IESO = OFF, Oscillator Switchover mode disabled
  3566  300001                     	org	3145729
  3567  300001  08                 	db	8
  3568                           
  3569                           ;Config register CONFIG2L @ 0x300002
  3570                           ;	Power-up Timer Enable bit
  3571                           ;	PWRT = OFF, PWRT disabled
  3572                           ;	Brown-out Reset Enable bits
  3573                           ;	BOREN = SBORDIS, Brown-out Reset enabled in hardware only (SBOREN is disabled)
  3574                           ;	Brown Out Reset Voltage bits
  3575                           ;	BORV = 18, VBOR set to 1.8 V nominal
  3576  300002                     	org	3145730
  3577  300002  1F                 	db	31
  3578                           
  3579                           ;Config register CONFIG2H @ 0x300003
  3580                           ;	Watchdog Timer Enable bit
  3581                           ;	WDTEN = OFF, WDT is controlled by SWDTEN bit of the WDTCON register
  3582                           ;	Watchdog Timer Postscale Select bits
  3583                           ;	WDTPS = 32768, 1:32768
  3584  300003                     	org	3145731
  3585  300003  1E                 	db	30
  3586                           
  3587                           ; Padding undefined space
  3588  300004                     	org	3145732
  3589  300004  FF                 	db	255
  3590                           
  3591                           ;Config register CONFIG3H @ 0x300005
  3592                           ;	CCP2 MUX bit
  3593                           ;	CCP2MX = PORTC, CCP2 input/output is multiplexed with RC1
  3594                           ;	PORTB A/D Enable bit
  3595                           ;	PBADEN = ON, PORTB<4:0> pins are configured as analog input channels on Reset
  3596                           ;	Low-Power Timer1 Oscillator Enable bit
  3597                           ;	LPT1OSC = OFF, Timer1 configured for higher power operation
  3598                           ;	HFINTOSC Fast Start-up
  3599                           ;	HFOFST = ON, HFINTOSC starts clocking the CPU without waiting for the oscillator to st
      +                          ablize.
  3600                           ;	MCLR Pin Enable bit
  3601                           ;	MCLRE = ON, MCLR pin enabled; RE3 input pin disabled
  3602  300005                     	org	3145733
  3603  300005  8B                 	db	139
  3604                           
  3605                           ;Config register CONFIG4L @ 0x300006
  3606                           ;	Stack Full/Underflow Reset Enable bit
  3607                           ;	STVREN = ON, Stack full/underflow will cause Reset
  3608                           ;	Single-Supply ICSP Enable bit
  3609                           ;	LVP = OFF, Single-Supply ICSP disabled
  3610                           ;	Extended Instruction Set Enable bit
  3611                           ;	XINST = OFF, Instruction set extension and Indexed Addressing mode disabled (Legacy mo
      +                          de)
  3612                           ;	Background Debugger Enable bit
  3613                           ;	DEBUG = 0x1, unprogrammed default
  3614  300006                     	org	3145734
  3615  300006  81                 	db	129
  3616                           
  3617                           ; Padding undefined space
  3618  300007                     	org	3145735
  3619  300007  FF                 	db	255
  3620                           
  3621                           ;Config register CONFIG5L @ 0x300008
  3622                           ;	Code Protection Block 0
  3623                           ;	CP0 = OFF, Block 0 (000800-001FFFh) not code-protected
  3624                           ;	Code Protection Block 1
  3625                           ;	CP1 = OFF, Block 1 (002000-003FFFh) not code-protected
  3626                           ;	Code Protection Block 2
  3627                           ;	CP2 = OFF, Block 2 (004000-005FFFh) not code-protected
  3628                           ;	Code Protection Block 3
  3629                           ;	CP3 = OFF, Block 3 (006000-007FFFh) not code-protected
  3630  300008                     	org	3145736
  3631  300008  0F                 	db	15
  3632                           
  3633                           ;Config register CONFIG5H @ 0x300009
  3634                           ;	Boot Block Code Protection bit
  3635                           ;	CPB = OFF, Boot block (000000-0007FFh) not code-protected
  3636                           ;	Data EEPROM Code Protection bit
  3637                           ;	CPD = OFF, Data EEPROM not code-protected
  3638  300009                     	org	3145737
  3639  300009  C0                 	db	192
  3640                           
  3641                           ;Config register CONFIG6L @ 0x30000A
  3642                           ;	Write Protection Block 0
  3643                           ;	WRT0 = OFF, Block 0 (000800-001FFFh) not write-protected
  3644                           ;	Write Protection Block 1
  3645                           ;	WRT1 = OFF, Block 1 (002000-003FFFh) not write-protected
  3646                           ;	Write Protection Block 2
  3647                           ;	WRT2 = OFF, Block 2 (004000-005FFFh) not write-protected
  3648                           ;	Write Protection Block 3
  3649                           ;	WRT3 = OFF, Block 3 (006000-007FFFh) not write-protected
  3650  30000A                     	org	3145738
  3651  30000A  0F                 	db	15
  3652                           
  3653                           ;Config register CONFIG6H @ 0x30000B
  3654                           ;	Configuration Register Write Protection bit
  3655                           ;	WRTC = OFF, Configuration registers (300000-3000FFh) not write-protected
  3656                           ;	Boot Block Write Protection bit
  3657                           ;	WRTB = OFF, Boot Block (000000-0007FFh) not write-protected
  3658                           ;	Data EEPROM Write Protection bit
  3659                           ;	WRTD = OFF, Data EEPROM not write-protected
  3660  30000B                     	org	3145739
  3661  30000B  E0                 	db	224
  3662                           
  3663                           ;Config register CONFIG7L @ 0x30000C
  3664                           ;	Table Read Protection Block 0
  3665                           ;	EBTR0 = OFF, Block 0 (000800-001FFFh) not protected from table reads executed in other
      +                           blocks
  3666                           ;	Table Read Protection Block 1
  3667                           ;	EBTR1 = OFF, Block 1 (002000-003FFFh) not protected from table reads executed in other
      +                           blocks
  3668                           ;	Table Read Protection Block 2
  3669                           ;	EBTR2 = OFF, Block 2 (004000-005FFFh) not protected from table reads executed in other
      +                           blocks
  3670                           ;	Table Read Protection Block 3
  3671                           ;	EBTR3 = OFF, Block 3 (006000-007FFFh) not protected from table reads executed in other
      +                           blocks
  3672  30000C                     	org	3145740
  3673  30000C  0F                 	db	15
  3674                           
  3675                           ;Config register CONFIG7H @ 0x30000D
  3676                           ;	Boot Block Table Read Protection bit
  3677                           ;	EBTRB = OFF, Boot Block (000000-0007FFh) not protected from table reads executed in ot
      +                          her blocks
  3678  30000D                     	org	3145741
  3679  30000D  40                 	db	64
  3680                           tosu	equ	0xFFF
  3681                           tosh	equ	0xFFE
  3682                           tosl	equ	0xFFD
  3683                           stkptr	equ	0xFFC
  3684                           pclatu	equ	0xFFB
  3685                           pclath	equ	0xFFA
  3686                           pcl	equ	0xFF9
  3687                           tblptru	equ	0xFF8
  3688                           tblptrh	equ	0xFF7
  3689                           tblptrl	equ	0xFF6
  3690                           tablat	equ	0xFF5
  3691                           prodh	equ	0xFF4
  3692                           prodl	equ	0xFF3
  3693                           indf0	equ	0xFEF
  3694                           postinc0	equ	0xFEE
  3695                           postdec0	equ	0xFED
  3696                           preinc0	equ	0xFEC
  3697                           plusw0	equ	0xFEB
  3698                           fsr0h	equ	0xFEA
  3699                           fsr0l	equ	0xFE9
  3700                           wreg	equ	0xFE8
  3701                           indf1	equ	0xFE7
  3702                           postinc1	equ	0xFE6
  3703                           postdec1	equ	0xFE5
  3704                           preinc1	equ	0xFE4
  3705                           plusw1	equ	0xFE3
  3706                           fsr1h	equ	0xFE2
  3707                           fsr1l	equ	0xFE1
  3708                           bsr	equ	0xFE0
  3709                           indf2	equ	0xFDF
  3710                           postinc2	equ	0xFDE
  3711                           postdec2	equ	0xFDD
  3712                           preinc2	equ	0xFDC
  3713                           plusw2	equ	0xFDB
  3714                           fsr2h	equ	0xFDA
  3715                           fsr2l	equ	0xFD9
  3716                           status	equ	0xFD8

Data Sizes:
    Strings     4
    Constant    0
    Data        0
    BSS         18
    Persistent  0
    Stack       0

Auto Spaces:
    Space          Size  Autos    Used
    COMRAM           94     74      92
    BANK0           160      2       2
    BANK1           256      0       0
    BANK2           256      0       0
    BANK3           256      0       0
    BANK4           256      0       0
    BANK5           256      0       0

Pointer List with Targets:

    BT_load_string@string	PTR unsigned char  size(2) Largest target is 2
		 -> STR_2(CODE[2]), STR_1(CODE[2]), 


Critical Paths under _main in COMRAM

    _main->___fltol
    ___fltol->___flsub
    ___flsub->___fladd
    ___fladd->___flmul
    ___flmul->___xxtofl
    _Vibration_ON->___aldiv
    _BT_load_string->_BT_load_char

Critical Paths under _low_isr in COMRAM

    None.

Critical Paths under _high_isr in COMRAM

    None.

Critical Paths under _main in BANK0

    None.

Critical Paths under _low_isr in BANK0

    None.

Critical Paths under _high_isr in BANK0

    None.

Critical Paths under _main in BANK1

    None.

Critical Paths under _low_isr in BANK1

    None.

Critical Paths under _high_isr in BANK1

    None.

Critical Paths under _main in BANK2

    None.

Critical Paths under _low_isr in BANK2

    None.

Critical Paths under _high_isr in BANK2

    None.

Critical Paths under _main in BANK3

    None.

Critical Paths under _low_isr in BANK3

    None.

Critical Paths under _high_isr in BANK3

    None.

Critical Paths under _main in BANK4

    None.

Critical Paths under _low_isr in BANK4

    None.

Critical Paths under _high_isr in BANK4

    None.

Critical Paths under _main in BANK5

    None.

Critical Paths under _low_isr in BANK5

    None.

Critical Paths under _high_isr in BANK5

    None.

Call Graph Tables:

 ---------------------------------------------------------------------------------
 (Depth) Function   	        Calls       Base Space   Used Autos Params    Refs
 ---------------------------------------------------------------------------------
 (0) _main                                                 2     2      0    9519
                                              0 BANK0      2     2      0
                        _ADCRead_Pos
                     _BT_load_string
                _ConfigureOscillator
                            _InitApp
                           _Init_ADC
                        _Init_EUSART
                           _Init_PWM
                       _Vibration_ON
                            ___fladd
                            ___flmul
                            ___flsub
                            ___fltol
                           ___xxtofl
                       _broadcast_BT
 ---------------------------------------------------------------------------------
 (1) _broadcast_BT                                         2     2      0       0
                                              1 COMRAM     2     2      0
 ---------------------------------------------------------------------------------
 (1) ___xxtofl                                            14    10      4     626
                                              1 COMRAM    14    10      4
 ---------------------------------------------------------------------------------
 (1) ___fltol                                             10     6      4     381
                                             64 COMRAM    10     6      4
                            ___fladd (ARG)
                            ___flmul (ARG)
                            ___flsub (ARG)
                           ___xxtofl (ARG)
 ---------------------------------------------------------------------------------
 (1) ___flsub                                              8     0      8    2737
                                             56 COMRAM     8     0      8
                            ___fladd
                            ___flmul (ARG)
                           ___xxtofl (ARG)
 ---------------------------------------------------------------------------------
 (2) ___fladd                                             16     8      8    2414
                                             40 COMRAM    16     8      8
                            ___flmul (ARG)
                           ___xxtofl (ARG)
 ---------------------------------------------------------------------------------
 (1) ___flmul                                             25    17      8    1896
                                             15 COMRAM    25    17      8
                           ___xxtofl (ARG)
 ---------------------------------------------------------------------------------
 (1) _Vibration_ON                                        11     9      2    1207
                                             15 COMRAM    11     9      2
                            ___aldiv
                             ___lmul
 ---------------------------------------------------------------------------------
 (2) ___lmul                                              12     4      8     370
                                              1 COMRAM    12     4      8
 ---------------------------------------------------------------------------------
 (2) ___aldiv                                             14     6      8     452
                                              1 COMRAM    14     6      8
 ---------------------------------------------------------------------------------
 (1) _Init_PWM                                             0     0      0       0
 ---------------------------------------------------------------------------------
 (1) _Init_EUSART                                          0     0      0       0
 ---------------------------------------------------------------------------------
 (1) _Init_ADC                                             0     0      0       0
 ---------------------------------------------------------------------------------
 (1) _InitApp                                              0     0      0       0
 ---------------------------------------------------------------------------------
 (1) _ConfigureOscillator                                  0     0      0       0
 ---------------------------------------------------------------------------------
 (1) _BT_load_string                                       2     0      2     212
                                              2 COMRAM     2     0      2
                       _BT_load_char
 ---------------------------------------------------------------------------------
 (2) _BT_load_char                                         1     1      0      15
                                              1 COMRAM     1     1      0
 ---------------------------------------------------------------------------------
 (1) _ADCRead_Pos                                          6     4      2      46
                                              1 COMRAM     6     4      2
 ---------------------------------------------------------------------------------
 Estimated maximum stack depth 2
 ---------------------------------------------------------------------------------
 (Depth) Function   	        Calls       Base Space   Used Autos Params    Refs
 ---------------------------------------------------------------------------------
 (3) _low_isr                                              1     1      0       0
                                              0 COMRAM     1     1      0
 ---------------------------------------------------------------------------------
 Estimated maximum stack depth 3
 ---------------------------------------------------------------------------------
 (Depth) Function   	        Calls       Base Space   Used Autos Params    Refs
 ---------------------------------------------------------------------------------
 (4) _high_isr                                             0     0      0       0
 ---------------------------------------------------------------------------------
 Estimated maximum stack depth 4
 ---------------------------------------------------------------------------------

 Call Graph Graphs:

 _main (ROOT)
   _ADCRead_Pos
   _BT_load_string
     _BT_load_char
   _ConfigureOscillator
   _InitApp
   _Init_ADC
   _Init_EUSART
   _Init_PWM
   _Vibration_ON
     ___aldiv
     ___lmul
   ___fladd
     ___flmul (ARG)
       ___xxtofl (ARG)
     ___xxtofl (ARG)
   ___flmul
     ___xxtofl (ARG)
   ___flsub
     ___fladd
       ___flmul (ARG)
         ___xxtofl (ARG)
       ___xxtofl (ARG)
     ___flmul (ARG)
       ___xxtofl (ARG)
     ___xxtofl (ARG)
   ___fltol
     ___fladd (ARG)
       ___flmul (ARG)
         ___xxtofl (ARG)
       ___xxtofl (ARG)
     ___flmul (ARG)
       ___xxtofl (ARG)
     ___flsub (ARG)
       ___fladd
         ___flmul (ARG)
           ___xxtofl (ARG)
         ___xxtofl (ARG)
       ___flmul (ARG)
         ___xxtofl (ARG)
       ___xxtofl (ARG)
     ___xxtofl (ARG)
   ___xxtofl
   _broadcast_BT

 _low_isr (ROOT)

 _high_isr (ROOT)

 Address spaces:
Name               Size   Autos  Total    Cost      Usage
BIGRAM             5FF      0       0      17        0.0%
EEDATA             100      0       0       0        0.0%
BITBANK5           100      0       0      16        0.0%
BANK5              100      0       0      14        0.0%
BITBANK4           100      0       0      12        0.0%
BANK4              100      0       0      13        0.0%
BITBANK3           100      0       0      10        0.0%
BANK3              100      0       0      11        0.0%
BITBANK2           100      0       0       8        0.0%
BANK2              100      0       0       9        0.0%
BITBANK1           100      0       0       6        0.0%
BANK1              100      0       0       7        0.0%
BITBANK0            A0      0       0       4        0.0%
BANK0               A0      2       2       5        1.2%
BITCOMRAM           5E      0       0       0        0.0%
COMRAM              5E     4A      5C       1       97.9%
BITSFR               0      0       0     200        0.0%
SFR                  0      0       0     200        0.0%
STACK                0      0       0       2        0.0%
NULL                 0      0       0       0        0.0%
ABS                  0      0      5E      15        0.0%
DATA                 0      0      5E       3        0.0%
CODE                 0      0       0       0        0.0%


Microchip Technology PIC18 Macro Assembler V2.30 build 20200825195618 
Symbol Table                                                                                   Wed Apr 21 15:59:08 2021

                           l72 10E2                             l83 1860                             l92 185A  
                           _GO 007E11                             u10 17A2                             u11 179E  
                           u20 17B0                             u21 17AC                             bsr 000FE0  
                          l111 17F6                            l114 17D4                            l211 16D8  
                          l212 16E8                            l133 146C                            l129 1832  
                          l170 178C                            l173 1794                            l182 184E  
                          l176 17A2                            l179 17B0                            l197 1764  
                          l279 1578                            l730 07A8                            l821 0D80  
                          l814 0B8A                            l831 0EB0                            l823 0DF8  
                          l824 0DE6                            l728 07F4                            l745 090E  
                          l737 0AC4                            l729 07E2                            l497 167E  
                          l818 0EEE                            l754 09DE                            l770 172E  
                          l755 09CC                            l862 127E                            l855 11E6  
                          l873 1790                            l858 1342                            l869 12DA  
                          _PR2 000FCB                            wreg 000FE8                   ___flmul@aexp 0021  
                 ___flmul@bexp 0022           __size_of_ADCRead_Pos 0024                   ___flmul@sign 001C  
                 ___flmul@temp 0027                   ___flmul@prod 0023                   ___fltol@exp1 004A  
                         l2001 12EA                           l1131 1850                           l2011 1332  
                         l2003 12EE                           l1133 17D6                           l1141 1828  
                         l2005 1312                           l2101 0F1C                           l1151 1782  
                         l1143 182E                           l1135 1816                           l2007 1322  
                         l2111 0F42                           l2103 0F24                           l1153 1784  
                         l1145 1830                           l1137 181A                           l2009 1330  
                         l2121 108A                           l2113 0FCA                           l2105 0F28  
                         l1155 1786                           l1147 1766                           l1139 1826  
                         l2131 10BE                           l2123 108C                           l2115 1052  
                         l2107 0F2A                           l1157 1788                           l1149 177E  
                         l2141 1108                           l2133 10D6                           l2125 1098  
                         l2117 105E                           l2109 0F36                           l1159 178A  
                         l1511 16AE                           l1191 1838                           l2151 114A  
                         l2143 1110                           l2135 10DA                           l2127 10A0  
                         l2119 1074                           l1521 1490                           l1513 16B8  
                         l1505 1680                           l1601 06E6                           l2145 1122  
                         l2137 10E4                           l2153 114E                           l2129 10B2  
                         l1531 14C6                           l1523 1494                           l1515 146E  
                         l1507 1690                           l1611 0712                           l1603 06F8  
                         l2155 115C                           l2147 112E                           l2139 10FC  
                         l2091 0EFC                           l1541 1508                           l1533 14DC  
                         l1525 14A2                           l1517 1472                           l1509 169E  
                         l1701 0948                           l1621 0726                           l1613 0716  
                         l1605 0706                           l1189 1834                           l2157 116E  
                         l2149 1146                           l2093 0F00                           l1543 1526  
                         l1535 14E4                           l1551 1548                           l1527 14B2  
                         l1519 1480                           l1711 0978                           l1703 0952  
                         l1631 073A                           l1623 072A                           l1615 071A  
                         l1607 070A                           l2159 1170                           l2095 0F04  
                         l1553 1558                           l1545 1536                           l1537 14F0  
                         l1529 14B6                           l1801 0B12                           l1721 09A0  
                         l1713 097C                           l1705 0960                           l1641 0774  
                         l1633 073E                           l1625 072E                           l1617 071E  
                         l1609 070E                           l1561 0612                           l2097 0F0C  
                         l2089 0EF0                           l1555 1568                           l1547 1538  
                         l1539 14FE                           l1811 0B42                           l1803 0B18  
                         l1731 09FA                           l1723 09AE                           l1715 098C  
                         l1707 0962                           l1651 07C6                           l1643 0790  
                         l1635 0742                           l1627 0732                           l1619 0722  
                         l1571 0652                           l1563 0620                           l2099 0F14  
                         l1549 1542                           l1901 0E7E                           l1821 0B7A  
                         l1813 0B44                           l1805 0B28                           l1741 0A64  
                         l1733 0A08                           l1725 09C4                           l1709 0970  
                         l1717 098E                           l1661 0812                           l1653 07D4  
                         l1645 07A0                           l1629 0736                           l1637 0746  
                         l1581 0684                           l1573 0654                           l1565 0622  
                         l1911 0ED4                           l1903 0E98                           l1831 0BCA  
                         l1823 0B9A                           l1815 0B54                           l1807 0B2E  
                         l1751 0A9E                           l1743 0A84                           l1735 0A42  
                         l1671 0852                           l1719 099C                           l1655 07D6  
                         l1647 07B6                           l1639 074A                           l1591 06AC  
                         l1583 0686                           l1567 0632                           l1575 065C  
                         l1559 0606                           l1761 1344                           l1905 0EB4  
                         l1913 0EDA                           l1841 0C1A                           l1833 0BD4  
                         l1825 0BAA                           l1817 0B64                           l1809 0B34  
                         l1753 0AA4                           l1745 0A88                           l1729 09EE  
                         l1737 0A44                           l1681 087C                           l1673 085E  
                         l1665 0826                           l1657 07E0                           l1649 07C2  
                         l1593 06BC                           l1585 068C                           l1577 066C  
                         l1569 0642                           l1921 16FA                           l1771 145A  
                         l1915 0EDE                           l1907 0EC4                           l1851 0C5C  
                         l1843 0C26                           l1835 0BEA                           l1819 0B74  
                         l1755 0AB2                           l1747 0A96                           l1739 0A54  
                         l1691 08EE                           l1675 0862                           l1667 0836  
                         l1659 0802                           l1683 0882                           l1595 06CC  
                         l1587 069A                           l1579 0672                           l1931 15A4  
                         l1773 17B2                           l1781 1730                           l1765 135E  
                         l1909 0ED2                           l1861 0CBE                           l1853 0C6C  
                         l1845 0C34                           l1837 0BF6                           l1829 0BBE  
                         l1757 0AB4                           l1749 0A9C                           l1685 08A8  
                         l1693 08FE                           l1677 0870                           l1669 0844  
                         l1597 06CE                           l1589 069C                           l1941 15F2  
                         l1933 15CE                           l1925 157A                           l1775 17BA  
                         l1783 1734                           l1767 1396                           l1871 0D66  
                         l1863 0CDA                           l1855 0C86                           l1847 0C40  
                         l1839 0C0E                           l1791 0AD2                           l1695 0924  
                         l1687 08DC                           l1679 0872                           l1599 06D6  
                         l1919 16EA                           l1951 161E                           l1935 15D0  
                         l1927 1590                           l1777 17CC                           l1785 1744  
                         l1769 13C6                           l1881 0DA2                           l1873 0D70  
                         l1865 0D04                           l1857 0C96                           l1849 0C50  
                         l1793 0AE0                           l1697 0934                           l1689 08DE  
                         l1961 164E                           l1937 15E0                           l1787 1748  
                         l1891 0E14                           l1883 0DB0                           l1875 0D7E  
                         l1867 0D3A                           l1859 0CB2                           l1795 0AE2  
                         l1963 165E                           l1947 160A                           l1939 15E4  
                         l1971 11A2                           l1893 0E22                           l1885 0DDE  
                         l1877 0D90                           l1869 0D48                           l1797 0AF2  
                         l1789 0AC6                           l1965 166E                           l1957 1632  
                         l1949 1614                           l1981 1220                           l1973 11B0  
                         l1895 0E4C                           l1879 0D9E                           l1799 0B02  
                         l1959 163E                           l1991 1274                           l1983 1228  
                         l1975 11F6                           l1889 0E08                           l1897 0E50  
                         l1993 12B0                           l1985 1234                           l1977 120C  
                         l1969 1192                           l1899 0E6A                           l1995 12BC  
                         l1987 1266                           l1997 12CA                           l1989 1268  
                         l1999 12E8                           STR_1 0603                           STR_2 0601  
                         _CREN 007D5C                           u1100 1558                           u1101 1554  
                         u1030 169E                           u1110 0620                           u1031 169A  
                         u1111 061C                           u1040 16D8                           u1200 0774  
                         u1120 0632                           u2000 1074                           u1041 16D4  
                         u1201 0770                           u1121 062E                           u2001 1070  
                         u1050 1480                           u1210 078C                           u1130 0642  
                         u2010 108A                           u1051 147C                           u1211 0786  
                         u1131 063E                           u2011 1086                           u1060 14A2  
                         u1300 0870                           u1220 078E                           u1140 0684  
                         u2020 10B2                           u1061 149E                           u1301 086C  
                         u1141 0680                           u2021 10AE                           u1070 14DC  
                         u1310 08A8                           u1230 07B6                           u1150 069A  
                         u2030 1122                           u1071 14D8                           u1311 08A4  
                         u1231 07B2                           u1151 0696                           u2031 111E  
                         u1080 14FE                           u1400 09C4                           u1320 08EE  
                         u1240 07D4                           u1160 06AC                           u2040 115C  
                         u1081 14FA                           u1401 09C0                           u1321 08EA  
                         u1241 07D0                           u1161 06A8                           u2041 1158  
                         u1090 1526                           u1410 09DA                           u1330 0924  
                         u1250 07F4                           u1170 06BC                           u2050 116E  
                         u1091 1522                           u1411 09D6                           u1331 0920  
                         u1251 07F0                           u1171 06B8                           u2107 1842  
                         u2051 116A                           u1500 135A                           u1420 09EE  
                         u1340 0934                           u1260 0802                           u1180 06F8  
                         u1501 1356                           u1421 09EA                           u1341 0930  
                         u1261 07FE                           u1181 06F4                           u1430 0A08  
                         u1350 0960                           u1270 0812                           u1190 0706  
                         u1431 0A04                           u1351 095C                           u1271 080E  
                         u1191 0702                           u1600 0B02                           u1440 0A42  
                         u1360 0970                           u1280 0844                           u1601 0AFE  
                         u1441 0A3E                           u1361 096C                           u1281 0840  
                         u1530 1458                           u1610 0B42                           u1450 0A54  
                         u1370 098C                           u1290 0852                           u1531 1452  
                         u1515 1376                           u1611 0B3E                           u1451 0A50  
                         u1371 0988                           u1291 084E                           u2067 10CA  
                         u1700 0DDE                           u1620 0B54                           u1460 0A64  
                         u1380 099C                           u1525 140E                           u1701 0DDA  
                         u1621 0B50                           u1461 0A60                           u1381 0998  
                         u2077 10F0                           u1550 146A                           u1526 1418  
                         u1710 0DF4                           u1630 0B64                           u1470 0A84  
                         u1390 09AE                           u1551 1464                           u1527 1428  
                         u1711 0DF0                           u1631 0B60                           u1471 0A80  
                         u1391 09AA                           u2087 113A                           u1720 0E08  
                         u1640 0B9A                           u1480 0A96                           u1800 1606  
                         u1545 145A                           u1721 0E04                           u1641 0B96  
                         u1481 0A92                           u1801 1602                           u2097 117C  
                         u1570 1764                           u1730 0E22                           u1650 0BAA  
                         u1490 0AB2                           u1810 162E                           u1571 1760  
                         u1731 0E1E                           u1651 0BA6                           u1491 0AAE  
                         u1811 162A                           u1740 0E6A                           u1660 0D24  
                         u1580 0AE0                           u1820 164E                           u1900 12DA  
                         u1565 146C                           u1741 0E66                           u1581 0ADC  
                         u1821 164A                           u1901 12D6                           u1750 0E98  
                         u1670 0D7E                           u1590 0AF2                           u1830 165E  
                         u1910 12E8                           u1751 0E94                           u1671 0D7A  
                         u1591 0AEE                           u1831 165A                           u1911 12E4  
                         u1760 0ED2                           u1680 0D9E                           u1920 1322  
                         u1840 11A2                           u1761 0ECE                           u1681 0D9A  
                         u1665 0D1A                           u1921 131E                           u1841 119E  
                         u1690 0DB0                           u1770 1590                           u1930 1330  
                         u1850 11B0                           u1691 0DAC                           u1771 158C  
                         u1931 132C                           u1851 11AC                           u1780 15C4  
                         u1860 120C                           u1861 1208                           u1790 15F2  
                         u1870 1262                           u1791 15EE                           u1871 125E  
                         u1880 12AC                           u1785 15BA                           u1881 12A8  
                         u1890 12CA                           u1891 12C6                           _PEIE 007F96  
                         i1l18 001E                           _RCIF 007CF5                           i2l13 185C  
                         _OERR 007D59                           _TRMT 007D61                           _TXIF 007CF4  
               ??_broadcast_BT 0002                  ??_Init_EUSART 0002                           _main 0EF0  
                         _temp 0055                           btemp 005D                           prodh 000FF4  
                         prodl 000FF3                           start 0026                   ___param_bank 000000  
              __end_of_InitApp 185C                          _DC1B0 007DEC                          _DC1B1 007DED  
                ___fltol@sign1 0049                __end_of___aldiv 157A                __end_of___fladd 0AC6  
                        ?_main 0001                __end_of___flmul 0EF0                __end_of___flsub 1730  
              __end_of___fltol 1680                          _RCREG 000FAE                          _SPBRG 000FAF  
                        _PORTD 000F83                          _TXREG 000FAD            _ConfigureOscillator 1860  
          ___lmul@multiplicand 0006                __end_of_low_isr 0026                          tablat 000FF5  
                        ttemp5 005E                          ttemp6 0061                          ttemp7 0065  
                        status 000FD8                          wtemp8 005E           ?_ConfigureOscillator 0001  
              __initialization 17F8            __end_of_Init_EUSART 178E                   __end_of_main 1190  
             __end_of_Init_ADC 17F8               __end_of_Init_PWM 1834                         ??_main 0060  
_send_good_posture_msg_counter 004D                  __activetblptr 000001                         _ADRESH 000FC4  
                       _ADRESL 000FC3                         _CCPR1L 000FBE                 _BT_load_string 1730  
             __end_of___xxtofl 1344                      ??_InitApp 0002          ??_ConfigureOscillator 0002  
             __end_of_high_isr 1860                         ___lmul 1680                      ??___aldiv 000A  
                    ??___fladd 0031                      ??___flmul 0018                      ??___flsub 0041  
                    ??___fltol 0045                         clear_0 17FE           __end_of_broadcast_BT 1850  
                 __mediumconst 0000                      ??_low_isr 0001                         tblptrh 000FF7  
                       tblptrl 000FF6                         tblptru 000FF8         __end_of_BT_load_string 1766  
                 ___xxtofl@arg 000C                   ___xxtofl@exp 000B                   ___xxtofl@val 0002  
                   __accesstop 0060        __end_of__initialization 1804                    _Init_EUSART 1766  
                ___rparam_used 000001                     ___fltol@f1 0041                 __pcstackCOMRAM 0001  
           Vibration_ON@output 0017                ?_BT_load_string 0003                      ?_Init_ADC 0001  
                    ?_Init_PWM 0001                  ?_BT_load_char 0001                        ?___lmul 0002  
               ___lmul@product 000A                  ??_ADCRead_Pos 0004                      ?___xxtofl 0002  
                    ?_high_isr 0001                     ??_Init_ADC 0002                     ??_Init_PWM 0002  
               ??_BT_load_char 0002                        _InitApp 1850                        __Hparam 0000  
                      __Lparam 0000                  ?_Vibration_ON 0010                        ___aldiv 146E  
        __size_of_broadcast_BT 001C                        ___fladd 0606                __size_of___lmul 006A  
                      ___flmul 0AC6                        ___flsub 16EA                        ___fltol 157A  
                 __psmallconst 0600                        __pcinit 17F8                      _ANSELbits 000F7E  
                      __ramtop 0600                        __ptext0 0EF0                        __ptext1 1834  
                      __ptext2 1190                        __ptext3 157A                        __ptext4 16EA  
                      __ptext5 0606                        __ptext6 0AC6                        __ptext7 1344  
                      __ptext8 1680                        __ptext9 146E                      _T2CONbits 000FCA  
                      _max_pos 0053                     ??___xxtofl 0006                        _min_pos 0051  
                   _duty_cycle 0057               ___aldiv@dividend 0002                        _low_isr 0018  
          __end_of_ADCRead_Pos 17D6                     ??_high_isr 0001                 __pintcode_body 185C  
         end_of_initialization 1804                        int_func 185C                   _broadcast_BT 1834  
               ??_Vibration_ON 0012                      _RCSTAbits 000FAB               ___aldiv@quotient 000C  
                      postinc0 000FEE                      _PORTAbits 000F80                      _PORTDbits 000F83  
                  ___fladd@grs 0038                  ___xxtofl@sign 000A                      _TRISAbits 000F92  
                    _TRISBbits 000F93                      _TRISCbits 000F94                      _TRISDbits 000F95  
  __end_of_ConfigureOscillator 1862                    ___flmul@grs 001D                   ?_Init_EUSART 0001  
                  _CCP1CONbits 000FBD                      _TXSTAbits 000FAC                 __end_of___lmul 16EA  
                  _BAUDCONbits 000FB8           __end_of_BT_load_char 17B2                    _ADCRead_Pos 17B2  
             ??_BT_load_string 0005            start_initialization 17F8              __size_of_Init_ADC 0022  
            __size_of_Init_PWM 001E                       ??___lmul 000A                      ___fladd@a 002D  
                    ___fladd@b 0029                      ___flmul@a 0014                      ___flmul@b 0010  
                  __pbssCOMRAM 004B                      ___flsub@a 003D                      ___flsub@b 0039  
                __pcstackBANK0 0060           __end_of_Vibration_ON 146E              __size_of___xxtofl 01B4  
 _send_bad_posture_msg_counter 004F              __size_of_high_isr 1858                       ?_InitApp 0001  
                    __pintcode 0008                       ?___aldiv 0002                       ?___fladd 0029  
                     ?___flmul 0010                       ?___flsub 0039                       ?___fltol 0041  
                  __pintcodelo 0018                      _get_value 004B                    __smallconst 0600  
                     ?_low_isr 0001                ___aldiv@divisor 0006                ___aldiv@counter 000A  
                     _PIE1bits 000F9D           __size_of_Init_EUSART 0028          __size_of_BT_load_char 0024  
                   _ADCON0bits 000FC2                     _ADCON1bits 000FC1                     _ADCON2bits 000FC0  
            ___lmul@multiplier 0002                       _Init_ADC 17D6                       _Init_PWM 1816  
                 _BT_load_char 178E               __size_of_InitApp 000C                       __Hrparam 0000  
                     __Lrparam 0000                   __Lsmallconst 0600               __size_of___aldiv 010C  
             __size_of___fladd 04C0               __size_of___flmul 042A               __size_of___flsub 0046  
             __size_of___fltol 0106         Vibration_ON@percentage 0010          __size_of_Vibration_ON 012A  
                 ?_ADCRead_Pos 0002                       ___xxtofl 1190               __size_of_low_isr 000E  
                     __ptext10 1816                       __ptext11 1766                       __ptext12 17D6  
                     __ptext13 1850                       __ptext14 1860                       __ptext15 1730  
                     __ptext16 178E                       __ptext17 17B2                       _high_isr 0008  
                __size_of_main 02A0                       _real_pos 0059   __size_of_ConfigureOscillator 0002  
                 _Vibration_ON 1344                       int$flags 005D                 BT_load_char@bt 0002  
         BT_load_string@string 0003                    _neutral_pos 005B                       intlevel1 0000  
                     intlevel2 0000                     _OSCCONbits 000FD3                ADCRead_Pos@temp 0006  
                 ___aldiv@sign 000B                  ___fladd@signs 0035        __size_of_BT_load_string 0036  
                 ___fladd@aexp 0036                   ___fladd@bexp 0037                  ?_broadcast_BT 0001  
